?NULLGetEncodedLength@LHPacketisableObject@@QAEKKPAX@Z = .text:0x10001000; // type:function size:0x20
?NULLEncodeToBuffer@LHPacketisableObject@@QAEPAEPAEKPAX@Z = .text:0x10001020; // type:function size:0x30
?NULLDecodeFromBuffer@LHPacketisableObject@@QAEPAEPAE@Z = .text:0x10001050; // type:function size:0x30
??0LHPacketisableObject@@QAE@XZ = .text:0x10001080; // type:function size:0x10
??0LHPacketisableObject@@QAE@ABV0@@Z = .text:0x10001090; // type:function size:0x10
??4LHPacketisableObject@@QAEAAV0@ABV0@@Z = .text:0x100010A0; // type:function size:0x10
??0LH_USER_ID@@QAE@XZ = .text:0x100010B0; // type:function size:0x10
??0LH_USER_ID@@QAE@K@Z = .text:0x100010C0; // type:function size:0x10
??BLH_USER_ID@@QAEKXZ = .text:0x100010D0; // type:function size:0x10
??4LH_USER_ID@@QAE?AU0@AAK@Z = .text:0x100010E0; // type:function size:0x20
?IsValid@LH_USER_ID@@QAEHXZ = .text:0x10001100; // type:function size:0x20
?IsType@LH_USER_ID@@QAEHW4CATEGORY@1@@Z = .text:0x10001120; // type:function size:0x20
?IsServer@LH_USER_ID@@QAEHXZ = .text:0x10001140; // type:function size:0x30
?IsGlobal@LH_USER_ID@@QAEHXZ = .text:0x10001170; // type:function size:0x20
?IsPlayer@LH_USER_ID@@QAEHXZ = .text:0x10001190; // type:function size:0x20
??4LH_USER_ID@@QAEAAU0@ABU0@@Z = .text:0x100011B0; // type:function size:0x10
fn_100011C0 = .text:0x100011C0; // type:function size:0x20
??4LHHttp@@QAEAAV0@ABV0@@Z = .text:0x100011E0; // type:function size:0x20
??0LHHttpHeaders@@QAE@XZ = .text:0x10001200; // type:function size:0x10
??1LHHttpHeaders@@QAE@XZ = .text:0x10001210; // type:function size:0x40
??4LHHttpHeaders@@QAEAAV0@ABV0@@Z = .text:0x10001250; // type:function size:0x20
??0LHHttpHeaderStatus@@QAE@XZ = .text:0x10001270; // type:function size:0x30
??1LHHttpHeaderStatus@@QAE@XZ = .text:0x100012A0; // type:function size:0x50
??4LHHttpHeaderStatus@@QAEAAU0@ABU0@@Z = .text:0x100012F0; // type:function size:0x20
?SetTimeOut@LHHttp2@@QAEXK@Z = .text:0x10001310; // type:function size:0x10
?GetTimeOut@LHHttp2@@QAEKXZ = .text:0x10001320; // type:function size:0x10
?GetReadSize@LHHttp2@@QAEKXZ = .text:0x10001330; // type:function size:0x10
?GetSendSize@LHHttp2@@QAEKXZ = .text:0x10001340; // type:function size:0x10
?SetMaxForwardings@LHHttp2@@QAEXK@Z = .text:0x10001350; // type:function size:0x10
?GetMaxForwardings@LHHttp2@@QAEKXZ = .text:0x10001360; // type:function size:0x10
??4LHHttp2@@QAEAAV0@ABV0@@Z = .text:0x10001370; // type:function size:0x20
??0LHNetUser@@QAE@XZ = .text:0x10001390; // type:function size:0x20
?GetID@LHNetUser@@QAE?AULH_USER_ID@@XZ = .text:0x100013B0; // type:function size:0x10
?GetName@LHNetUser@@QAEPAGXZ = .text:0x100013C0; // type:function size:0x10
?IsValid@LHNetUser@@QAEHXZ = .text:0x100013D0; // type:function size:0x20
?ChangeName@LHNetUser@@QAEXPAG@Z = .text:0x100013F0; // type:function size:0x10
?GetPassword@LHNetUser@@QAEPADXZ = .text:0x10001400; // type:function size:0x10
?ChangeID@LHNetUser@@QAEXK@Z = .text:0x10001410; // type:function size:0x10
??4LHNetUser@@QAEAAV0@ABV0@@Z = .text:0x10001420; // type:function size:0x20
?ClearAllData@LHTransportInfo@@QAEXXZ = .text:0x10001440; // type:function size:0x20
??0LHTransportInfo@@QAE@XZ = .text:0x10001460; // type:function size:0x30
??0LHTransportInfo@@QAE@W4LH_TRANSPORT_TYPE@@KPAX@Z = .text:0x10001490; // type:function size:0x40
?Set@LHTransportInfo@@QAEXPAV1@@Z = .text:0x100014D0; // type:function size:0x30
??0LHTransportInfo@@QAE@PAV0@@Z = .text:0x10001500; // type:function size:0x40
?Set@LHTransportInfo@@QAEXW4LH_TRANSPORT_TYPE@@PAD@Z = .text:0x10001540; // type:function size:0x40
??0LHTransportInfo@@QAE@W4LH_TRANSPORT_TYPE@@PAD@Z = .text:0x10001580; // type:function size:0x50
?Set@LHTransportInfo@@QAEXPAULHIAddress@@@Z = .text:0x100015D0; // type:function size:0x50
??0LHTransportInfo@@QAE@PAULHIAddress@@@Z = .text:0x10001620; // type:function size:0x50
?Set@LHTransportInfo@@QAEXPADG@Z = .text:0x10001670; // type:function size:0x80
??0LHTransportInfo@@QAE@PADG@Z = .text:0x100016F0; // type:function size:0x90
?Set@LHTransportInfo@@QAEXG@Z = .text:0x10001780; // type:function size:0x30
??0LHTransportInfo@@QAE@G@Z = .text:0x100017B0; // type:function size:0x40
?Set@LHTransportInfo@@QAEXW4LH_TRANSPORT_TYPE@@@Z = .text:0x100017F0; // type:function size:0x20
??0LHTransportInfo@@QAE@W4LH_TRANSPORT_TYPE@@@Z = .text:0x10001810; // type:function size:0x20
?GetPort@LHTransportInfo@@QAEGXZ = .text:0x10001830; // type:function size:0x10
?GetIP@LHTransportInfo@@QAEPADXZ = .text:0x10001840; // type:function size:0x10
?Compare@LHTransportInfo@@QAEJPAV1@@Z = .text:0x10001850; // type:function size:0x40
??0LHTransportInfo@@QAE@ABV0@@Z = .text:0x10001890; // type:function size:0x60
??4LHTransportInfo@@QAEAAV0@ABV0@@Z = .text:0x100018F0; // type:function size:0x60
?Set@LHTransportInfo@@QAEXW4LH_TRANSPORT_TYPE@@KPAX@Z = .text:0x10001950; // type:function size:0x40
?UpdateLength@LHTransportInfo@@QAEXXZ = .text:0x10001990; // type:function size:0x30
??0LHPlayer@@QAE@XZ = .text:0x100019C0; // type:function size:0x50
?GetPlayerID@LHPlayer@@SA?AULH_USER_ID@@U2@PAV?$LHLinkedList@PAVLHPlayer@@@@@Z = .text:0x10001A10; // type:function size:0x30
?SetTransportInfo@LHPlayer@@QAEXPAVLHTransportInfo@@@Z = .text:0x10001A40; // type:function size:0x60
?GetTransportInfo@LHPlayer@@QAEPAVLHTransportInfo@@XZ = .text:0x10001AA0; // type:function size:0x20
?GetName@LHPlayer@@QAEPAGXZ = .text:0x10001AC0; // type:function size:0x10
?GetUserID@LHPlayer@@QAE?AULH_USER_ID@@XZ = .text:0x10001AD0; // type:function size:0x10
?IsServer@LHPlayer@@QAEHXZ = .text:0x10001AE0; // type:function size:0x30
?GetPlayerID@LHPlayer@@QAEJXZ = .text:0x10001B10; // type:function size:0x10
?SetPlayerID@LHPlayer@@QAEXJ@Z = .text:0x10001B20; // type:function size:0x10
?GetUserFileName@LHPlayer@@QAEPBDXZ = .text:0x10001B30; // type:function size:0x10
?GetSystemData@LHPlayer@@QAEPAXXZ = .text:0x10001B40; // type:function size:0x10
?GetUserData@LHPlayer@@QAEPAXXZ = .text:0x10001B50; // type:function size:0x10
?GetUserDataLen@LHPlayer@@QAEKXZ = .text:0x10001B60; // type:function size:0x10
?IsHost@LHPlayer@@QAE_NXZ = .text:0x10001B70; // type:function size:0x10
??0LHPlayer@@QAE@ABV0@@Z = .text:0x10001B80; // type:function size:0x100
??4LHPlayer@@QAEAAV0@ABV0@@Z = .text:0x10001C80; // type:function size:0x110
?ClearAllData@LHNetEvent@@AAEXXZ = .text:0x10001D90; // type:function size:0x30
??0LHNetEvent@@AAE@XZ = .text:0x10001DC0; // type:function size:0x50
?GetPacket@LHNetEvent@@QAEPAVLHPacket@@XZ = .text:0x10001E10; // type:function size:0x10
?GetHeaderSize@LHNetEvent@@QAEKXZ = .text:0x10001E20; // type:function size:0x10
?GetDataLen@LHNetEvent@@QAEKXZ = .text:0x10001E30; // type:function size:0x10
?GetUserID@LHNetEvent@@QAE?AULH_USER_ID@@XZ = .text:0x10001E40; // type:function size:0x10
?GetDataPtr@LHNetEvent@@QAEPAXXZ = .text:0x10001E50; // type:function size:0x10
?GetType@LHNetEvent@@QAE?AW4LH_NETEVENT_TYPE@@XZ = .text:0x10001E60; // type:function size:0x10
?GetChannelName@LHNetEvent@@QAEPADXZ = .text:0x10001E70; // type:function size:0x10
?CreateSimple@LHNetEvent@@SAPAV1@JKPAX@Z = .text:0x10001E80; // type:function size:0x20
?GetTickCount@LHNetEvent@@QAEKXZ = .text:0x10001EA0; // type:function size:0x10
?SetTickCount@LHNetEvent@@QAEXK@Z = .text:0x10001EB0; // type:function size:0x10
?GetUDPinfo@LHNetEvent@@QAEPAVLHTransportInfo@@XZ = .text:0x10001EC0; // type:function size:0x10
??0LHNetEvent@@QAE@ABV0@@Z = .text:0x10001ED0; // type:function size:0x70
??4LHNetEvent@@QAEAAV0@ABV0@@Z = .text:0x10001F40; // type:function size:0x70
?ProcessEvent@LHConnection@@EAE?AW4LH_RETURN@@PAVLHNetEvent@@@Z = .text:0x10001FB0; // type:function size:0x10
??0LHConnection@@QAE@XZ = .text:0x10001FC0; // type:function size:0x20
??0LHConnection@@QAE@P6A?AW4LH_RETURN@@PAVLHNetEvent@@PAV0@PAX@Z2@Z = .text:0x10001FE0; // type:function size:0x30
?IsOpen@LHConnection@@QAEHXZ = .text:0x10002010; // type:function size:0x10
?GetNetUser@LHConnection@@QAEPAVLHNetUser@@XZ = .text:0x10002020; // type:function size:0x10
?GetUserID@LHConnection@@QAE?AULH_USER_ID@@XZ = .text:0x10002030; // type:function size:0x20
?GetUserNameA@LHConnection@@QAEPAGXZ = .text:0x10002050; // type:function size:0x10
?GetMode@LHConnection@@QAE?AW4LH_OPERATING_MODE@@XZ = .text:0x10002060; // type:function size:0x10
?GetConnectedUserID@LHConnection@@QAE?AULH_USER_ID@@XZ = .text:0x10002070; // type:function size:0x10
?GetConnectedUserName@LHConnection@@QAEPAGXZ = .text:0x10002080; // type:function size:0x10
?GetRegisteredName@LHConnection@@QAEPADXZ = .text:0x10002090; // type:function size:0x10
?IsValid@LHConnection@@QAEHXZ = .text:0x100020A0; // type:function size:0x10
?IsConnected@LHConnection@@QAEHXZ = .text:0x100020B0; // type:function size:0x10
??0LHConnection@@QAE@ABV0@@Z = .text:0x100020C0; // type:function size:0x80
??4LHConnection@@QAEAAV0@ABV0@@Z = .text:0x10002140; // type:function size:0x80
fn_100021E0 = .text:0x100021E0; // type:function size:0x60
??0LHChannel@@QAE@XZ = .text:0x10002240; // type:function size:0x50
??0LHChannel@@QAE@PAD@Z = .text:0x10002290; // type:function size:0x60
?SetName@LHChannel@@QAEXPBD@Z = .text:0x100022F0; // type:function size:0x20
?SetPassword@LHChannel@@QAEXPBD@Z = .text:0x10002310; // type:function size:0x20
?GetName@LHChannel@@QAEPADXZ = .text:0x10002330; // type:function size:0x10
?GetPlayerList@LHChannel@@QAEPAV?$LHLinkedList@PAVLHPlayer@@@@XZ = .text:0x10002340; // type:function size:0x10
?GetNextPlayer@LHChannel@@QAEPAVLHPlayer@@PAV2@@Z = .text:0x10002350; // type:function size:0x40
?GetSize@LHChannel@@QAEKXZ = .text:0x10002390; // type:function size:0x10
?GetGameData@LHChannel@@QAEPAXXZ = .text:0x100023A0; // type:function size:0x10
?GetGameDataLength@LHChannel@@QAEKXZ = .text:0x100023B0; // type:function size:0x10
??0LHChannel@@QAE@ABV0@@Z = .text:0x100023C0; // type:function size:0x50
??4LHChannel@@QAEAAV0@ABV0@@Z = .text:0x10002410; // type:function size:0x60
fn_10002490 = .text:0x10002490; // type:function size:0x60
??0LHMPPacketSave@@QAE@XZ = .text:0x100024F0; // type:function size:0x30
?UnReadEvent@LHMPPacketSave@@QAEXXZ = .text:0x10002520; // type:function size:0x10
?IsOpen@LHMPPacketSave@@QAEHXZ = .text:0x10002530; // type:function size:0x10
??4LHMPPacketSave@@QAEAAV0@ABV0@@Z = .text:0x10002540; // type:function size:0x20
??1LHMPPacketSave@@QAE@XZ = .text:0x10002560; // type:function size:0x10
??0LHLocalLobbyInfo@@QAE@XZ = .text:0x10002570; // type:function size:0xA0
??0LHLocalLobbyInfo@@QAE@PADPAVLHTransportInfo@@1PAV?$LHLinkedList@PAVLHPlayer@@@@W4CATEGORY@LH_USER_ID@@H@Z = .text:0x10002610; // type:function size:0xC0
??0LHLocalLobbyInfo@@QAE@ABV0@@Z = .text:0x100026D0; // type:function size:0x110
??4LHLocalLobbyInfo@@QAEAAV0@ABV0@@Z = .text:0x100027E0; // type:function size:0x120
fn_10002900 = .text:0x10002900; // type:function size:0x30
?GetUserID@LHLobbyChannel@@AAE?AULH_USER_ID@@XZ = .text:0x10002930; // type:function size:0x20
??0LHLobbyChannel@@QAE@XZ = .text:0x10002950; // type:function size:0x80
??0LHLobbyChannel@@QAE@PADPAVLHLobby@@@Z = .text:0x100029D0; // type:function size:0xA0
?FindChannel@LHLobbyChannel@@SAPAV1@PADPAV?$LHLinkedList@PAVLHLobbyChannel@@@@@Z = .text:0x10002A70; // type:function size:0x20
?GetSession@LHLobbyChannel@@QAEPAVLHSession@@XZ = .text:0x10002A90; // type:function size:0x10
?GetPacketSource@LHLobbyChannel@@QAE?AW4LH_PACKET_SOURCE@@XZ = .text:0x10002AA0; // type:function size:0x10
?SetPacketSource@LHLobbyChannel@@QAEXW4LH_PACKET_SOURCE@@@Z = .text:0x10002AB0; // type:function size:0x10
?GetLobby@LHLobbyChannel@@QAEPAVLHLobby@@XZ = .text:0x10002AC0; // type:function size:0x10
??0LHLobbyChannel@@QAE@ABV0@@Z = .text:0x10002AD0; // type:function size:0xB0
??4LHLobbyChannel@@QAEAAV0@ABV0@@Z = .text:0x10002B80; // type:function size:0xB0
fn_10002C50 = .text:0x10002C50; // type:function size:0x60
?FindOrCreateChannel@LHLobby@@AAEPAVLHLobbyChannel@@PADPAV1@@Z = .text:0x10002CB0; // type:function size:0x20
?FindDefaultChannel@LHLobby@@QAEPAVLHLobbyChannel@@XZ = .text:0x10002CD0; // type:function size:0x20
?FindChannel@LHLobby@@QAEPAVLHLobbyChannel@@PAD@Z = .text:0x10002CF0; // type:function size:0x20
?FindLocalLobby@LHLobby@@SAPAVLHLocalLobbyInfo@@PAVLHTransportInfo@@@Z = .text:0x10002D10; // type:function size:0x20
?FindLocalLobbyFromIP@LHLobby@@SAPAVLHLocalLobbyInfo@@PAD@Z = .text:0x10002D30; // type:function size:0x20
?GetMSAcceptorInfo@LHLobby@@QAEPAVLHTransportInfo@@XZ = .text:0x10002D50; // type:function size:0x10
?GetConnectedLobbyName@LHLobby@@QAEPADXZ = .text:0x10002D60; // type:function size:0x10
?GetChannel@LHLobby@@QAEPAVLHLobbyChannel@@PAVLHNetEvent@@@Z = .text:0x10002D70; // type:function size:0x20
?GetLastJoinChannelInfo@LHLobby@@QAEXPAPAGPAW4LH_PLAYER_EVENT@@@Z = .text:0x10002D90; // type:function size:0x20
?GetLastJoinUserID@LHLobby@@QAE?AULH_USER_ID@@XZ = .text:0x10002DB0; // type:function size:0x10
?IsInternalLobbyConnection@LHLobby@@QAEHXZ = .text:0x10002DC0; // type:function size:0x10
?IsGlobalLobbyConnection@LHLobby@@QAEHXZ = .text:0x10002DD0; // type:function size:0x20
?GetNumberOfChannels@LHLobby@@QAEKXZ = .text:0x10002DF0; // type:function size:0x10
?GetInternalLobbyServerConnection@LHLobby@@SAPAV1@XZ = .text:0x10002E00; // type:function size:0x10
??0LHLobby@@QAE@ABV0@@Z = .text:0x10002E10; // type:function size:0x100
??4LHLobby@@QAEAAV0@ABV0@@Z = .text:0x10002F10; // type:function size:0x100
fn_10003030 = .text:0x10003030; // type:function size:0x60
??0LHSession@@QAE@XZ = .text:0x10003090; // type:function size:0xA0
lbl_10003130 = .text:0x10003130; // type:label
lbl_10003140 = .text:0x10003140; // type:label
?GetGameTickInterval@LHSession@@QAEKXZ = .text:0x10003150; // type:function size:0x10
?Write@LHSession@@QAE?AW4LH_RETURN@@PAVLHNetEvent@@@Z = .text:0x10003160; // type:function size:0x10
?GetSuperPacketGameTurn@LHSession@@QAEJXZ = .text:0x10003170; // type:function size:0x10
?GetPlayerList@LHSession@@QAEPAV?$LHLinkedList@PAVLHPlayer@@@@XZ = .text:0x10003180; // type:function size:0x10
?GetNumberOfPlayers@LHSession@@QAEKXZ = .text:0x10003190; // type:function size:0x10
?GetNextPlayer@LHSession@@QAEPAVLHPlayer@@PAV2@@Z = .text:0x100031A0; // type:function size:0x40
?GetChecksumErrorData@LHSession@@QAEPAXXZ = .text:0x100031E0; // type:function size:0x10
?GetChecksumErrorLength@LHSession@@QAEKXZ = .text:0x100031F0; // type:function size:0x10
?GetChecksumFromFileFlag@LHSession@@QAEKXZ = .text:0x10003200; // type:function size:0x10
?GetChecksumErrorPlayer@LHSession@@QAEPAVLHPlayer@@XZ = .text:0x10003210; // type:function size:0x10
?GetLobbyChannel@LHSession@@QAEPAVLHLobbyChannel@@XZ = .text:0x10003220; // type:function size:0x10
?IsThisMe@LHSession@@QAEHPAVLHPlayer@@@Z = .text:0x10003230; // type:function size:0x20
?CheckForSuperPackets@LHSession@@QAEHXZ = .text:0x10003250; // type:function size:0x10
?GetGameData@LHSession@@QAEPAXXZ = .text:0x10003260; // type:function size:0x10
?GetGameDataLength@LHSession@@QAEKXZ = .text:0x10003270; // type:function size:0x10
?MGJInProgress@LHSession@@QAEHXZ = .text:0x10003280; // type:function size:0x10
?ClearMGJInProgress@LHSession@@QAEXXZ = .text:0x10003290; // type:function size:0x10
?GetServerClock@LHSession@@QAEPAVLHTimer@@XZ = .text:0x100032A0; // type:function size:0x20
?Destroy@LHSession@@SAXPAV1@@Z = .text:0x100032C0; // type:function size:0x10
?IsHost@LHSession@@QAE_NXZ = .text:0x100032D0; // type:function size:0x10
??0LHSession@@QAE@ABV0@@Z = .text:0x100032E0; // type:function size:0x200
??4LHSession@@QAEAAV0@ABV0@@Z = .text:0x100034E0; // type:function size:0x230
fn_10003730 = .text:0x10003730; // type:function size:0x60
??0LHTransport@@IAE@XZ = .text:0x10003790; // type:function size:0x20
?IsOpen@LHTransport@@QAEHXZ = .text:0x100037B0; // type:function size:0x10
?GetType@LHTransport@@QAE?AW4LH_TRANSPORT_TYPE@@XZ = .text:0x100037C0; // type:function size:0x10
?GetLastEventRead@LHTransport@@QAEPAVLHNetEvent@@XZ = .text:0x100037D0; // type:function size:0x10
?GetOutgoingEventQ@LHTransport@@QAEPAV?$LHDynamicQueue@PAVLHNetEvent@@@@XZ = .text:0x100037E0; // type:function size:0x10
?GetIncomingEventQ@LHTransport@@QAEPAV?$LHDynamicQueue@PAVLHNetEvent@@@@XZ = .text:0x100037F0; // type:function size:0x10
??0LHTransport@@QAE@ABV0@@Z = .text:0x10003800; // type:function size:0x50
??4LHTransport@@QAEAAV0@ABV0@@Z = .text:0x10003850; // type:function size:0x40
fn_100038B0 = .text:0x100038B0; // type:function size:0x60
?SetHookFunction@LHSyncTransport@@QAEXP6AXPAX@Z0@Z = .text:0x10003910; // type:function size:0x20
??0LHSyncTransport@@QAE@ABV0@@Z = .text:0x10003930; // type:function size:0x60
??4LHSyncTransport@@QAEAAV0@ABV0@@Z = .text:0x10003990; // type:function size:0x50
??1LHSyncTransport@@UAE@XZ = .text:0x100039E0; // type:function size:0x10
fn_10003A10 = .text:0x10003A10; // type:function size:0x60
?LockIncomingQ@LHAsyncTransport@@IAEXXZ = .text:0x10003A70; // type:function size:0x10
?UnLockIncomingQ@LHAsyncTransport@@IAEXXZ = .text:0x10003A80; // type:function size:0x10
?LockOutgoingQ@LHAsyncTransport@@IAEXXZ = .text:0x10003A90; // type:function size:0x10
?UnLockOutgoingQ@LHAsyncTransport@@IAEXXZ = .text:0x10003AA0; // type:function size:0x10
?GetSignalDataToRead@LHAsyncTransport@@UAEPAXXZ = .text:0x10003AB0; // type:function size:0x10
??0LHAsyncTransport@@QAE@ABV0@@Z = .text:0x10003AC0; // type:function size:0x80
??4LHAsyncTransport@@QAEAAV0@ABV0@@Z = .text:0x10003B40; // type:function size:0x70
fn_10003BD0 = .text:0x10003BD0; // type:function size:0x60
??0LHTransportRemote@@QAE@ABV0@@Z = .text:0x10003C30; // type:function size:0x90
??4LHTransportRemote@@QAEAAV0@ABV0@@Z = .text:0x10003CC0; // type:function size:0x80
fn_10003D60 = .text:0x10003D60; // type:function size:0x60
??0LHTransportTCP@@QAE@ABV0@@Z = .text:0x10003DC0; // type:function size:0xA0
??4LHTransportTCP@@QAEAAV0@ABV0@@Z = .text:0x10003E60; // type:function size:0x90
fn_10003F10 = .text:0x10003F10; // type:function size:0x60
??0LHTransportUDP@@QAE@ABV0@@Z = .text:0x10003F70; // type:function size:0xA0
??4LHTransportUDP@@QAEAAV0@ABV0@@Z = .text:0x10004010; // type:function size:0x90
fn_100040C0 = .text:0x100040C0; // type:function size:0x60
?FindChannel@LHChannel@@SAPAV1@PADPAV?$LHLinkedList@PAVLHChannel@@@@@Z = .text:0x10004120; // type:function size:0x60
?ClearAllData@LHChannel@@IAEXXZ = .text:0x10004180; // type:function size:0x90
?GetPlayer@LHChannel@@QAEPAVLHPlayer@@ULH_USER_ID@@@Z = .text:0x10004210; // type:function size:0x30
?AddPlayer@LHChannel@@QAE?AW4LH_RETURN@@PAVLHPlayer@@PAD@Z = .text:0x10004240; // type:function size:0xA0
?RemovePlayer@LHChannel@@QAE?AW4LH_RETURN@@PAVLHPlayer@@@Z = .text:0x100042E0; // type:function size:0x70
??1LHChannel@@UAE@XZ = .text:0x10004350; // type:function size:0xA0
?SetGameData@LHChannel@@QAE?AW4LH_RETURN@@KPAX@Z = .text:0x100043F0; // type:function size:0x60
?GetFirstUserID@LHChannel@@QAE?AULH_USER_ID@@XZ = .text:0x10004450; // type:function size:0x40
?GetEncodedLength@LHChannel@@UAEKKPAX@Z = .text:0x10004490; // type:function size:0x60
?EncodeToBuffer@LHChannel@@UAEPAEPAEKPAX@Z = .text:0x100044F0; // type:function size:0x90
?DecodeFromBuffer@LHChannel@@UAEPAEPAE@Z = .text:0x10004580; // type:function size:0x60
?ClearObject@LHChannel@@UAEXXZ = .text:0x100045E0; // type:function size:0x10
fn_10004610 = .text:0x10004610; // type:function size:0x40
fn_10004650 = .text:0x10004650; // type:function size:0x20
?ClearAllData@LHConnection@@IAEXXZ = .text:0x10004670; // type:function size:0x50
?SetNetUser@LHConnection@@QAEXPAVLHNetUser@@@Z = .text:0x100046C0; // type:function size:0x20
?GetTransportType@LHConnection@@QAE?AW4LH_TRANSPORT_TYPE@@XZ = .text:0x100046E0; // type:function size:0x20
?AddToIncomingEventQ@LHConnection@@QAEXPAVLHNetEvent@@@Z = .text:0x10004700; // type:function size:0x20
?AddToFrontOfIncomingEventQ@LHConnection@@QAEXPAVLHNetEvent@@@Z = .text:0x10004720; // type:function size:0x20
?AddAtPositionInIncomingEventQ@LHConnection@@QAEXPAVLHNetEvent@@K@Z = .text:0x10004740; // type:function size:0x20
?GetIncomingEventQSize@LHConnection@@QAEKXZ = .text:0x10004760; // type:function size:0x20
?Flushed@LHConnection@@QAE_NXZ = .text:0x10004780; // type:function size:0x20
?GetSignalDataToRead@LHConnection@@QAEPAXXZ = .text:0x100047A0; // type:function
?Read@LHConnection@@UAEPAVLHNetEvent@@KW4LH_NETEVENT_TYPE@@@Z = .text:0x100047B0; // type:function
?RawRead@LHConnection@@QAEPAVLHNetEvent@@KW4LH_NETEVENT_TYPE@@@Z = .text:0x100047F0; // type:function size:0x50
?RawPeek@LHConnection@@QAEPAVLHNetEvent@@KW4LH_NETEVENT_TYPE@@@Z = .text:0x10004840; // type:function size:0x30
?Peek@LHConnection@@QAEPAVLHNetEvent@@K@Z = .text:0x10004870; // type:function size:0x20
?Disconnect@LHConnection@@QAEXXZ = .text:0x10004890; // type:function size:0x20
?BaseProcessEvent@LHConnection@@AAE?AW4LH_RETURN@@PAVLHNetEvent@@@Z = .text:0x100048B0; // type:function size:0x90
?SetConnectedUserName@LHConnection@@AAE?AW4LH_RETURN@@PAG@Z = .text:0x10004940; // type:function size:0x20
?ProcessClientJoin@LHConnection@@AAE?AW4LH_RETURN@@PAVLHNetEvent@@@Z = .text:0x10004960; // type:function size:0xC0
?DetermineConnectionProtocol@LHConnection@@SA?AW4LH_RETURN@@PAV1@KPAKK@Z = .text:0x10004A20; // type:function size:0x40
?WriteLastError@LHConnection@@AAEXW4LH_NETEVENT_TYPE@@@Z = .text:0x10004A60; // type:function size:0x50
?FeedbackLastErrorAndClose@LHConnection@@AAEXXZ = .text:0x10004AB0; // type:function size:0x50
?ProcessServerRequestChallenge@LHConnection@@AAE?AW4LH_RETURN@@PAVLHNetEvent@@@Z = .text:0x10004B00; // type:function size:0x90
?ProcessClientChallengeResponse@LHConnection@@AAE?AW4LH_RETURN@@PAVLHNetEvent@@@Z = .text:0x10004B90; // type:function size:0xC0
?ProcessServerConnectionValidated@LHConnection@@AAE?AW4LH_RETURN@@PAVLHNetEvent@@@Z = .text:0x10004C50; // type:function size:0x50
?ProcessServerConnectionRefused@LHConnection@@AAE?AW4LH_RETURN@@PAVLHNetEvent@@@Z = .text:0x10004CA0; // type:function size:0x40
?ProcessServerGreeting@LHConnection@@AAE?AW4LH_RETURN@@PAVLHNetEvent@@@Z = .text:0x10004CE0; // type:function size:0x40
?WaitForConnectionValidation@LHConnection@@AAE?AW4LH_RETURN@@XZ = .text:0x10004D20; // type:function size:0x50
?Write@LHConnection@@QAE?AW4LH_RETURN@@PAVLHNetEvent@@@Z = .text:0x10004D70; // type:function size:0x90
?Write@LHConnection@@QAE?AW4LH_RETURN@@PAVLHNetEvent@@PAVLHTransportInfo@@@Z = .text:0x10004E00; // type:function size:0x50
?OpenClientConnection@LHConnection@@QAE?AW4LH_RETURN@@PAVLHNetUser@@PAVLHTransportInfo@@@Z = .text:0x10004E50; // type:function size:0x30
?SendClientProtocol@LHConnection@@AAE?AW4LH_RETURN@@XZ = .text:0x10004E80; // type:function size:0x60
?RawOpen@LHConnection@@QAE?AW4LH_RETURN@@PAVLHNetUser@@PAVLHTransportInfo@@@Z = .text:0x10004EE0; // type:function size:0xA0
?ConnectionOriented@LHConnection@@QAEHXZ = .text:0x10004F80; // type:function size:0x20
?OpenServerConnectionToExternalTransport@LHConnection@@QAE?AW4LH_RETURN@@PAVLHNetUser@@PAVLHTransport@@@Z = .text:0x10004FA0; // type:function size:0x60
?OpenServerConnectionToOtherConnection@LHConnection@@QAE?AW4LH_RETURN@@PAVLHNetUser@@PAV1@P6AXPAX@Z2@Z = .text:0x10005000; // type:function size:0x190
?SetEventFunction@LHConnection@@QAEXP6A?AW4LH_RETURN@@PAVLHNetEvent@@PAV1@PAX@Z2@Z = .text:0x10005190; // type:function size:0x20
?ClearTransport@LHConnection@@AAEXXZ = .text:0x100051B0; // type:function size:0x30
?Flush@LHConnection@@QAE?AW4LH_RETURN@@K@Z = .text:0x100051E0; // type:function size:0x50
?Close@LHConnection@@UAEXXZ = .text:0x10005230; // type:function size:0x20
??1LHConnection@@UAE@XZ = .text:0x10005250; // type:function size:0x20
?IsDisconnected@LHConnection@@QAEHXZ = .text:0x10005270; // type:function size:0x20
?IsInternal@LHConnection@@QAEHXZ = .text:0x10005290; // type:function
?CheckForEvents@LHConnection@@QAEHXZ = .text:0x100052D0; // type:function size:0x20
?CheckForEvent@LHConnection@@QAEHW4LH_NETEVENT_TYPE@@@Z = .text:0x100052F0; // type:function
?GetLastEventRead@LHConnection@@IAEPAVLHNetEvent@@XZ = .text:0x10005310; // type:function size:0x10
?SetLastEventReadToBeIgnored@LHConnection@@IAEXXZ = .text:0x10005320; // type:function size:0x10
?GetProtocolVersion@LHConnection@@AAEKXZ = .text:0x10005330; // type:function size:0x30
?BlockingMultipleRead@LHConnection@@SAPAVLHNetEvent@@PAPAV1@ZZ = .text:0x10005360; // type:function size:0x40
?BlockingMultipleRead@LHConnection@@SAPAVLHNetEvent@@PAKPAPAV1@K@Z = .text:0x100053A0; // type:function size:0xF0
?GetTransportInfo@LHConnection@@QAE?AW4LH_RETURN@@PAVLHTransportInfo@@H@Z = .text:0x10005490; // type:function size:0x20
fn_100054B0 = .text:0x100054B0; // type:function size:0x10
fn_100054C0 = .text:0x100054C0; // type:function size:0x20
lbl_100054F0 = .text:0x100054F0; // type:label
??1LHVersion@@QAE@XZ = .text:0x100054F5; // type:function size:0x6
lbl_10005500 = .text:0x10005500; // type:label
fn_10005570 = .text:0x10005570; // type:function size:0x50
fn_100055C0 = .text:0x100055C0; // type:function size:0x30
fn_100055F0 = .text:0x100055F0; // type:function size:0x60
fn_10005650 = .text:0x10005650; // type:function size:0x70
fn_100056C0 = .text:0x100056C0; // type:function size:0x20
fn_100056E0 = .text:0x100056E0; // type:function size:0x30
fn_10005970 = .text:0x10005970; // type:function size:0x2E0
lbl_10005C50 = .text:0x10005C50; // type:label
lbl_10005C70 = .text:0x10005C70; // type:label
fn_10005C90 = .text:0x10005C90; // type:function size:0x50
fn_10005CE0 = .text:0x10005CE0; // type:function size:0x40
fn_10005D20 = .text:0x10005D20; // type:function size:0x50
fn_10005D70 = .text:0x10005D70; // type:function size:0x20
fn_10005D90 = .text:0x10005D90; // type:function size:0x30
fn_10005DE0 = .text:0x10005DE0; // type:function size:0x70
fn_10005E50 = .text:0x10005E50; // type:function size:0x20
fn_10005E70 = .text:0x10005E70; // type:function size:0x160
fn_10005FD0 = .text:0x10005FD0; // type:function size:0x90
fn_10006060 = .text:0x10006060; // type:function size:0x90
fn_100060F0 = .text:0x100060F0; // type:function size:0x150
lbl_10006290 = .text:0x10006290; // type:label
lbl_100062A0 = .text:0x100062A0; // type:label
fn_10006990 = .text:0x10006990; // type:function size:0x160
fn_10006AF0 = .text:0x10006AF0; // type:function size:0x40
fn_10006B80 = .text:0x10006B80; // type:function size:0x50
fn_10006BD0 = .text:0x10006BD0; // type:function size:0x30
fn_10006C00 = .text:0x10006C00; // type:function size:0x50
fn_10006C50 = .text:0x10006C50; // type:function size:0x60
fn_10006F20 = .text:0x10006F20; // type:function size:0x20
fn_10006F40 = .text:0x10006F40; // type:function size:0x10
fn_10006F50 = .text:0x10006F50; // type:function size:0x90
fn_10006FE0 = .text:0x10006FE0; // type:function size:0x120
fn_10007100 = .text:0x10007100; // type:function size:0x30
fn_10007140 = .text:0x10007140; // type:function size:0x20
??0DBInfo@@QAE@XZ = .text:0x10007160; // type:function size:0x40
??1DBInfo@@QAE@XZ = .text:0x100071A0; // type:function size:0x70
??4DBInfo@@QAEAAU0@ABU0@@Z = .text:0x10007210; // type:function size:0x20
fn_10007230 = .text:0x10007230; // type:function size:0x30
fn_10007260 = .text:0x10007260; // type:function size:0x90
fn_100072F0 = .text:0x100072F0; // type:function size:0xA0
fn_10007390 = .text:0x10007390; // type:function size:0xF0
?Reset@DBInfo@@QAEXXZ = .text:0x10007480; // type:function size:0x80
fn_10007500 = .text:0x10007500; // type:function size:0x30
fn_10007530 = .text:0x10007530; // type:function size:0x30
fn_10007560 = .text:0x10007560; // type:function size:0x30
fn_10007590 = .text:0x10007590; // type:function size:0x20
fn_100075B0 = .text:0x100075B0; // type:function size:0x90
?LHWebEncode@@YA?AW4LH_RETURN@@PADKPAPADPAK@Z = .text:0x10007640; // type:function size:0x60
?LHWebDecode@@YA?AW4LH_RETURN@@PADKPAPADPAK@Z = .text:0x100076A0; // type:function size:0x70
?LHWebEncodingFreePtr@@YAXPAD@Z = .text:0x10007710; // type:function size:0x10
?db_get_status_async@@YA?AW4DBSTATUS@@PAUDBInfo@@@Z = .text:0x10007720; // type:function size:0x115
lbl_10007750 = .text:0x10007750; // type:label
lbl_10007827 = .text:0x10007827; // type:label
lbl_10007835 = .text:0x10007835; // type:label
lbl_10007854 = .text:0x10007854; // type:label
lbl_1000787C = .text:0x1000787C; // type:label
lbl_10007894 = .text:0x10007894; // type:label
lbl_10007915 = .text:0x10007915; // type:label
lbl_10007930 = .text:0x10007930; // type:label
lbl_10007949 = .text:0x10007949; // type:label
lbl_100079A8 = .text:0x100079A8; // type:label
lbl_100079C4 = .text:0x100079C4; // type:label
lbl_100079D4 = .text:0x100079D4; // type:label
?db_get_result@@YA?AW4LH_RETURN@@PAUDBInfo@@PAK1PAPAPAD@Z = .text:0x10007A40; // type:function size:0x60
?db_execute_transaction_async@@YA?AW4DBSTATUS@@PAUDBInfo@@PADPAVLHNetUser@@PAVLHTransportInfo@@@Z = .text:0x10007AA0; // type:function size:0x4D0
?db_parse_sql_returnbuffer@@YA?AW4LH_RETURN@@PADPAPAPADPAK2@Z = .text:0x10007F70; // type:function size:0x1D0
?db_free_data@@YAXPAPAD@Z = .text:0x10008140; // type:function size:0x30
?db_execute_transaction@@YA?AW4LH_RETURN@@PADPAK1PAPAPADPAVLHTransportInfo@@@Z = .text:0x10008170; // type:function size:0x2A0
?IsReceivingHeader@LHFileDownload@@QAEHXZ = .text:0x10008410; // type:function size:0x10
?IsSendingRequest@LHFileDownload@@QAEHXZ = .text:0x10008420; // type:function size:0x10
?IsDownloading@LHFileDownload@@QAEHXZ = .text:0x10008430; // type:function size:0x10
?IsIdle@LHFileDownload@@QAEHXZ = .text:0x10008440; // type:function size:0x10
?IsWaiting@LHFileDownload@@QAEHXZ = .text:0x10008450; // type:function size:0x10
?GetTransferSpeed@LHFileDownload@@QAEMXZ = .text:0x10008460; // type:function size:0x10
?GetFilename@LHFileDownload@@QAEPADXZ = .text:0x10008470; // type:function size:0x10
??4LHFileDownload@@QAEAAV0@ABV0@@Z = .text:0x10008480; // type:function size:0x20
??0LHFileDownload@@QAE@XZ = .text:0x100084A0; // type:function size:0x50
??1LHFileDownload@@QAE@XZ = .text:0x100084F0; // type:function size:0x80
?DownloadFile@LHFileDownload@@QAE?AW4LH_FILE_DOWNLOAD_RETURNS@@PADG000H@Z = .text:0x10008570; // type:function size:0x180
?GetPercentageDownloaded@LHFileDownload@@QAEMXZ = .text:0x100086F0; // type:function size:0x60
?Refresh@LHFileDownload@@QAE?AW4LH_FILE_DOWNLOAD_RETURNS@@XZ = .text:0x10008750; // type:function size:0x700
?StopDownload@LHFileDownload@@QAEXXZ = .text:0x10008E50; // type:function size:0x140
fn_10008F90 = .text:0x10008F90; // type:function size:0x20
??0LHSocket@@QAE@ABV0@@Z = .text:0x10008FB0; // type:function size:0x60
??4LHSocket@@QAEAAV0@ABV0@@Z = .text:0x10009010; // type:function size:0x50
?GetSignal@LHSocketTCP@@QAEPAXXZ = .text:0x10009060; // type:function size:0x10
?IsDisconnected@LHSocketTCP@@QAE_NXZ = .text:0x10009070; // type:function size:0x10
?IsConnected@LHSocketTCP@@QAE_NXZ = .text:0x10009080; // type:function size:0x10
??0LHSocketTCP@@QAE@ABV0@@Z = .text:0x10009090; // type:function size:0x110
??4LHSocketTCP@@QAEAAV0@ABV0@@Z = .text:0x100091A0; // type:function size:0x120
??0LHHttp@@QAE@XZ = .text:0x100092C0; // type:function size:0x30
??1LHHttp@@QAE@XZ = .text:0x100092F0; // type:function size:0x50
?Open@LHHttp@@QAE?AW4LH_RETURN@@PADG@Z = .text:0x10009340; // type:function size:0x140
?Close@LHHttp@@QAE?AW4LH_RETURN@@XZ = .text:0x10009480; // type:function size:0x40
?SendRequest@LHHttp@@QAE?AW4LH_RETURN@@W4HTTP_REQUEST_TYPE@@PAD@Z = .text:0x100094C0; // type:function size:0x1C0
?SendHeader@LHHttp@@QAE?AW4LH_RETURN@@PAD@Z = .text:0x10009680; // type:function size:0xC0
?SendHeaderInternal@LHHttp@@AAE?AW4LH_RETURN@@PAD@Z = .text:0x10009740; // type:function size:0x70
?SendInternalEndOfRequest@LHHttp@@AAE?AW4LH_RETURN@@H@Z = .text:0x100097B0; // type:function size:0x90
?SendEndOfRequest@LHHttp@@QAE?AW4LH_RETURN@@XZ = .text:0x10009840; // type:function size:0x70
?SendRawData@LHHttp@@QAE?AW4LH_RETURN@@PADKPAK_N@Z = .text:0x100098B0; // type:function size:0xE0
?GetDocumentType@LHHttp@@QAE?AW4LH_RETURN@@PAD@Z = .text:0x10009990; // type:function size:0x30
?GetDocumentSize@LHHttp@@QAE?AW4LH_RETURN@@PAK@Z = .text:0x100099C0; // type:function size:0xE0
?GetDocument@LHHttp@@QAE?AW4LH_RETURN@@PADPAK@Z = .text:0x10009AA0; // type:function size:0x160
?GetServerResponseHeader@LHHttp@@QAE?AW4LH_RETURN@@PAG@Z = .text:0x10009C00; // type:function size:0x4A0
?UploadFile@LHHttp@@QAE?AW4LH_RETURN@@PAD0@Z = .text:0x1000A0A0; // type:function size:0x140
?GetUntilCRLF@LHHttp@@QAE?AW4LH_RETURN@@PADPAK@Z = .text:0x1000A1E0; // type:function size:0x110
?IsDataAvailable@LHHttp@@QAE?AW4LH_RETURN@@XZ = .text:0x1000A2F0; // type:function size:0x10
?CheckServerResponseHeader@LHHttp@@QAE?AW4LH_RETURN@@PAGPAW4HTTP_RECEIVED_STATUS@@@Z = .text:0x1000A300; // type:function size:0x280
?ParseURI@LHHttp@@AAE?AW4LH_RETURN@@PAD0PAG0@Z = .text:0x1000A580; // type:function size:0x160
?CleanData@LHHttp@@QAEXXZ = .text:0x1000A6E0; // type:function size:0xF0
?GetDocumentAsync@LHHttp@@QAE?AW4LH_RETURN@@PADPAK@Z = .text:0x1000A7D0; // type:function size:0x1B0
?Reset@LHHttpHeaderStatus@@QAEXXZ = .text:0x1000A980; // type:function size:0xA0
?ParseLocationData@LHHttpHeaderStatus@@QAEXXZ = .text:0x1000AA20; // type:function size:0x120
?GetLocationHost@LHHttpHeaderStatus@@QAEPADXZ = .text:0x1000AB40; // type:function size:0x10
?GetLocationURI@LHHttpHeaderStatus@@QAEPADXZ = .text:0x1000AB50; // type:function size:0x10
?GetLocationPort@LHHttpHeaderStatus@@QAEGXZ = .text:0x1000AB60; // type:function size:0x10
fn_1000AB70 = .text:0x1000AB70; // type:function size:0x30
?Reset@LHHttpHeaders@@QAEXXZ = .text:0x1000ABA0; // type:function size:0x70
?AddHeader@LHHttpHeaders@@QAEXPAD@Z = .text:0x1000AC10; // type:function size:0x50
?AddHeader@LHHttpHeaders@@QAEXPAD0@Z = .text:0x1000AC60; // type:function size:0x110
?GetHeader@LHHttpHeaders@@QAEPADPAD@Z = .text:0x1000AD70; // type:function size:0x70
?GetLinkedList@LHHttpHeaders@@QAEPAV?$LHLinkedList@PAD@@XZ = .text:0x1000ADE0; // type:function size:0x10
?GetHeaderString@LHHttpHeaders@@QAEPADXZ = .text:0x1000ADF0; // type:function size:0xF0
?DeleteHeaderString@LHHttpHeaders@@QAEXXZ = .text:0x1000AEE0; // type:function size:0x20
??0LHHttp2@@QAE@XZ = .text:0x1000AF00; // type:function size:0x130
??1LHHttp2@@QAE@XZ = .text:0x1000B030; // type:function size:0xA0
?Reset@LHHttp2@@QAEXXZ = .text:0x1000B0D0; // type:function size:0x140
?Open@LHHttp2@@QAE?AW4LH_RETURN@@PADG@Z = .text:0x1000B210; // type:function size:0x190
?Close@LHHttp2@@QAE?AW4LH_RETURN@@XZ = .text:0x1000B3A0; // type:function size:0x40
?PrepareRequest@LHHttp2@@QAE?AW4LH_HTTP_STATUS@@W4HTTP_REQUEST_TYPE@@PADPAVLHHttpHeaders@@1K@Z = .text:0x1000B3E0; // type:function size:0x350
?SendRawData@LHHttp2@@QAE?AW4LH_RETURN@@PADKPAK_N@Z = .text:0x1000B730; // type:function size:0xE0
?ResetRequest@LHHttp2@@QAEXXZ = .text:0x1000B810; // type:function size:0x40
?SendRequestAsync@LHHttp2@@QAE?AW4LH_HTTP_STATUS@@XZ = .text:0x1000B850; // type:function size:0x120
?IsDataAvailable@LHHttp2@@QAE?AW4LH_RETURN@@XZ = .text:0x1000B970; // type:function size:0x20
?ReceiveHeaderAsync@LHHttp2@@QAE?AW4LH_HTTP_STATUS@@XZ = .text:0x1000B990; // type:function size:0x2D0
?GetHeader@LHHttp2@@QAE?AW4LH_HTTP_STATUS@@AAULHHttpHeaderStatus@@@Z = .text:0x1000BC60; // type:function size:0x140
?GetUntilCRLF@LHHttp2@@QAE?AW4LH_HTTP_STATUS@@PADPAK@Z = .text:0x1000BDA0; // type:function size:0xB0
?ResetDocumentRecv@LHHttp2@@QAEXXZ = .text:0x1000BE50; // type:function size:0xB0
?ReceiveDocumentAsync@LHHttp2@@QAE?AW4LH_HTTP_STATUS@@XZ = .text:0x1000BF00; // type:function size:0x3F0
?GetDocumentSize@LHHttp2@@QAEKXZ = .text:0x1000C2F0; // type:function size:0x20
?GetDocument@LHHttp2@@QAE?AW4LH_HTTP_STATUS@@PAD@Z = .text:0x1000C310; // type:function size:0x60
?HelperGetDocument@LHHttp2@@QAE?AW4LH_HTTP_STATUS@@_N@Z = .text:0x1000C370; // type:function size:0x180
fn_1000C4F0 = .text:0x1000C4F0; // type:function size:0x40
fn_1000C540 = .text:0x1000C540; // type:function size:0x20
fn_1000C560 = .text:0x1000C560; // type:function size:0x20
fn_1000C580 = .text:0x1000C580; // type:function size:0x50
fn_1000C5D0 = .text:0x1000C5D0; // type:function size:0x10
fn_1000C5E0 = .text:0x1000C5E0; // type:function size:0x10
lbl_1000C600 = .text:0x1000C600; // type:label
fn_1000C620 = .text:0x1000C620; // type:function size:0x40
fn_1000C660 = .text:0x1000C660; // type:function size:0x10
fn_1000C670 = .text:0x1000C670; // type:function size:0x10
lbl_1000C690 = .text:0x1000C690; // type:label
?ClearAllData@LHLobby@@AAEXXZ = .text:0x1000C6B0; // type:function size:0x40
?InitLibrary@LHLobby@@SAXXZ = .text:0x1000C6F0; // type:function size:0x10
?CloseLibrary@LHLobby@@SAXXZ = .text:0x1000C700; // type:function size:0x10
?RequestOnlineStatus@LHLobby@@SAXKPAJPAVLHTransportInfo@@@Z = .text:0x1000C710; // type:function size:0x50
?Chat@LHLobby@@SAXULH_USER_ID@@PAVLHTransportInfo@@PAXK@Z = .text:0x1000C760; // type:function size:0x50
?Ping@LHLobby@@SAXPAVLHTransportInfo@@@Z = .text:0x1000C7B0; // type:function size:0x40
?BroadcastEvent@LHLobby@@SAXPAVLHNetEvent@@PAVLHTransportInfo@@@Z = .text:0x1000C7F0; // type:function size:0x60
??0LHLobby@@QAE@XZ = .text:0x1000C850; // type:function size:0x80
?GetGlobalLobby@LHLobby@@QAEPAV1@XZ = .text:0x1000C8D0; // type:function size:0x10
?ConnectToChannel@LHLobby@@QAE?AW4LH_RETURN@@PAD0W4LH_NET_CHANNEL_MODE@@@Z = .text:0x1000C8E0; // type:function size:0x70
?BootOtherUsersOffChannel@LHLobby@@QAE?AW4LH_RETURN@@PAD@Z = .text:0x1000C950; // type:function size:0x40
?OpenLANLobby@LHLobby@@QAE?AW4LH_RETURN@@PAVLHNetUser@@PAD@Z = .text:0x1000C990; // type:function size:0x40
?OpenRemoteLobby@LHLobby@@QAE?AW4LH_RETURN@@PAVLHNetUser@@PAVLHTransportInfo@@@Z = .text:0x1000C9D0; // type:function size:0x90
?GetUserFile@LHLobby@@SAPBDXZ = .text:0x1000CA60; // type:function size:0x10
?OpenLocalLobby@LHLobby@@QAE?AW4LH_RETURN@@PAULHMPServerStartInfo@@@Z = .text:0x1000CA70; // type:function size:0x250
?TakeServerOffLan@LHLobby@@SAXXZ = .text:0x1000CCC0; // type:function size:0x20
?StopLobbyServerListeningForConnections@LHLobby@@SAXXZ = .text:0x1000CCE0; // type:function size:0x20
?PutServerOnLan@LHLobby@@SAXXZ = .text:0x1000CD00; // type:function size:0x20
?SetRegisteredName@LHLobby@@SAPADPBD@Z = .text:0x1000CD20; // type:function size:0x80
?StartInternalLobbyServer@LHLobby@@AAE?AW4LH_RETURN@@PAULHMPServerStartInfo@@@Z = .text:0x1000CDA0; // type:function size:0x160
fn_1000CF00 = .text:0x1000CF00; // type:function size:0xA0
fn_1000CFA0 = .text:0x1000CFA0; // type:function size:0x10
fn_1000CFB0 = .text:0x1000CFB0; // type:function size:0x20
fn_1000CFD0 = .text:0x1000CFD0; // type:function size:0x50
?ProcessEvent@LHLobby@@EAE?AW4LH_RETURN@@PAVLHNetEvent@@@Z = .text:0x1000D020; // type:function size:0xFC
lbl_1000D0A2 = .text:0x1000D0A2; // type:label
lbl_1000D0AB = .text:0x1000D0AB; // type:label
lbl_1000D0D7 = .text:0x1000D0D7; // type:label
lbl_1000D0E0 = .text:0x1000D0E0; // type:label
lbl_1000D0E9 = .text:0x1000D0E9; // type:label
lbl_1000D116 = .text:0x1000D116; // type:label
lbl_1000D11C = .text:0x1000D11C; // type:label
lbl_1000D138 = .text:0x1000D138; // type:label
?WriteChatFile@LHLobby@@SAXPAD00@Z = .text:0x1000D150; // type:function size:0xC0
?ProcessLobbyGreeting@LHLobby@@AAE?AW4LH_RETURN@@PAVLHNetEvent@@@Z = .text:0x1000D210; // type:function size:0xD0
?ProcessLobbyEjectedFromChannel@LHLobby@@AAE?AW4LH_RETURN@@PAVLHNetEvent@@@Z = .text:0x1000D2E0; // type:function size:0xA0
?ProcessLobbyChannelListInfo@LHLobby@@AAE?AW4LH_RETURN@@PAVLHNetEvent@@@Z = .text:0x1000D380; // type:function size:0x30
?ProcessLobbyPlayerList@LHLobby@@AAE?AW4LH_RETURN@@PAVLHNetEvent@@@Z = .text:0x1000D3B0; // type:function size:0x170
?ProcessLobbyStartMServe@LHLobby@@AAE?AW4LH_RETURN@@PAVLHNetEvent@@@Z = .text:0x1000D520; // type:function size:0xC0
?StartInternalMessageServer@LHLobby@@AAE?AW4LH_RETURN@@PAVLHLobbyChannel@@KW4LH_OPERATING_MODE@@KQAY0DA@GQAULH_USER_ID@@@Z = .text:0x1000D5E0; // type:function size:0xE0
?StartInternalMessageServer@LHLobby@@SAPAVLHMessageServer@@PAVLHNetUser@@PADKKW4LH_OPERATING_MODE@@KQAY0DA@GQAULH_USER_ID@@@Z = .text:0x1000D6C0; // type:function size:0x250
fn_1000D910 = .text:0x1000D910; // type:function size:0x110
fn_1000DA20 = .text:0x1000DA20; // type:function size:0x20
fn_1000DA40 = .text:0x1000DA40; // type:function size:0x100
?ProcessLobbyUserFile@LHLobby@@AAE?AW4LH_RETURN@@PAVLHNetEvent@@@Z = .text:0x1000DB40; // type:function size:0x80
?SendStartMServeResult@LHLobby@@AAE?AW4LH_RETURN@@PADHPAVLHTransportInfo@@W4LH_OPERATING_MODE@@@Z = .text:0x1000DBC0; // type:function size:0x50
?ProcessLobbyConnectToMServe@LHLobby@@AAE?AW4LH_RETURN@@PAVLHNetEvent@@@Z = .text:0x1000DC10; // type:function size:0x340
lbl_1000DF50 = .text:0x1000DF50; // type:label
?ProcessConnectionClosed@LHLobby@@AAE?AW4LH_RETURN@@XZ = .text:0x1000DF60; // type:function size:0x20
?ProcessLobbyUserFilesTransferComplete@LHLobby@@AAE?AW4LH_RETURN@@PAVLHNetEvent@@@Z = .text:0x1000DF80; // type:function size:0x40
?CheckSessionReady@LHLobby@@QAE?AW4LH_RETURN@@PAVLHLobbyChannel@@@Z = .text:0x1000DFC0; // type:function size:0xB0
?ProcessInternalLobbyNewLocalLobbyList@LHLobby@@AAE?AW4LH_RETURN@@PAVLHNetEvent@@@Z = .text:0x1000E070; // type:function size:0x410
?ConnectToPlayer@LHLobby@@QAE?AW4LH_RETURN@@PAVLHPlayer@@PAVLHP2P@@@Z = .text:0x1000E480; // type:function size:0x10
??1LHLobby@@UAE@XZ = .text:0x1000E490; // type:function size:0x60
?Close@LHLobby@@UAEXXZ = .text:0x1000E4F0; // type:function size:0x110
?ClearInternalLobbyServer@LHLobby@@SAXXZ = .text:0x1000E600; // type:function size:0x100
?ClearAllData@LHLobbyChannel@@AAEXXZ = .text:0x1000E700; // type:function size:0x30
??1LHLobbyChannel@@UAE@XZ = .text:0x1000E730; // type:function size:0x50
?ClearInternalMessageServer@LHLobbyChannel@@QAEXXZ = .text:0x1000E780; // type:function size:0x80
?FindOrCreateChannel@LHLobbyChannel@@SAPAV1@PADPAVLHLobby@@PAV?$LHLinkedList@PAVLHLobbyChannel@@@@@Z = .text:0x1000E800; // type:function size:0xF0
?StartGame@LHLobbyChannel@@QAE?AW4LH_RETURN@@KKPAX@Z = .text:0x1000E8F0; // type:function size:0x40
?RequestMGJ@LHLobbyChannel@@QAEXH@Z = .text:0x1000E930; // type:function size:0x40
?MGJInProgress@LHLobbyChannel@@QAEHXZ = .text:0x1000E970; // type:function size:0x20
?SendMGJResponse@LHLobbyChannel@@QAE?AW4LH_RETURN@@HULH_USER_ID@@PAD@Z = .text:0x1000E990; // type:function size:0x50
?ChatOnChannel@LHLobbyChannel@@QAE?AW4LH_RETURN@@PAXKULH_USER_ID@@_N@Z = .text:0x1000E9E0; // type:function size:0x50
?LeaveChannel@LHLobby@@QAE?AW4LH_RETURN@@PAVLHLobbyChannel@@@Z = .text:0x1000EA30; // type:function size:0xA0
?GetBroadcastListenerInfo@LHLobby@@QAEPAVLHTransportInfo@@XZ = .text:0x1000EAD0; // type:function size:0x20
?GetConnectionAcceptorInfo@LHLobby@@QAEPAVLHTransportInfo@@XZ = .text:0x1000EAF0; // type:function size:0x20
?GetInternalLobbyName@LHLobby@@QAEPADXZ = .text:0x1000EB10; // type:function size:0x20
?GetNextLocalLobby@LHLobby@@SAPAVLHLocalLobbyInfo@@PAV2@@Z = .text:0x1000EB30; // type:function size:0x40
?FindLocalLobby@LHLobby@@SAPAVLHLocalLobbyInfo@@PAD@Z = .text:0x1000EB70; // type:function size:0x70
?GetChatOnChannelInfo@LHLobby@@QAE?AW4LH_RETURN@@PAVLHNetEvent@@PAPAVLHLobbyChannel@@PAPAVLHPlayer@@PAPAXPAH@Z = .text:0x1000EBE0; // type:function size:0xB0
?GetChatDataLength@LHLobby@@QAE?AW4LH_RETURN@@PAVLHNetEvent@@PAK@Z = .text:0x1000EC90; // type:function size:0x80
?GetLANPlayers@LHLobby@@SAPAV?$LHLinkedList@PAVLHPlayer@@@@PAVLHLocalLobbyInfo@@@Z = .text:0x1000ED10; // type:function size:0x20
?GetNumberOfPlayersOnDefaultChannel@LHLobby@@SAKPAVLHLocalLobbyInfo@@@Z = .text:0x1000ED30; // type:function size:0x20
?ShutdownInternalLobbyServer@LHLobby@@SAXXZ = .text:0x1000ED50; // type:function size:0x1A0
fn_1000EEF0 = .text:0x1000EEF0; // type:function size:0x20
?GetInternalLobbyType@LHLobby@@SA?AW4CATEGORY@LH_USER_ID@@XZ = .text:0x1000EF10; // type:function size:0x20
?SendUserFileToServer@LHLobby@@QAE?AW4LH_RETURN@@PAD@Z = .text:0x1000EF30; // type:function size:0x40
?FeedbackLastError@LHLobby@@QAEXPAD@Z = .text:0x1000EF70; // type:function size:0x40
?FindPlayerBroadcastInfo@LHLobby@@SAPAVLHTransportInfo@@ULH_USER_ID@@@Z = .text:0x1000EFB0; // type:function size:0x50
fn_1000F000 = .text:0x1000F000; // type:function size:0x10
fn_1000F040 = .text:0x1000F040; // type:function size:0x10
fn_1000F0B0 = .text:0x1000F0B0; // type:function size:0x20
fn_1000F0D0 = .text:0x1000F0D0; // type:function size:0x20
fn_1000F0F0 = .text:0x1000F0F0; // type:function size:0xF0
fn_1000F1E0 = .text:0x1000F1E0; // type:function size:0x100
fn_1000F2E0 = .text:0x1000F2E0; // type:function size:0xA0
fn_1000F380 = .text:0x1000F380; // type:function size:0x10
fn_1000F390 = .text:0x1000F390; // type:function size:0x20
fn_1000F3B0 = .text:0x1000F3B0; // type:function size:0x60
fn_1000F410 = .text:0x1000F410; // type:function size:0x50
fn_1000F4C0 = .text:0x1000F4C0; // type:function size:0x60
fn_1000F520 = .text:0x1000F520; // type:function size:0x50
fn_1000F570 = .text:0x1000F570; // type:function size:0x228
lbl_1000F5C7 = .text:0x1000F5C7; // type:label
lbl_1000F5D5 = .text:0x1000F5D5; // type:label
lbl_1000F5DE = .text:0x1000F5DE; // type:label
lbl_1000F5F4 = .text:0x1000F5F4; // type:label
lbl_1000F613 = .text:0x1000F613; // type:label
lbl_1000F724 = .text:0x1000F724; // type:label
lbl_1000F733 = .text:0x1000F733; // type:label
lbl_1000F742 = .text:0x1000F742; // type:label
lbl_1000F751 = .text:0x1000F751; // type:label
lbl_1000F760 = .text:0x1000F760; // type:label
lbl_1000F76F = .text:0x1000F76F; // type:label
lbl_1000F77D = .text:0x1000F77D; // type:label
lbl_1000F78C = .text:0x1000F78C; // type:label
lbl_1000F798 = .text:0x1000F798; // type:label
lbl_1000F7AC = .text:0x1000F7AC; // type:label
lbl_1000F7CC = .text:0x1000F7CC; // type:label
fn_1000F800 = .text:0x1000F800; // type:function size:0xE0
fn_1000F8E0 = .text:0x1000F8E0; // type:function size:0x50
fn_1000F930 = .text:0x1000F930; // type:function size:0x160
fn_1000FA90 = .text:0x1000FA90; // type:function size:0xD0
fn_1000FB60 = .text:0x1000FB60; // type:function size:0x70
fn_1000FE30 = .text:0x1000FE30; // type:function size:0x40
fn_1000FE70 = .text:0x1000FE70; // type:function size:0x60
fn_1000FF60 = .text:0x1000FF60; // type:function size:0x30
fn_10010060 = .text:0x10010060; // type:function size:0x260
fn_100102C0 = .text:0x100102C0; // type:function size:0xB0
fn_10010370 = .text:0x10010370; // type:function size:0x20
fn_10010390 = .text:0x10010390; // type:function size:0x200
fn_10010590 = .text:0x10010590; // type:function size:0xE0
fn_10010670 = .text:0x10010670; // type:function size:0x40
fn_100106B0 = .text:0x100106B0; // type:function size:0xB0
fn_10010760 = .text:0x10010760; // type:function size:0x50
fn_100107B0 = .text:0x100107B0; // type:function size:0x180
fn_10010B00 = .text:0x10010B00; // type:function size:0xA0
fn_10010BA0 = .text:0x10010BA0; // type:function size:0x160
fn_100110A0 = .text:0x100110A0; // type:function size:0x50
fn_100110F0 = .text:0x100110F0; // type:function size:0x50
fn_10011140 = .text:0x10011140; // type:function size:0xE0
fn_100112A0 = .text:0x100112A0; // type:function size:0x120
fn_100113C0 = .text:0x100113C0; // type:function size:0x10
fn_100113D0 = .text:0x100113D0; // type:function size:0x40
fn_10011410 = .text:0x10011410; // type:function size:0x50
fn_10011460 = .text:0x10011460; // type:function size:0x110
fn_10011570 = .text:0x10011570; // type:function size:0x20
fn_10011590 = .text:0x10011590; // type:function size:0x10
fn_100115A0 = .text:0x100115A0; // type:function size:0x20
fn_10011660 = .text:0x10011660; // type:function size:0x70
fn_100116D0 = .text:0x100116D0; // type:function size:0x60
fn_10011730 = .text:0x10011730; // type:function size:0xE0
fn_10011810 = .text:0x10011810; // type:function size:0xD0
lbl_100118E0 = .text:0x100118E0; // type:label
fn_10011990 = .text:0x10011990; // type:function size:0x20
fn_100119B0 = .text:0x100119B0; // type:function size:0x30
fn_100119E0 = .text:0x100119E0; // type:function size:0x20
fn_10011A00 = .text:0x10011A00; // type:function size:0x10
fn_10011A10 = .text:0x10011A10; // type:function size:0x10
fn_10011A20 = .text:0x10011A20; // type:function size:0x30
fn_10011A50 = .text:0x10011A50; // type:function size:0x10
fn_10011A60 = .text:0x10011A60; // type:function size:0x20
lbl_10011A90 = .text:0x10011A90; // type:label
fn_0x10011a95 = .text:0x10011A95; // type:function size:0x6
fn_10011AA0 = .text:0x10011AA0; // type:function
fn_10011AE0 = .text:0x10011AE0; // type:function size:0x20
??0LHPOP3Mail@@QAE@XZ = .text:0x10011B00; // type:function size:0x50
??4LHPOP3Mail@@QAEAAV0@ABV0@@Z = .text:0x10011B50; // type:function size:0x20
??0LHPOP3Line@@QAE@XZ = .text:0x10011B70; // type:function size:0x10
??1LHPOP3Line@@QAE@XZ = .text:0x10011B80; // type:function size:0x20
??4LHPOP3Line@@QAEAAV0@ABV0@@Z = .text:0x10011BA0; // type:function size:0x20
?GetNrOfNewMails@LHPOP3@@QAEKXZ = .text:0x10011BC0; // type:function size:0x10
?GetNrofAllMails@LHPOP3@@QAEKXZ = .text:0x10011BD0; // type:function size:0x10
??4LHPOP3@@QAEAAV0@ABV0@@Z = .text:0x10011BE0; // type:function size:0x20
?GetCurrentCheckStatus@LHMail@@QAE_NXZ = .text:0x10011C00; // type:function size:0x10
?GetMailCount@LHMail@@QAEKXZ = .text:0x10011C10; // type:function size:0x10
?SetSystemState@LHMail@@QAEX_N@Z = .text:0x10011C20; // type:function size:0x10
?GetContactList@LHMail@@QAEPAV?$LHLinkedList@PAULHMailContacts@@@@XZ = .text:0x10011C30; // type:function size:0x10
?SetCheckTime@LHMail@@QAEXK@Z = .text:0x10011C40; // type:function size:0x10
?GetCheckTime@LHMail@@QAEKXZ = .text:0x10011C50; // type:function size:0x10
??0LHMail@@QAE@ABV0@@Z = .text:0x10011C60; // type:function size:0x70
??4LHMail@@QAEAAV0@ABV0@@Z = .text:0x10011CD0; // type:function size:0x70
fn_10011D60 = .text:0x10011D60; // type:function size:0x60
??0LHMailOutlook@@QAE@ABV0@@Z = .text:0x10011DC0; // type:function size:0xC0
??4LHMailOutlook@@QAEAAV0@ABV0@@Z = .text:0x10011E80; // type:function size:0xC0
fn_10011F60 = .text:0x10011F60; // type:function size:0x60
??0LHMailPOP3@@QAE@ABV0@@Z = .text:0x10011FC0; // type:function size:0xC0
??4LHMailPOP3@@QAEAAV0@ABV0@@Z = .text:0x10012080; // type:function size:0xD0
fn_10012170 = .text:0x10012170; // type:function size:0x60
?InetLogging@@YAXPAD@Z = .text:0x100121D0; // type:function size:0x40
fn_10012210 = .text:0x10012210; // type:function size:0x70
?DecodeMemory@LHMail@@SAXPADPAPADPAK@Z = .text:0x10012280; // type:function size:0xC0
?EncodeMemory@LHMail@@SAXPADPAPADPAKD@Z = .text:0x10012340; // type:function size:0x190
??0LHMail@@QAE@PAD@Z = .text:0x100124D0; // type:function size:0x90
??1LHMail@@UAE@XZ = .text:0x10012560; // type:function size:0x50
?SetAddressBookFile@LHMail@@QAEXPAD_N@Z = .text:0x100125B0; // type:function size:0x70
?GetNextMail@LHMail@@QAEPAULHMailEmail@@XZ = .text:0x10012620; // type:function size:0x20
?DeleteMailFromQ@LHMail@@QAEXPAULHMailEmail@@@Z = .text:0x10012640; // type:function size:0x60
?LookUpNameInContactList@LHMail@@IAE_NPAD@Z = .text:0x100126A0; // type:function size:0x70
?LookUpNameInMailQueue@LHMail@@IAE_NPAD@Z = .text:0x10012710; // type:function size:0x70
?AddNameToContactList@LHMail@@QAE_NPAULHMailContacts@@@Z = .text:0x10012780; // type:function size:0x30
?AddNewMailToList@LHMail@@IAE_NPAULHMailEmail@@@Z = .text:0x100127B0; // type:function size:0x100
?CleanUp@LHMail@@QAEXXZ = .text:0x100128B0; // type:function size:0xB0
?SavePersonalAddressBook@LHMail@@IAE_NPAD@Z = .text:0x10012960; // type:function size:0x150
?LoadPersonalAddressBook@LHMail@@IAE_NPAD@Z = .text:0x10012AB0; // type:function size:0x1C0
?CheckMails@LHMail@@QAE?AW4LH_RETURN@@XZ = .text:0x10012C70; // type:function size:0x50
?GetContactNames@LHMail@@QAE_NPAK@Z = .text:0x10012CC0; // type:function size:0x50
?ReloadSystem@LHMail@@QAE_NPAD@Z = .text:0x10012D10; // type:function size:0x60
?DeleteEnDeCodePointer@LHMail@@SAXPAD@Z = .text:0x10012D70; // type:function size:0x10
?InitDriver@LHMail@@QAE_NXZ = .text:0x10012D80; // type:function size:0x20
?ReadRegistrySettings@LHMail@@QAEXXZ = .text:0x10012DA0; // type:function size:0x20
?CheckForOutlook@LHMailOutlook@@SA_NXZ = .text:0x10012DC0; // type:function size:0x180
?InitOutlook@LHMailOutlook@@QAE_NXZ = .text:0x10012F40; // type:function size:0xA0
?CleanUpOutlook@LHMailOutlook@@QAE_NXZ = .text:0x10012FE0; // type:function size:0x40
??0LHMailOutlook@@QAE@PAD@Z = .text:0x10013020; // type:function size:0x20
??1LHMailOutlook@@UAE@XZ = .text:0x10013040; // type:function size:0x50
?CallInitDriver@LHMailOutlook@@UAE_NXZ = .text:0x10013090; // type:function size:0x10
?CleanUpDriver@LHMailOutlook@@UAE_NXZ = .text:0x100130A0; // type:function size:0x10
?DriverCheckMails@LHMailOutlook@@UAE?AW4LH_RETURN@@XZ = .text:0x100130B0; // type:function size:0x140
?DriverGetContactNames@LHMailOutlook@@UAE_NPAK@Z = .text:0x100131F0; // type:function size:0xA0
?ReloadDriver@LHMailOutlook@@UAE_NXZ = .text:0x10013290; // type:function size:0x10
??0LHMailPOP3@@QAE@PAD@Z = .text:0x100132A0; // type:function size:0x30
??1LHMailPOP3@@UAE@XZ = .text:0x100132D0; // type:function size:0x50
?InitPOP3@LHMailPOP3@@QAE_NXZ = .text:0x10013320; // type:function size:0x180
?CleanUpPOP3@LHMailPOP3@@QAE_NXZ = .text:0x100134A0; // type:function size:0x90
?DriverCheckMails@LHMailPOP3@@UAE?AW4LH_RETURN@@XZ = .text:0x10013530; // type:function size:0x3AE
lbl_100135A1 = .text:0x100135A1; // type:label
lbl_100135F5 = .text:0x100135F5; // type:label
lbl_10013646 = .text:0x10013646; // type:label
lbl_100136D7 = .text:0x100136D7; // type:label
lbl_1001387E = .text:0x1001387E; // type:label
lbl_100138B0 = .text:0x100138B0; // type:label
lbl_100138C9 = .text:0x100138C9; // type:label
lbl_100138E0 = .text:0x100138E0; // type:label
?DriverGetContactNames@LHMailPOP3@@UAE_NPAK@Z = .text:0x10013900; // type:function size:0x10
?CallInitDriver@LHMailPOP3@@UAE_NXZ = .text:0x10013910; // type:function size:0x10
?CleanUpDriver@LHMailPOP3@@UAE_NXZ = .text:0x10013920; // type:function size:0x10
?ReloadDriver@LHMailPOP3@@UAE_NXZ = .text:0x10013930; // type:function size:0x10
?LHLoadInGameEmailSystem@@YAPAVLHMail@@PAD@Z = .text:0x10013940; // type:function size:0x120
fn_10013A70 = .text:0x10013A70; // type:function size:0x70
fn_10013AF0 = .text:0x10013AF0; // type:function size:0x40
fn_10013B40 = .text:0x10013B40; // type:function size:0x20
fn_10013B60 = .text:0x10013B60; // type:function size:0x90
fn_10013BF0 = .text:0x10013BF0; // type:function size:0x130
fn_10013D20 = .text:0x10013D20; // type:function size:0x140
fn_10013E60 = .text:0x10013E60; // type:function size:0x50
fn_10013EB0 = .text:0x10013EB0; // type:function size:0x175
lbl_10013FBA = .text:0x10013FBA; // type:label
lbl_10013FD5 = .text:0x10013FD5; // type:label
lbl_10013FE5 = .text:0x10013FE5; // type:label
lbl_10013FF3 = .text:0x10013FF3; // type:label
lbl_10014001 = .text:0x10014001; // type:label
lbl_1001400D = .text:0x1001400D; // type:label
lbl_1001401B = .text:0x1001401B; // type:label
lbl_10014028 = .text:0x10014028; // type:label
fn_10014050 = .text:0x10014050; // type:function size:0x90
fn_100140E0 = .text:0x100140E0; // type:function size:0xF0
fn_100141D0 = .text:0x100141D0; // type:function size:0x240
fn_10014410 = .text:0x10014410; // type:function size:0x260
fn_10014670 = .text:0x10014670; // type:function size:0x1C0
fn_10014830 = .text:0x10014830; // type:function size:0x50
fn_10014880 = .text:0x10014880; // type:function size:0x30
fn_100148B0 = .text:0x100148B0; // type:function size:0x40
fn_100148F0 = .text:0x100148F0; // type:function size:0x210
fn_10014B00 = .text:0x10014B00; // type:function size:0xF0
fn_10014BF0 = .text:0x10014BF0; // type:function size:0x10
fn_10014C00 = .text:0x10014C00; // type:function size:0xE0
fn_10014DC0 = .text:0x10014DC0; // type:function size:0x80
fn_10014E40 = .text:0x10014E40; // type:function size:0xD0
fn_10014F10 = .text:0x10014F10; // type:function size:0x50
fn_10014F60 = .text:0x10014F60; // type:function size:0x260
fn_100151C0 = .text:0x100151C0; // type:function size:0xA0
lbl_100153A0 = .text:0x100153A0; // type:label
fn_10015460 = .text:0x10015460; // type:function size:0x3F0
fn_10015850 = .text:0x10015850; // type:function size:0x40
fn_10015890 = .text:0x10015890; // type:function size:0x10
fn_100158A0 = .text:0x100158A0; // type:function size:0x30
fn_100158D0 = .text:0x100158D0; // type:function size:0x10
fn_100158E0 = .text:0x100158E0; // type:function size:0x20
lbl_10015910 = .text:0x10015910; // type:label
fn_0x10015915 = .text:0x10015915; // type:function size:0x6
fn_10015920 = .text:0x10015920; // type:function
fn_10015980 = .text:0x10015980; // type:function size:0x50
fn_100159D0 = .text:0x100159D0; // type:function size:0x30
fn_10015A00 = .text:0x10015A00; // type:function size:0x20
?Open@LHMPPacketSave@@QAEXW4LH_PACKET_SOURCE@@PAVLHSession@@@Z = .text:0x10015A20; // type:function size:0xC0
?ProcessHeader@LHMPPacketSave@@QAEXPAVLHSession@@@Z = .text:0x10015AE0; // type:function size:0x340
?RestoreOriginalPlayerList@LHMPPacketSave@@QAEXPAVLHSession@@@Z = .text:0x10015E20; // type:function size:0x60
?CheckSavedPacketsAvail@LHMPPacketSave@@SA?AW4LH_RETURN@@PAULHReplayPacketInfo@@@Z = .text:0x10015E80; // type:function size:0x80
?ReadEventFromFile@LHMPPacketSave@@QAEPAVLHNetEvent@@XZ = .text:0x10015F00; // type:function size:0x100
?WriteEventToFile@LHMPPacketSave@@QAEXPAVLHNetEvent@@@Z = .text:0x10016000; // type:function size:0x50
?UpdateInfoBlock@LHMPPacketSave@@QAEXXZ = .text:0x10016050; // type:function size:0x90
?Close@LHMPPacketSave@@QAEXXZ = .text:0x100160E0; // type:function size:0x20
fn_10016100 = .text:0x10016100; // type:function size:0x50
fn_10016150 = .text:0x10016150; // type:function size:0x20
?SetPacketHeader@LHNetEvent@@QAE?AW4LH_RETURN@@W4LH_NETEVENT_TYPE@@ULH_USER_ID@@@Z = .text:0x10016170; // type:function size:0x20
??1LHNetEvent@@QAE@XZ = .text:0x10016190; // type:function size:0x10
?CreateFromPacket@LHNetEvent@@SAPAV1@PAVLHPacket@@@Z = .text:0x100161A0; // type:function size:0xA0
?CreateFromEvent@LHNetEvent@@SAPAV1@PAV1@@Z = .text:0x10016240; // type:function size:0xA0
?CreateSimple@LHNetEvent@@SAPAV1@W4LH_NETEVENT_TYPE@@ULH_USER_ID@@KPAX@Z = .text:0x100162E0; // type:function size:0xD0
?VCreate@LHNetEvent@@SAPAV1@W4LH_NETEVENT_TYPE@@ULH_USER_ID@@ZZ = .text:0x100163B0; // type:function size:0x30
?VCreate@LHNetEvent@@SAPAV1@JPAULHNetMessageFormatDescriptor@@ZZ = .text:0x100163E0; // type:function size:0x40
?VDecode@LHNetEvent@@QAA?AW4LH_RETURN@@W4LH_NETEVENT_TYPE@@ZZ = .text:0x10016420; // type:function size:0x50
?VDecode@LHNetEvent@@QAA?AW4LH_RETURN@@JPAULHNetMessageFormatDescriptor@@ZZ = .text:0x10016470; // type:function size:0x30
?RawCreate@LHNetEvent@@SAPAV1@ULH_USER_ID@@W4LH_NETEVENT_TYPE@@PAD2@Z = .text:0x100164A0; // type:function size:0x4AA
lbl_10016523 = .text:0x10016523; // type:label
lbl_1001652E = .text:0x1001652E; // type:label
lbl_1001655B = .text:0x1001655B; // type:label
lbl_10016577 = .text:0x10016577; // type:label
lbl_10016582 = .text:0x10016582; // type:label
lbl_10016594 = .text:0x10016594; // type:label
lbl_100165A5 = .text:0x100165A5; // type:label
lbl_100165E6 = .text:0x100165E6; // type:label
lbl_1001661C = .text:0x1001661C; // type:label
lbl_1001662A = .text:0x1001662A; // type:label
lbl_10016630 = .text:0x10016630; // type:label
lbl_10016689 = .text:0x10016689; // type:label
lbl_100166F2 = .text:0x100166F2; // type:label
lbl_10016705 = .text:0x10016705; // type:label
lbl_10016718 = .text:0x10016718; // type:label
lbl_1001673A = .text:0x1001673A; // type:label
lbl_1001678D = .text:0x1001678D; // type:label
lbl_100167BD = .text:0x100167BD; // type:label
lbl_10016809 = .text:0x10016809; // type:label
lbl_10016821 = .text:0x10016821; // type:label
lbl_10016882 = .text:0x10016882; // type:label
lbl_100168CC = .text:0x100168CC; // type:label
lbl_100168E1 = .text:0x100168E1; // type:label
lbl_100168EF = .text:0x100168EF; // type:label
lbl_1001694C = .text:0x1001694C; // type:label
lbl_1001697C = .text:0x1001697C; // type:label
lbl_10016998 = .text:0x10016998; // type:label
lbl_100169CC = .text:0x100169CC; // type:label
?RawDecode@LHNetEvent@@QAE?AW4LH_RETURN@@PAD0@Z = .text:0x100169F0; // type:function size:0x1DA
lbl_10016A35 = .text:0x10016A35; // type:label
lbl_10016A47 = .text:0x10016A47; // type:label
lbl_10016A59 = .text:0x10016A59; // type:label
lbl_10016A71 = .text:0x10016A71; // type:label
lbl_10016AA5 = .text:0x10016AA5; // type:label
lbl_10016ADF = .text:0x10016ADF; // type:label
lbl_10016B08 = .text:0x10016B08; // type:label
lbl_10016B1A = .text:0x10016B1A; // type:label
lbl_10016B2F = .text:0x10016B2F; // type:label
lbl_10016B4C = .text:0x10016B4C; // type:label
lbl_10016B5E = .text:0x10016B5E; // type:label
lbl_10016B6B = .text:0x10016B6B; // type:label
lbl_10016B83 = .text:0x10016B83; // type:label
lbl_10016B97 = .text:0x10016B97; // type:label
lbl_10016BCC = .text:0x10016BCC; // type:label
lbl_10016C04 = .text:0x10016C04; // type:label
?CreateMServeSuperPacket@LHNetEvent@@SAPAV1@ULH_USER_ID@@JPAV?$LHDynamicQueue@PAVLHNetEvent@@@@H@Z = .text:0x10016C40; // type:function size:0x1D0
?CreateEmptyMServeSuperPacket@LHNetEvent@@SAPAV1@ULH_USER_ID@@J@Z = .text:0x10016E10; // type:function size:0xA0
?DecodeMServeSuperPacket@LHNetEvent@@QAE?AW4LH_RETURN@@PAV?$LHDynamicQueue@PAVLHNetEvent@@@@PAJ@Z = .text:0x10016EB0; // type:function size:0x120
?GetNetGameTurn@LHNetEvent@@QAEJXZ = .text:0x10016FD0; // type:function size:0x20
?GetNumberOfPlayerEvents@LHNetEvent@@QAEKXZ = .text:0x10016FF0; // type:function size:0x20
?SetUDPinfo@LHNetEvent@@QAEXPAVLHTransportInfo@@@Z = .text:0x10017010; // type:function size:0x40
?DecodeDataPacket@LHNetEvent@@SA?AW4LH_RETURN@@PAV1@PAKPAPAXPAH@Z = .text:0x10017050; // type:function size:0x40
fn_10017090 = .text:0x10017090; // type:function size:0x20
fn_100170B0 = .text:0x100170B0; // type:function size:0x1A0
?ClearAllData@LHLocalLobbyInfo@@QAEXXZ = .text:0x10017250; // type:function size:0x180
??0LHLocalLobbyInfo@@QAE@PAV0@@Z = .text:0x100173D0; // type:function size:0xC0
?Initialise@LHLocalLobbyInfo@@QAEXPADPAVLHTransportInfo@@1PAV?$LHLinkedList@PAVLHPlayer@@@@W4CATEGORY@LH_USER_ID@@H@Z = .text:0x10017490; // type:function size:0xB0
?UpdateLocalLobbyInfoDetails@LHLocalLobbyInfo@@QAEHPAV1@@Z = .text:0x10017540; // type:function size:0x160
??1LHLocalLobbyInfo@@QAE@XZ = .text:0x100176A0; // type:function size:0xB0
?GetEncodedLength@LHLocalLobbyInfo@@UAEKKPAX@Z = .text:0x10017750; // type:function size:0x60
?EncodeToBuffer@LHLocalLobbyInfo@@UAEPAEPAEKPAX@Z = .text:0x100177B0; // type:function size:0xA0
?DecodeFromBuffer@LHLocalLobbyInfo@@UAEPAEPAE@Z = .text:0x10017850; // type:function size:0xA0
?ClearObject@LHLocalLobbyInfo@@UAEXXZ = .text:0x100178F0; // type:function size:0x10
fn_10017910 = .text:0x10017910; // type:function size:0x20
?ClearAllData@LHNetUser@@AAEXXZ = .text:0x10017970; // type:function size:0x40
?Logout@LHNetUser@@QAEXXZ = .text:0x100179B0; // type:function size:0x40
?SetUserDetails@LHNetUser@@AAE?AW4LH_RETURN@@PAGPAD@Z = .text:0x100179F0; // type:function size:0x50
??1LHNetUser@@QAE@XZ = .text:0x10017A40; // type:function size:0x30
?Login@LHNetUser@@QAE?AW4LH_RETURN@@PAD0@Z = .text:0x10017A70; // type:function size:0xE0
?Login@LHNetUser@@QAE?AW4LH_RETURN@@PAD0PAVLHTransportInfo@@@Z = .text:0x10017B50; // type:function size:0x2D0
?SendLogin@LHNetUser@@QAE?AW4LH_RETURN@@PAD0PAVLHTransportInfo@@@Z = .text:0x10017E20; // type:function size:0x150
?ParseUserData@LHNetUser@@AAE?AW4LH_RETURN@@PADPAK@Z = .text:0x10017F70; // type:function size:0x100
?CheckLogin@LHNetUser@@QAE?AW4LH_LOGIN_CHECK@@XZ = .text:0x10018070; // type:function size:0x1D0
?Login@LHNetUser@@QAE?AW4LH_RETURN@@PAV1@W4CATEGORY@LH_USER_ID@@@Z = .text:0x10018240; // type:function size:0x70
fn_100182B0 = .text:0x100182B0; // type:function size:0x20
?LHNetFindLocalLobby@@YAPAVLHLocalLobbyInfo@@PAV?$LHLinkedList@PAVLHLocalLobbyInfo@@@@PAVLHTransportInfo@@@Z = .text:0x100182D0; // type:function size:0x50
?LHNetFindLocalLobby@@YAPAVLHLocalLobbyInfo@@PAV?$LHLinkedList@PAVLHLocalLobbyInfo@@@@PAD@Z = .text:0x10018320; // type:function size:0x60
?LHNetIsDisconnectionStatus@@YAHW4LH_NET_LOG_ERROR_LIST@@@Z = .text:0x10018380; // type:function size:0x20
?LHNetGetEncodedStringListLength@@YAKPAV?$LHLinkedList@PAD@@@Z = .text:0x100183A0; // type:function size:0x40
?LHNetEncodeStringList@@YAPAEPAEPAV?$LHLinkedList@PAD@@@Z = .text:0x100183E0; // type:function size:0x80
?LHNetDecodeStringList@@YAPAEPAEPAV?$LHLinkedList@PAD@@@Z = .text:0x10018460; // type:function size:0xC0
?LHNetGetFormatDescriptor@@YAPADJPAULHNetMessageFormatDescriptor@@@Z = .text:0x10018520; // type:function size:0x40
fn_10018560 = .text:0x10018560; // type:function size:0x40
?LHNetGetEncodedFileLength@@YAKPAD@Z = .text:0x100185A0; // type:function size:0x90
?LHNetEncodeFile@@YAPAEPAEULH_USER_ID@@PAD@Z = .text:0x10018630; // type:function size:0x170
?LHNetGetNetEventLength@@YAKPAVLHNetEvent@@@Z = .text:0x100187A0; // type:function size:0x20
?LHNetDecodeNetEvent@@YAPAEPAEPAPAVLHNetEvent@@@Z = .text:0x100187C0; // type:function size:0x30
?LHNetEncodeNetEvent@@YAPAEPAEPAVLHNetEvent@@@Z = .text:0x100187F0; // type:function size:0x40
?LHNetDecodeFile@@YAPAEPAEPAPADPAULH_USER_ID@@@Z = .text:0x10018830; // type:function size:0x100
?LHNetGetCurrentUsedProfile@@YAPAGXZ = .text:0x10018930; // type:function size:0x10
?LHNetCreateDefaultProfile@@YAPAGPAG@Z = .text:0x10018940; // type:function size:0xF0
?LHNetUseProfile@@YAXPAG@Z = .text:0x10018A30; // type:function size:0x60
?LHNetGetCurrentProfileNameFromRegistry@@YAPAGXZ = .text:0x10018A90; // type:function size:0x80
?LHNetSaveDefaultProfileNameInRegistry@@YA?AW4LH_RETURN@@PAG@Z = .text:0x10018B10; // type:function size:0x40
?LHNetCheckProfileExists@@YAHPAG@Z = .text:0x10018B50; // type:function size:0x70
?LHNetGetCurrentProfileUlong@@YA?AW4LH_RETURN@@PADPAK@Z = .text:0x10018BC0; // type:function size:0x70
?LHNetGetCurrentProfileString@@YA?AW4LH_RETURN@@PAD0PAK@Z = .text:0x10018C30; // type:function size:0x70
?LHNetGetCurrentProfileWString@@YA?AW4LH_RETURN@@PADPAGPAK@Z = .text:0x10018CA0; // type:function size:0x70
?LHNetGetCurrentProfileDouble@@YA?AW4LH_RETURN@@PADPAN@Z = .text:0x10018D10; // type:function size:0x70
?LHNetGetCurrentProfileData@@YA?AW4LH_RETURN@@PADPAEPAK@Z = .text:0x10018D80; // type:function size:0x70
?LHNetSetCurrentProfileUlong@@YA?AW4LH_RETURN@@PADK@Z = .text:0x10018DF0; // type:function size:0x70
?LHNetSetCurrentProfileString@@YA?AW4LH_RETURN@@PAD0@Z = .text:0x10018E60; // type:function size:0x70
?LHNetSetCurrentProfileWString@@YA?AW4LH_RETURN@@PADPAG@Z = .text:0x10018ED0; // type:function size:0x70
?LHNetSetCurrentProfileDouble@@YA?AW4LH_RETURN@@PADN@Z = .text:0x10018F40; // type:function size:0x70
?LHNetSetCurrentProfileData@@YA?AW4LH_RETURN@@PADPAEK@Z = .text:0x10018FB0; // type:function size:0x70
?LHNetGetProfileList@@YA?AW4LH_RETURN@@PAV?$LHLinkedList@PAG@@@Z = .text:0x10019020; // type:function size:0xE0
?LHNetFreeProfileList@@YA?AW4LH_RETURN@@PAV?$LHLinkedList@PAG@@@Z = .text:0x10019100; // type:function size:0x60
?LHNetDeleteProfile@@YA?AW4LH_RETURN@@PAG@Z = .text:0x10019160; // type:function size:0x70
?ProfileNameToKey@@YAPADPAG@Z = .text:0x100191D0; // type:function size:0xD0
fn_100192A0 = .text:0x100192A0; // type:function size:0x30
?KeyToProfileName@@YAPAGPAD@Z = .text:0x100192D0; // type:function size:0x130
?ICQinttoLHTransportInfo@@YAXKPAVLHTransportInfo@@@Z = .text:0x10019400; // type:function size:0xD0
?LHTransportInfotoICQint@@YAKPAVLHTransportInfo@@@Z = .text:0x100194D0; // type:function size:0x70
?LIBCHAR2WCHAR@@YAPAGPAD@Z = .text:0x10019540; // type:function size:0x30
?LIBWCHAR2CHAR@@YAPADPAG@Z = .text:0x10019570; // type:function size:0x30
?LHGetInstalledBWVersion@@YA?AW4LH_RETURN@@PAKPAD@Z = .text:0x100195A0; // type:function size:0xB0
?LHCheckForInternetConnection@@YA_ND@Z = .text:0x10019650; // type:function size:0x230
fn_10019880 = .text:0x10019880; // type:function size:0x40
fn_100198C0 = .text:0x100198C0; // type:function size:0x20
?GetEncodedListLength@LHPacketisableObject@@SAKPAV?$LHLinkedList@PAVLHPacketisableObject@@@@KPAX@Z = .text:0x100198E0; // type:function size:0x50
?EncodeListToBuffer@LHPacketisableObject@@SAPAEPAEPAV?$LHLinkedList@PAVLHPacketisableObject@@@@KPAX@Z = .text:0x10019930; // type:function size:0x70
?DecodeListFromBuffer@LHPacketisableObject@@SAPAEP6APAV1@XZPAEPAV?$LHLinkedList@PAVLHPacketisableObject@@@@@Z = .text:0x100199A0; // type:function size:0xA0
fn_10019A40 = .text:0x10019A40; // type:function size:0x40
fn_10019A80 = .text:0x10019A80; // type:function size:0x20
?SetDetails@LHPlayer@@QAE?AW4LH_RETURN@@PAGULH_USER_ID@@J@Z = .text:0x10019AA0; // type:function size:0x40
?SetDetails@LHPlayer@@QAE?AW4LH_RETURN@@PAV1@@Z = .text:0x10019AE0; // type:function size:0xC0
?SetDetails@LHPlayer@@QAE?AW4LH_RETURN@@PAVLHNetUser@@@Z = .text:0x10019BA0; // type:function size:0x30
?ClearAllData@LHPlayer@@IAEXXZ = .text:0x10019BD0; // type:function size:0x60
?SetUserFile@LHPlayer@@QAEXPBD@Z = .text:0x10019C30; // type:function size:0x20
??0LHPlayer@@QAE@PAV0@@Z = .text:0x10019C50; // type:function size:0x150
??0LHPlayer@@QAE@PAVLHNetUser@@@Z = .text:0x10019DA0; // type:function size:0x70
??1LHPlayer@@QAE@XZ = .text:0x10019E10; // type:function size:0x20
?SetUserData@LHPlayer@@QAEXPAXK@Z = .text:0x10019E30; // type:function size:0x60
?GetPlayer@LHPlayer@@SAPAV1@ULH_USER_ID@@PAV?$LHLinkedList@PAVLHPlayer@@@@@Z = .text:0x10019E90; // type:function size:0x30
?GetPlayerFromPlayerNumber@LHPlayer@@SAPAV1@KPAV?$LHLinkedList@PAVLHPlayer@@@@@Z = .text:0x10019EC0; // type:function size:0x30
?CopyPlayerList@LHPlayer@@SA?AW4LH_RETURN@@PAV?$LHLinkedList@PAVLHPlayer@@@@0@Z = .text:0x10019EF0; // type:function size:0x90
?Compare@LHPlayer@@QAEKPAV1@@Z = .text:0x10019F80; // type:function size:0x50
?AllocSystemData@LHPlayer@@QAEPAXK@Z = .text:0x10019FD0; // type:function size:0x20
?FreeSystemData@LHPlayer@@QAEXXZ = .text:0x10019FF0; // type:function size:0x30
?FreeUserData@LHPlayer@@QAEXXZ = .text:0x1001A020; // type:function size:0x30
?GetEncodedLength@LHPlayer@@UAEKKPAX@Z = .text:0x1001A050; // type:function size:0x70
?EncodeToBuffer@LHPlayer@@UAEPAEPAEKPAX@Z = .text:0x1001A0C0; // type:function size:0xB0
?DecodeFromBuffer@LHPlayer@@UAEPAEPAE@Z = .text:0x1001A170; // type:function size:0xC0
?Create@LHPlayer@@SAPAV1@XZ = .text:0x1001A230; // type:function size:0x60
?ClearObject@LHPlayer@@UAEXXZ = .text:0x1001A290; // type:function size:0x10
fn_1001A2A0 = .text:0x1001A2A0; // type:function size:0x20
fn_1001A2C0 = .text:0x1001A2C0; // type:function size:0x80
fn_1001A340 = .text:0x1001A340; // type:function size:0x80
fn_1001A3C0 = .text:0x1001A3C0; // type:function size:0x130
fn_1001A4F0 = .text:0x1001A4F0; // type:function size:0xC0
??0LHPOP3@@QAE@XZ = .text:0x1001A920; // type:function size:0xB0
??1LHPOP3@@QAE@XZ = .text:0x1001A9D0; // type:function size:0xD0
?SetLogin@LHPOP3@@QAE?AW4LH_RETURN@@PAD00J@Z = .text:0x1001AAA0; // type:function size:0xD0
?ParseLine@LHPOP3@@AAE?AW4LH_RETURN@@PADJ0PAJW4LH_POP3_PARSE@@J@Z = .text:0x1001AB70; // type:function size:0x170
?ScanLines@LHPOP3@@AAE?AW4LH_RETURN@@PADJ0PAJ_N@Z = .text:0x1001ACE0; // type:function size:0x190
?SearchForSpecialChar@LHPOP3@@AAE?AW4LH_RETURN@@PADJ00PAJ1@Z = .text:0x1001AE70; // type:function size:0x80
?SendCommandAsync@LHPOP3@@QAE?AW4LH_RETURN@@PADPAPAD_N@Z = .text:0x1001AEF0; // type:function size:0x430
?OpenConnectionAsync@LHPOP3@@QAE?AW4LH_RETURN@@XZ = .text:0x1001B320; // type:function size:0x1E0
?LoginAsync@LHPOP3@@QAE?AW4LH_RETURN@@PAW4LH_POP3_ACTION@@@Z = .text:0x1001B500; // type:function size:0x180
lbl_1001B532 = .text:0x1001B532; // type:label
lbl_1001B54F = .text:0x1001B54F; // type:label
lbl_1001B5B0 = .text:0x1001B5B0; // type:label
lbl_1001B60F = .text:0x1001B60F; // type:label
lbl_1001B650 = .text:0x1001B650; // type:label
lbl_1001B680 = .text:0x1001B680; // type:label
?GetMsgListAsync@LHPOP3@@QAE?AW4LH_RETURN@@AAV?$LHLinkedList@PAVLHPOP3Mail@@@@PAW4LH_POP3_ACTION@@@Z = .text:0x1001B6A0; // type:function size:0x338
lbl_1001B6D4 = .text:0x1001B6D4; // type:label
lbl_1001B703 = .text:0x1001B703; // type:label
lbl_1001B74A = .text:0x1001B74A; // type:label
lbl_1001B75C = .text:0x1001B75C; // type:label
lbl_1001B94E = .text:0x1001B94E; // type:label
lbl_1001B97D = .text:0x1001B97D; // type:label
lbl_1001B9AF = .text:0x1001B9AF; // type:label
lbl_1001B9D8 = .text:0x1001B9D8; // type:label
?LogoutAsync@LHPOP3@@QAE?AW4LH_RETURN@@PAW4LH_POP3_ACTION@@@Z = .text:0x1001BA00; // type:function size:0xD0
?GetMailNameSubject@LHPOP3@@QAE?AW4LH_RETURN@@JAAVLHPOP3Mail@@PAW4LH_POP3_ACTION@@@Z = .text:0x1001BAD0; // type:function size:0x366
lbl_1001BB1A = .text:0x1001BB1A; // type:label
lbl_1001BB39 = .text:0x1001BB39; // type:label
lbl_1001BB87 = .text:0x1001BB87; // type:label
lbl_1001BDDA = .text:0x1001BDDA; // type:label
lbl_1001BDFC = .text:0x1001BDFC; // type:label
lbl_1001BE38 = .text:0x1001BE38; // type:label
fn_1001BE60 = .text:0x1001BE60; // type:function size:0x50
fn_1001BEB0 = .text:0x1001BEB0; // type:function size:0x20
??4LHSerial@@QAEAAV0@ABV0@@Z = .text:0x1001BED0; // type:function size:0x20
??0LHSerial@@QAE@XZ = .text:0x1001BEF0; // type:function size:0x10
??1LHSerial@@QAE@XZ = .text:0x1001BF00; // type:function size:0x10
?Connect@LHSerial@@QAE?AW4LH_RETURN@@PAVLHTransportInfo@@@Z = .text:0x1001BF10; // type:function size:0x130
?Disconnect@LHSerial@@QAE?AW4LH_RETURN@@XZ = .text:0x1001C040; // type:function size:0x50
?Send@LHSerial@@QAE?AW4LH_RETURN@@PAXK@Z = .text:0x1001C090; // type:function size:0x20
?Receive@LHSerial@@QAE?AW4LH_RETURN@@PAXK@Z = .text:0x1001C0B0; // type:function size:0x40
?SendPacket@LHSerial@@QAE?AW4LH_RETURN@@PAVLHPacket@@@Z = .text:0x1001C0F0; // type:function size:0x20
?RecievePacket@LHSerial@@QAE?AW4LH_RETURN@@PAPAVLHPacket@@@Z = .text:0x1001C110; // type:function size:0x80
?GetWaitingSize@LHSerial@@QAEKXZ = .text:0x1001C190; // type:function size:0x20
fn_1001C1B0 = .text:0x1001C1B0; // type:function size:0x20
fn_1001C1D0 = .text:0x1001C1D0; // type:function size:0x20
fn_1001C1F0 = .text:0x1001C1F0; // type:function size:0x90
fn_1001C280 = .text:0x1001C280; // type:function size:0xD0
fn_1001C350 = .text:0x1001C350; // type:function size:0x20
fn_1001C370 = .text:0x1001C370; // type:function size:0x10
fn_1001C380 = .text:0x1001C380; // type:function size:0x10
fn_1001C390 = .text:0x1001C390; // type:function size:0x20
fn_1001C3B0 = .text:0x1001C3B0; // type:function size:0x50
fn_1001C400 = .text:0x1001C400; // type:function size:0xD0
fn_1001C4D0 = .text:0x1001C4D0; // type:function size:0x10
fn_1001C4E0 = .text:0x1001C4E0; // type:function size:0x10
fn_1001C4F0 = .text:0x1001C4F0; // type:function size:0x20
fn_1001C510 = .text:0x1001C510; // type:function size:0x10
fn_1001C520 = .text:0x1001C520; // type:function size:0x20
lbl_1001C550 = .text:0x1001C550; // type:label
fn_1001C570 = .text:0x1001C570; // type:function size:0x10
fn_1001C580 = .text:0x1001C580; // type:function size:0x20
lbl_1001C5B0 = .text:0x1001C5B0; // type:label
?SendChecksum@LHSession@@QAE?AW4LH_RETURN@@KKPAXK@Z = .text:0x1001C5D0; // type:function size:0x1F0
?SendOOSChecksumAndWaitForSync@LHSession@@QAE?AW4LH_RETURN@@KKPAXK@Z = .text:0x1001C7C0; // type:function size:0x260
?ClearAllData@LHSession@@AAEXXZ = .text:0x1001CA20; // type:function size:0x150
?GetChannelName@LHSession@@QAEPADXZ = .text:0x1001CB70; // type:function size:0x10
?ClearLastGameEventRead@LHSession@@AAEXXZ = .text:0x1001CB80; // type:function size:0x30
?Write@LHSession@@QAE?AW4LH_RETURN@@PAXK@Z = .text:0x1001CBB0; // type:function size:0x70
?SetupGamePlayerInfo@LHSession@@QAEXXZ = .text:0x1001CC20; // type:function size:0x80
?SendDataPacketToAllGamePlayers@LHSession@@QAEXKPAXH@Z = .text:0x1001CCA0; // type:function size:0x40
?GetSuperPacketNextData@LHSession@@QAE?AW4LH_RETURN@@PAPAXPAKPAPAVLHPlayer@@@Z = .text:0x1001CCE0; // type:function size:0xD0
?ClearGameEventQ@LHSession@@AAEXXZ = .text:0x1001CDB0; // type:function size:0x90
?ProcessEvent@LHSession@@EAE?AW4LH_RETURN@@PAVLHNetEvent@@@Z = .text:0x1001CE40; // type:function size:0x129
lbl_1001CE88 = .text:0x1001CE88; // type:label
lbl_1001CEDB = .text:0x1001CEDB; // type:label
lbl_1001CEE4 = .text:0x1001CEE4; // type:label
lbl_1001CEEE = .text:0x1001CEEE; // type:label
lbl_1001CEF3 = .text:0x1001CEF3; // type:label
lbl_1001CF20 = .text:0x1001CF20; // type:label
lbl_1001CF2F = .text:0x1001CF2F; // type:label
lbl_1001CF3F = .text:0x1001CF3F; // type:label
lbl_1001CF48 = .text:0x1001CF48; // type:label
lbl_1001CF51 = .text:0x1001CF51; // type:label
lbl_1001CF61 = .text:0x1001CF61; // type:label
lbl_1001CF6C = .text:0x1001CF6C; // type:label
lbl_1001CF7C = .text:0x1001CF7C; // type:label
?ProcessServerShutdown@LHSession@@AAE?AW4LH_RETURN@@XZ = .text:0x1001CFA0; // type:function size:0x10
?ProcessMServeGreeting@LHSession@@AAE?AW4LH_RETURN@@PAVLHNetEvent@@@Z = .text:0x1001CFB0; // type:function size:0x70
?ProcessMServeRequestLastSuperpacketData@LHSession@@AAE?AW4LH_RETURN@@PAVLHNetEvent@@@Z = .text:0x1001D020; // type:function size:0x80
?BuildSuperpacketDatablock@LHSession@@SAPAXKPAK@Z = .text:0x1001D0A0; // type:function size:0xD0
?ProcessMServeCheckSumFailure@LHSession@@QAE?AW4LH_RETURN@@PAVLHNetEvent@@@Z = .text:0x1001D170; // type:function size:0x250
?GetPlayerFromNum@LHSession@@QAEPAVLHPlayer@@K@Z = .text:0x1001D3C0; // type:function size:0x30
?ProcessMServePlayerList@LHSession@@AAE?AW4LH_RETURN@@PAVLHNetEvent@@@Z = .text:0x1001D3F0; // type:function size:0x3B0
fn_1001D7A0 = .text:0x1001D7A0; // type:function size:0x20
?GetLobbyPlayer@LHSession@@QAEPAVLHPlayer@@PAV2@@Z = .text:0x1001D7C0; // type:function size:0x40
??1LHSession@@UAE@XZ = .text:0x1001D800; // type:function size:0x90
?FakeOpen@LHSession@@QAEXPAVLHNetUser@@@Z = .text:0x1001D890; // type:function size:0x180
?IsSinglePlayer@LHSession@@QAEHXZ = .text:0x1001DA10; // type:function size:0x30
?ProcessMServeMGJ@LHSession@@AAE?AW4LH_RETURN@@PAVLHNetEvent@@@Z = .text:0x1001DA40; // type:function size:0xA0
?SavesCompleteForMGJ@LHSession@@QAEXXZ = .text:0x1001DAE0; // type:function size:0x60
?ProcessMServeGameFile@LHSession@@AAE?AW4LH_RETURN@@PAVLHNetEvent@@@Z = .text:0x1001DB40; // type:function size:0x80
?ProcessMServeChallengeKey@LHSession@@AAE?AW4LH_RETURN@@PAVLHNetEvent@@@Z = .text:0x1001DBC0; // type:function size:0x80
?GetPlayer@LHSession@@QAEPAVLHPlayer@@ULH_USER_ID@@@Z = .text:0x1001DC40; // type:function size:0x30
?ProcessMServeSuperPacket@LHSession@@AAE?AW4LH_RETURN@@PAVLHNetEvent@@@Z = .text:0x1001DC70; // type:function size:0x290
?ProcessServerNewIdleTime@LHSession@@AAE?AW4LH_RETURN@@PAVLHNetEvent@@@Z = .text:0x1001DF00; // type:function size:0x40
?ProcessMServeGameLoopStarted@LHSession@@AAE?AW4LH_RETURN@@PAVLHNetEvent@@@Z = .text:0x1001DF40; // type:function size:0x70
?SyncPoint@LHSession@@QAE_NPADH@Z = .text:0x1001DFB0; // type:function size:0x80
?SyncData@LHSession@@QAE_NKPAX_N@Z = .text:0x1001E030; // type:function size:0xA0
?SyncAllAndStartSession@LHSession@@QAE?AW4LH_RETURN@@K@Z = .text:0x1001E0D0; // type:function size:0x80
?Close@LHSession@@UAEXXZ = .text:0x1001E150; // type:function size:0xC0
?SetIdlePeriod@LHSession@@QAE?AW4LH_RETURN@@K@Z = .text:0x1001E210; // type:function size:0x40
?StopSession@LHSession@@QAE?AW4LH_RETURN@@XZ = .text:0x1001E250; // type:function size:0x30
?StartSession@LHSession@@QAE?AW4LH_RETURN@@XZ = .text:0x1001E280; // type:function size:0x30
?CloseSession@LHSession@@QAE?AW4LH_RETURN@@XZ = .text:0x1001E2B0; // type:function size:0x30
?Open@LHSession@@QAE?AW4LH_RETURN@@PAVLHNetUser@@PAVLHLobbyChannel@@PAVLHTransportInfo@@HPAVLHMessageServer@@@Z = .text:0x1001E2E0; // type:function size:0x1C0
?GetPacketSource@LHSession@@QAE?AW4LH_PACKET_SOURCE@@XZ = .text:0x1001E4A0; // type:function size:0x10
?SetPacketSource@LHSession@@QAEXW4LH_PACKET_SOURCE@@@Z = .text:0x1001E4B0; // type:function size:0x50
?GetMPPacketSave@LHSession@@QAEPAVLHMPPacketSave@@XZ = .text:0x1001E500; // type:function size:0x10
?GetMessageServer@LHSession@@QAEPAVLHMessageServer@@XZ = .text:0x1001E510; // type:function size:0x10
?MessageServerRunningHere@LHSession@@QAEHXZ = .text:0x1001E520; // type:function size:0x10
?GetLobby@LHSession@@QAEPAVLHLobby@@XZ = .text:0x1001E530; // type:function size:0x10
?NextPacketIsSuperpacket@LHSession@@QAEHXZ = .text:0x1001E540; // type:function size:0x20
?GetLastJoinChannelInfo@LHSession@@QAEXPAPAGPAW4LH_PLAYER_EVENT@@PAK@Z = .text:0x1001E560; // type:function size:0x30
?GetLastJoinChannelInfo@LHSession@@QAEXPAPAGPAW4LH_PLAYER_EVENT@@@Z = .text:0x1001E590; // type:function size:0x20
?GetUserData@LHSession@@QAEPAXPAVLHPlayer@@@Z = .text:0x1001E5B0; // type:function size:0x30
?GetUserDataLen@LHSession@@QAEKPAVLHPlayer@@@Z = .text:0x1001E5E0; // type:function size:0x30
?EmptyEventQ@LHSession@@QAEXXZ = .text:0x1001E610; // type:function size:0x50
?Create@LHSession@@SAPAV1@_NPAVLHNetUser@@PAVLHTransportInfo@@PADKKPAXKQAY0DA@GQAULH_USER_ID@@@Z = .text:0x1001E660; // type:function size:0x2B0
?SetUserData@LHSession@@QAE?AW4LH_RETURN@@ULH_USER_ID@@PADKPAX@Z = .text:0x1001E910; // type:function size:0x50
?MigrateHost@LHSession@@QAEXXZ = .text:0x1001E960; // type:function size:0x70
?ProcessMServeHostMigration@LHSession@@AAE?AW4LH_RETURN@@PAVLHNetEvent@@@Z = .text:0x1001E9D0; // type:function size:0x210
?WaitForMigrationCompleted@LHSession@@QAEXXZ = .text:0x1001EBE0; // type:function size:0x1D0
?ConnectToNewHost@LHSession@@AAE?AW4LH_RETURN@@PAVLHTransportInfo@@@Z = .text:0x1001EDB0; // type:function size:0x1A0
?HostSession@LHSession@@AAE?AW4LH_RETURN@@PAV?$LHDynamicQueue@PAVLHNetEvent@@@@@Z = .text:0x1001EF50; // type:function size:0x2D0
?MakeNextPlayerHost@LHSession@@AAE?AW4LH_RETURN@@PAVLHTransportInfo@@@Z = .text:0x1001F220; // type:function size:0x100
?GetHost@LHSession@@AAEPAVLHPlayer@@XZ = .text:0x1001F320; // type:function size:0x30
fn_1001F350 = .text:0x1001F350; // type:function size:0x50
fn_1001F3A0 = .text:0x1001F3A0; // type:function size:0x20
fn_1001F3C0 = .text:0x1001F3C0; // type:function size:0x60
fn_1001F420 = .text:0x1001F420; // type:function size:0x20
fn_1001F440 = .text:0x1001F440; // type:function size:0x50
fn_1001F490 = .text:0x1001F490; // type:function size:0x50
fn_1001F4E0 = .text:0x1001F4E0; // type:function size:0x10
fn_1001F4F0 = .text:0x1001F4F0; // type:function size:0xC0
fn_1001F5B0 = .text:0x1001F5B0; // type:function size:0x30
fn_1001F610 = .text:0x1001F610; // type:function size:0x40
fn_1001F690 = .text:0x1001F690; // type:function size:0x80
fn_1001F710 = .text:0x1001F710; // type:function size:0x20
fn_1001FA60 = .text:0x1001FA60; // type:function size:0x200
fn_1001FC60 = .text:0x1001FC60; // type:function size:0x40
fn_1001FCA0 = .text:0x1001FCA0; // type:function size:0x30
fn_1001FCD0 = .text:0x1001FCD0; // type:function size:0x90
fn_1001FD60 = .text:0x1001FD60; // type:function size:0x20
??0LHSocket@@QAE@XZ = .text:0x1001FD80; // type:function size:0x20
??1LHSocket@@QAE@XZ = .text:0x1001FDA0; // type:function size:0x10
?Shutdown@LHSocket@@SAXXZ = .text:0x1001FDB0; // type:function size:0x10
?Startup@LHSocket@@SAXXZ = .text:0x1001FDC0; // type:function
?ClearAllData@LHSocket@@IAEXXZ = .text:0x1001FE00; // type:function size:0x30
?ClearLastUDPPacketBuffer@LHSocket@@QAEXXZ = .text:0x1001FE30; // type:function size:0x20
?WaitForSocketEvents@LHSocket@@SA?AW4LH_RETURN@@PAIGPAUtimeval@@@Z = .text:0x1001FE50; // type:function size:0x110
?Resolving@LHSocket@@QAE?AW4LH_RETURN@@PAD@Z = .text:0x1001FF60; // type:function size:0x60
?GetIP@LHSocket@@QAE?AW4LH_RETURN@@PAD@Z = .text:0x1001FFC0; // type:function size:0x50
?GetIPbin@LHSocket@@QAEJXZ = .text:0x10020010; // type:function size:0x10
?GetPort@LHSocket@@QAEJXZ = .text:0x10020020; // type:function size:0x20
?GetName@LHSocket@@QAE?AW4LH_RETURN@@PAD@Z = .text:0x10020040; // type:function size:0x50
?GetSendBytesTotal@LHSocket@@QAEJXZ = .text:0x10020090; // type:function size:0x10
?GetSendBytes@LHSocket@@QAEJXZ = .text:0x100200A0; // type:function size:0x10
?IsReadData@LHSocket@@QAE?AW4LH_RETURN@@XZ = .text:0x100200B0; // type:function size:0x90
?IsExcept@LHSocket@@QAE?AW4LH_RETURN@@XZ = .text:0x10020140; // type:function size:0x80
??0LHSocketTCP@@QAE@XZ = .text:0x100201C0; // type:function size:0x170
??0LHSocketTCP@@QAE@H@Z = .text:0x10020330; // type:function size:0x170
??0LHSocketTCP@@QAE@HPAUsockaddr_in@@@Z = .text:0x100204A0; // type:function size:0x1A0
?Connect@LHSocketTCP@@UAE?AW4LH_RETURN@@PAVLHTransportInfo@@@Z = .text:0x10020640; // type:function size:0x220
?Send@LHSocketTCP@@UAE?AW4LH_RETURN@@PAXJ@Z = .text:0x10020860; // type:function size:0x60
?PreparePacketToWrite@LHSocketTCP@@QAE?AW4LH_RETURN@@PAVLHPacket@@@Z = .text:0x100208C0; // type:function size:0x140
?FlushBuffer@LHSocketTCP@@QAE?AW4LH_RETURN@@XZ = .text:0x10020A00; // type:function size:0xB0
?Flushed@LHSocketTCP@@QAE_NXZ = .text:0x10020AB0; // type:function size:0x30
?Receive@LHSocketTCP@@UAE?AW4LH_RETURN@@PAXJH@Z = .text:0x10020AE0; // type:function size:0xB0
?DoAttemptReadPacketNonBlocking@LHSocketTCP@@QAE?AW4LH_RETURN@@XZ = .text:0x10020B90; // type:function size:0x1F0
?ResetReadPacket@LHSocketTCP@@QAEXXZ = .text:0x10020D80; // type:function size:0x20
?DecompressPacketIfCompressed@LHSocketTCP@@QAE?AW4LH_RETURN@@XZ = .text:0x10020DA0; // type:function size:0xE0
?GetLastReadPacket@LHSocketTCP@@QAEXPAPAVLHPacket@@@Z = .text:0x10020E80; // type:function size:0x60
?ReceiveRaw@LHSocketTCP@@QAE?AW4LH_RETURN@@PAXPAJ@Z = .text:0x10020EE0; // type:function size:0xB0
?Disconnect@LHSocketTCP@@UAE?AW4LH_RETURN@@XZ = .text:0x10020F90; // type:function size:0x70
??1LHSocketTCP@@QAE@XZ = .text:0x10021000; // type:function size:0x20
?SendPacket@LHSocketTCP@@UAE?AW4LH_RETURN@@PAVLHPacket@@@Z = .text:0x10021020; // type:function size:0x20
?GetNewPacket@LHSocketTCP@@QAE?AW4LH_RETURN@@K@Z = .text:0x10021040; // type:function size:0x40
?ReceivePacket@LHSocketTCP@@UAE?AW4LH_RETURN@@PAPAVLHPacket@@@Z = .text:0x10021080; // type:function size:0x90
?AcceptConnections@LHSocketTCP@@QAE?AW4LH_RETURN@@G@Z = .text:0x10021110; // type:function size:0x1A0
?GetDatagram@LHSocketTCP@@QAE?AW4LH_RETURN@@PAXKPAKPAVLHTransportInfo@@K@Z = .text:0x100212B0; // type:function size:0x120
?ReceiveUDPPacket@LHSocketTCP@@UAE?AW4LH_RETURN@@PAPAVLHPacket@@KPAVLHTransportInfo@@@Z = .text:0x100213D0; // type:function size:0x90
?sockaddr_inFromLHTransportInfo@LHSocketTCP@@SA?AW4LH_RETURN@@PAUsockaddr_in@@PAVLHTransportInfo@@@Z = .text:0x10021460; // type:function size:0x60
?LHTransportInfoFromsockaddr_in@LHSocketTCP@@SA?AW4LH_RETURN@@PAVLHTransportInfo@@PAUsockaddr_in@@@Z = .text:0x100214C0; // type:function size:0xB0
?GetNewConnectedSocket@LHSocketTCP@@QAE?AW4LH_RETURN@@PAPAV1@K@Z = .text:0x10021570; // type:function size:0x220
?SendDatagramPacket@LHSocketTCP@@UAE?AW4LH_RETURN@@PAVLHPacket@@PAVLHTransportInfo@@@Z = .text:0x10021790; // type:function size:0x30
?SendDatagram@LHSocketTCP@@UAE?AW4LH_RETURN@@PAXKPAVLHTransportInfo@@@Z = .text:0x100217C0; // type:function size:0x1C0
?ListenForBroadcastRequests@LHSocketTCP@@UAE?AW4LH_RETURN@@PAVLHTransportInfo@@@Z = .text:0x10021980; // type:function size:0x1C0
?GetSocketInfo@LHSocketTCP@@QAE?AW4LH_RETURN@@PAVLHTransportInfo@@H@Z = .text:0x10021B40; // type:function size:0x130
?GetIPAddress@LHSocketTCP@@SAPADXZ = .text:0x10021C70; // type:function size:0x60
?GetIPAddress@@YAPADXZ = .text:0x10021CD0; // type:function size:0x10
?CheckActivity@LHSocketTCP@@QAE_NW4LH_ACTIVITY_TYPE@@@Z = .text:0x10021CE0; // type:function size:0xA0
?SetBlockingMode@LHSocketTCP@@QAE?AW4LH_RETURN@@_N@Z = .text:0x10021D80; // type:function size:0x60
?HasTimedOut@LHSocketTCP@@QAE_NXZ = .text:0x10021DE0; // type:function size:0xB0
fn_10021E90 = .text:0x10021E90; // type:function size:0x20
fn_10021EB0 = .text:0x10021EB0; // type:function size:0x50
fn_10021F00 = .text:0x10021F00; // type:function size:0x220
lbl_10021F10 = .text:0x10021F10; // type:label
fn_10022120 = .text:0x10022120; // type:function size:0x90
fn_100221B0 = .text:0x100221B0; // type:function size:0x70
fn_10022220 = .text:0x10022220; // type:function size:0x80
fn_100222A0 = .text:0x100222A0; // type:function size:0x20
fn_100222C0 = .text:0x100222C0; // type:function size:0x20
fn_100222E0 = .text:0x100222E0; // type:function size:0x60
fn_10022340 = .text:0x10022340; // type:function size:0x20
?ClearAllData@LHTransport@@IAEXXZ = .text:0x10022360; // type:function size:0x20
?ClearLastIncomingEvent@LHTransport@@AAEXXZ = .text:0x10022380; // type:function size:0x30
??1LHTransport@@MAE@XZ = .text:0x100223B0; // type:function size:0x10
?IsDisconnected@LHTransport@@UAEHXZ = .text:0x100223C0; // type:function size:0x10
?IsConnected@LHTransport@@QAEHXZ = .text:0x100223D0; // type:function size:0x20
?GetTransportInfo@LHTransport@@UAE?AW4LH_RETURN@@PAVLHTransportInfo@@H@Z = .text:0x100223F0; // type:function size:0x10
?Open@LHTransport@@UAE?AW4LH_RETURN@@PAV?$LHDynamicQueue@PAVLHNetEvent@@@@0PAVLHTransportInfo@@@Z = .text:0x10022400; // type:function size:0xB0
?OpenConnectionToTransport@LHTransport@@UAE?AW4LH_RETURN@@PAV1@P6AXPAX@Z1@Z = .text:0x100224B0; // type:function size:0xE0
?CheckForEvents@LHTransport@@UAEHXZ = .text:0x10022590; // type:function size:0x10
?CheckForEvent@LHTransport@@UAEHW4LH_NETEVENT_TYPE@@@Z = .text:0x100225A0; // type:function size:0x40
?WaitForEvent@LHTransport@@UAEHW4LH_NETEVENT_TYPE@@K@Z = .text:0x100225E0; // type:function size:0x10
?Close@LHTransport@@UAEXXZ = .text:0x100225F0; // type:function size:0xE0
?Disconnect@LHTransport@@UAE_NXZ = .text:0x100226D0; // type:function size:0x20
?Write@LHTransport@@UAEXPAVLHNetEvent@@@Z = .text:0x100226F0; // type:function size:0x20
?AddToIncomingEventQ@LHTransport@@UAEXPAVLHNetEvent@@@Z = .text:0x10022710; // type:function size:0x20
?AddAtPositionInIncomingEventQ@LHTransport@@UAEXPAVLHNetEvent@@K@Z = .text:0x10022730; // type:function size:0x30
?AddToFrontOfIncomingEventQ@LHTransport@@UAEXPAVLHNetEvent@@@Z = .text:0x10022760; // type:function size:0x20
?GetIncomingEventQSize@LHTransport@@QAEKXZ = .text:0x10022780; // type:function size:0x10
?Read@LHTransport@@UAEPAVLHNetEvent@@K@Z = .text:0x10022790; // type:function size:0x60
?SetLastEventReadToBeIgnored@LHTransport@@QAEXXZ = .text:0x100227F0; // type:function size:0x20
?Peek@LHTransport@@UAEPAVLHNetEvent@@K@Z = .text:0x10022810; // type:function size:0x30
?ExtractEvent@LHTransport@@UAEPAVLHNetEvent@@W4LH_NETEVENT_TYPE@@K@Z = .text:0x10022840; // type:function size:0x40
?RawPeek@LHTransport@@UAEPAVLHNetEvent@@W4LH_NETEVENT_TYPE@@K@Z = .text:0x10022880; // type:function size:0x40
?GetFirstEventOfType@LHTransport@@QAEPAVLHNetEvent@@W4LH_NETEVENT_TYPE@@@Z = .text:0x100228C0; // type:function size:0x90
?PeekAtFirstEventOfType@LHTransport@@AAEPAVLHNetEvent@@W4LH_NETEVENT_TYPE@@@Z = .text:0x10022950; // type:function size:0x30
?PeekAtNextEvent@LHTransport@@AAEPAVLHNetEvent@@XZ = .text:0x10022980; // type:function size:0x20
?Flush@LHTransport@@UAE?AW4LH_RETURN@@K@Z = .text:0x100229A0; // type:function size:0x20
?Flushed@LHTransport@@UAE_NXZ = .text:0x100229C0; // type:function size:0x10
?Create@LHTransport@@SAPAV1@W4LH_TRANSPORT_TYPE@@@Z = .text:0x100229D0; // type:function size:0x171
lbl_100229FE = .text:0x100229FE; // type:label
lbl_10022A3C = .text:0x10022A3C; // type:label
lbl_10022A75 = .text:0x10022A75; // type:label
lbl_10022AAE = .text:0x10022AAE; // type:label
lbl_10022AE3 = .text:0x10022AE3; // type:label
lbl_10022B44 = .text:0x10022B44; // type:label
?GetSignalDataToRead@LHTransport@@UAEPAXXZ = .text:0x10022B60; // type:function size:0x10
?Destroy@LHTransport@@SAXPAV1@@Z = .text:0x10022B70; // type:function size:0x30
??0LHSyncTransport@@QAE@XZ = .text:0x10022BA0; // type:function size:0x60
?ClearAllData@LHSyncTransport@@AAEXXZ = .text:0x10022C00; // type:function size:0x10
?Read@LHSyncTransport@@UAEPAVLHNetEvent@@K@Z = .text:0x10022C10; // type:function size:0x30
?CheckForEvents@LHSyncTransport@@UAEHXZ = .text:0x10022C40; // type:function size:0x20
?CheckForEvent@LHSyncTransport@@UAEHW4LH_NETEVENT_TYPE@@@Z = .text:0x10022C60; // type:function size:0x30
??1LHAsyncTransport@@UAE@XZ = .text:0x10022C90; // type:function size:0x50
??0LHAsyncTransport@@QAE@XZ = .text:0x10022CE0; // type:function size:0x60
?ClearAllData@LHAsyncTransport@@QAEXXZ = .text:0x10022D40; // type:function size:0x20
?Open@LHAsyncTransport@@MAE?AW4LH_RETURN@@PAV?$LHDynamicQueue@PAVLHNetEvent@@@@0PAVLHTransportInfo@@@Z = .text:0x10022D60; // type:function size:0x60
?OpenConnectionToTransport@LHAsyncTransport@@UAE?AW4LH_RETURN@@PAVLHTransport@@P6AXPAX@Z1@Z = .text:0x10022DC0; // type:function size:0x50
?InitialiseLocks@LHAsyncTransport@@AAEXPAV1@@Z = .text:0x10022E10; // type:function size:0x70
?InitialiseSignals@LHAsyncTransport@@AAE?AW4LH_RETURN@@PAV1@@Z = .text:0x10022E80; // type:function size:0x80
?Close@LHAsyncTransport@@MAEXXZ = .text:0x10022F00; // type:function size:0xA0
?CheckForEvents@LHAsyncTransport@@UAEHXZ = .text:0x10022FA0; // type:function size:0x30
?CheckForEvent@LHAsyncTransport@@UAEHW4LH_NETEVENT_TYPE@@@Z = .text:0x10022FD0; // type:function size:0x40
?Flush@LHAsyncTransport@@UAE?AW4LH_RETURN@@K@Z = .text:0x10023010; // type:function size:0x70
?WaitForEvent@LHAsyncTransport@@UAEHW4LH_NETEVENT_TYPE@@K@Z = .text:0x10023080; // type:function size:0x240
?WaitForEvent@LHAsyncTransport@@QAEHK@Z = .text:0x100232C0; // type:function size:0x70
?Read@LHAsyncTransport@@QAEPAVLHNetEvent@@XZ = .text:0x10023330; // type:function size:0x40
?Read@LHAsyncTransport@@UAEPAVLHNetEvent@@K@Z = .text:0x10023370; // type:function size:0x80
?Peek@LHAsyncTransport@@QAEPAVLHNetEvent@@XZ = .text:0x100233F0; // type:function size:0x30
?Peek@LHAsyncTransport@@UAEPAVLHNetEvent@@K@Z = .text:0x10023420; // type:function size:0x40
?ExtractEvent@LHAsyncTransport@@QAEPAVLHNetEvent@@W4LH_NETEVENT_TYPE@@@Z = .text:0x10023460; // type:function size:0x30
?ExtractEvent@LHAsyncTransport@@UAEPAVLHNetEvent@@W4LH_NETEVENT_TYPE@@K@Z = .text:0x10023490; // type:function size:0x40
?RawPeek@LHAsyncTransport@@QAEPAVLHNetEvent@@W4LH_NETEVENT_TYPE@@@Z = .text:0x100234D0; // type:function size:0x30
?RawPeek@LHAsyncTransport@@UAEPAVLHNetEvent@@W4LH_NETEVENT_TYPE@@K@Z = .text:0x10023500; // type:function size:0x40
?Write@LHAsyncTransport@@UAEXPAVLHNetEvent@@@Z = .text:0x10023540; // type:function size:0x40
?AddToIncomingEventQ@LHAsyncTransport@@UAEXPAVLHNetEvent@@@Z = .text:0x10023580; // type:function size:0x40
?AddToFrontOfIncomingEventQ@LHAsyncTransport@@UAEXPAVLHNetEvent@@@Z = .text:0x100235C0; // type:function size:0x40
?AddAtPositionInIncomingEventQ@LHAsyncTransport@@UAEXPAVLHNetEvent@@K@Z = .text:0x10023600; // type:function size:0x40
?Disconnect@LHTransportRemote@@UAE_NXZ = .text:0x10023640; // type:function size:0x40
?ClearAllData@LHTransportRemote@@QAEXXZ = .text:0x10023680; // type:function size:0x10
?Open@LHTransportRemote@@EAE?AW4LH_RETURN@@PAV?$LHDynamicQueue@PAVLHNetEvent@@@@0PAVLHTransportInfo@@@Z = .text:0x10023690; // type:function size:0x90
?Open@LHTransportRemote@@QAE?AW4LH_RETURN@@XZ = .text:0x10023720; // type:function size:0x10
?Close@LHTransportRemote@@UAEXXZ = .text:0x10023730; // type:function size:0x30
??1LHTransportRemote@@UAE@XZ = .text:0x10023760; // type:function size:0x50
??0LHTransportRemote@@QAE@XZ = .text:0x100237B0; // type:function size:0x20
lbl_100237D0 = .text:0x100237D0; // type:label
?RemoteTransportThread@LHTransportRemote@@QAEXXZ = .text:0x100237E0; // type:function size:0x100
?ProcessRemoteDataOrWrite@LHTransportRemote@@AAE?AW4LH_RETURN@@XZ = .text:0x100238E0; // type:function size:0x40
?ProcessRemoteData@LHTransportRemote@@AAE?AW4LH_RETURN@@XZ = .text:0x10023920; // type:function size:0x1A0
?WriteAllOutgoingQEvents@LHTransportRemote@@AAE?AW4LH_RETURN@@XZ = .text:0x10023AC0; // type:function size:0xA0
?WriteInternalCloseConnectionEvent@LHTransportRemote@@QAEXXZ = .text:0x10023B60; // type:function size:0x50
?RemoteShutdown@LHTransportTCP@@EAEXXZ = .text:0x10023BB0; // type:function size:0x20
?ClearAllData@LHTransportTCP@@AAEXXZ = .text:0x10023BD0; // type:function size:0x10
?ClearSocket@LHTransportTCP@@AAEXXZ = .text:0x10023BE0; // type:function size:0x30
?Open@LHTransportTCP@@UAE?AW4LH_RETURN@@PAV?$LHDynamicQueue@PAVLHNetEvent@@@@0PAVLHTransportInfo@@@Z = .text:0x10023C10; // type:function size:0xB0
?Open@LHTransportTCP@@QAE?AW4LH_RETURN@@PAVLHSocketTCP@@@Z = .text:0x10023CC0; // type:function size:0x10
?Close@LHTransportTCP@@UAEXXZ = .text:0x10023CD0; // type:function size:0x40
?GetTransportInfo@LHTransportTCP@@EAE?AW4LH_RETURN@@PAVLHTransportInfo@@H@Z = .text:0x10023D10; // type:function size:0x20
?GetRemoteDataAvailableSignal@LHTransportTCP@@EAEPAXXZ = .text:0x10023D30; // type:function size:0x10
??1LHTransportTCP@@UAE@XZ = .text:0x10023D40; // type:function size:0x50
??0LHTransportTCP@@QAE@XZ = .text:0x10023D90; // type:function size:0x20
?ReadyToRead@LHTransportTCP@@EAE_NXZ = .text:0x10023DB0; // type:function size:0x10
?ReadyToWrite@LHTransportTCP@@EAE_NXZ = .text:0x10023DC0; // type:function size:0x10
?FlushBuffer@LHTransportTCP@@EAE?AW4LH_RETURN@@XZ = .text:0x10023DD0; // type:function size:0x30
?Flushed@LHTransportTCP@@EAE_NXZ = .text:0x10023E00; // type:function size:0x40
?ReadOnePacket@LHTransportTCP@@EAE?AW4LH_RETURN@@PAPAVLHPacket@@PAVLHTransportInfo@@@Z = .text:0x10023E40; // type:function size:0x50
?WriteOnePacket@LHTransportTCP@@EAE?AW4LH_RETURN@@PAVLHPacket@@PAVLHTransportInfo@@@Z = .text:0x10023E90; // type:function size:0x10
?PingConnection@LHTransportTCP@@EAE?AW4LH_RETURN@@XZ = .text:0x10023EA0; // type:function size:0x50
?ClearAllData@LHTransportUDP@@AAEXXZ = .text:0x10023EF0; // type:function size:0x10
?RemoteShutdown@LHTransportUDP@@EAEXXZ = .text:0x10023F00; // type:function size:0x20
?ClearSocket@LHTransportUDP@@AAEXXZ = .text:0x10023F20; // type:function size:0x30
?GetTransportInfo@LHTransportUDP@@EAE?AW4LH_RETURN@@PAVLHTransportInfo@@H@Z = .text:0x10023F50; // type:function size:0x20
?Write@LHTransportUDP@@QAE?AW4LH_RETURN@@PAVLHNetEvent@@PAVLHTransportInfo@@@Z = .text:0x10023F70; // type:function size:0x40
?GetRemoteDataAvailableSignal@LHTransportUDP@@EAEPAXXZ = .text:0x10023FB0; // type:function size:0x20
?Open@LHTransportUDP@@UAE?AW4LH_RETURN@@PAV?$LHDynamicQueue@PAVLHNetEvent@@@@0PAVLHTransportInfo@@@Z = .text:0x10023FD0; // type:function size:0xC0
?Close@LHTransportUDP@@UAEXXZ = .text:0x10024090; // type:function size:0x40
??1LHTransportUDP@@UAE@XZ = .text:0x100240D0; // type:function size:0x50
??0LHTransportUDP@@QAE@XZ = .text:0x10024120; // type:function size:0x20
?ReadyToRead@LHTransportUDP@@EAE_NXZ = .text:0x10024140; // type:function size:0x10
?ReadyToWrite@LHTransportUDP@@EAE_NXZ = .text:0x10024150; // type:function size:0x10
?ReadOnePacket@LHTransportUDP@@EAE?AW4LH_RETURN@@PAPAVLHPacket@@PAVLHTransportInfo@@@Z = .text:0x10024160; // type:function size:0x20
?WriteOnePacket@LHTransportUDP@@EAE?AW4LH_RETURN@@PAVLHPacket@@PAVLHTransportInfo@@@Z = .text:0x10024180; // type:function size:0x20
?FlushBuffer@LHTransportUDP@@EAE?AW4LH_RETURN@@XZ = .text:0x100241A0; // type:function size:0x10
?Flushed@LHTransportUDP@@EAE_NXZ = .text:0x100241B0; // type:function size:0x10
?PingConnection@LHTransportUDP@@EAE?AW4LH_RETURN@@XZ = .text:0x100241C0; // type:function size:0x10
fn_100241D0 = .text:0x100241D0; // type:function size:0x80
fn_10024250 = .text:0x10024250; // type:function size:0x50
fn_100242A0 = .text:0x100242A0; // type:function size:0x20
?GetEncodedLength@LHTransportInfo@@UAEKKPAX@Z = .text:0x100242C0; // type:function size:0x10
?EncodeToBuffer@LHTransportInfo@@UAEPAEPAEKPAX@Z = .text:0x100242D0; // type:function size:0x40
?DecodeFromBuffer@LHTransportInfo@@UAEPAEPAE@Z = .text:0x10024310; // type:function size:0x40
?Create@LHTransportInfo@@SAPAV1@XZ = .text:0x10024350; // type:function size:0x30
?ClearObject@LHTransportInfo@@UAEXXZ = .text:0x10024380; // type:function size:0x20
fn_100243A0 = .text:0x100243A0; // type:function size:0x10
fn_100243B0 = .text:0x100243B0; // type:function size:0x20
lbl_100243E0 = .text:0x100243E0; // type:label
fn_0x100243e5 = .text:0x100243E5; // type:function size:0x6
_EnterCriticalSection = .text:0x100243F0; // type:function size:0x6
_LeaveCriticalSection = .text:0x100243F6; // type:function size:0x6
_GetTickCount = .text:0x100243FC; // type:function size:0x6
_WaitForMultipleObjects = .text:0x10024402; // type:function size:0x6
_CloseHandle = .text:0x10024408; // type:function size:0x6
_Sleep = .text:0x1002440E; // type:function size:0x6
_CreateEventA = .text:0x10024414; // type:function size:0x6
_InitializeCriticalSection = .text:0x1002441A; // type:function size:0x6
_SetEvent = .text:0x10024420; // type:function size:0x6
_ResetEvent = .text:0x10024426; // type:function size:0x6
_WaitForSingleObject = .text:0x1002442C; // type:function size:0x6
_DeleteCriticalSection = .text:0x10024432; // type:function size:0x6
_GetDiskFreeSpaceA = .text:0x10024438; // type:function size:0x6
_WriteFile = .text:0x1002443E; // type:function size:0x6
_CreateFileA = .text:0x10024444; // type:function size:0x6
_CreateDirectoryA = .text:0x1002444A; // type:function size:0x6
_GetComputerNameA = .text:0x10024450; // type:function size:0x6
_GetProcAddress = .text:0x10024456; // type:function size:0x6
_LoadLibraryA = .text:0x1002445C; // type:function size:0x6
_FreeLibrary = .text:0x10024462; // type:function size:0x6
_GetFileAttributesA = .text:0x10024468; // type:function size:0x6
_ReadFile = .text:0x1002446E; // type:function size:0x6
_SetFilePointer = .text:0x10024474; // type:function size:0x6
_GetFileSize = .text:0x1002447A; // type:function size:0x6
_SetFileAttributesA = .text:0x10024480; // type:function size:0x6
_MultiByteToWideChar = .text:0x10024486; // type:function size:0x6
_WideCharToMultiByte = .text:0x1002448C; // type:function size:0x6
_GetVersionExA = .text:0x10024492; // type:function size:0x6
_SetCommTimeouts = .text:0x10024498; // type:function size:0x6
_SetCommState = .text:0x1002449E; // type:function size:0x6
_GetCommState = .text:0x100244A4; // type:function size:0x6
_PurgeComm = .text:0x100244AA; // type:function size:0x6
_SetupComm = .text:0x100244B0; // type:function size:0x6
_SetCommMask = .text:0x100244B6; // type:function size:0x6
_EscapeCommFunction = .text:0x100244BC; // type:function size:0x6
_ClearCommError = .text:0x100244C2; // type:function size:0x6
_SetLastError = .text:0x100244C8; // type:function size:0x6
_GlobalAlloc = .text:0x100244CE; // type:function size:0x6
_GlobalFree = .text:0x100244D4; // type:function size:0x6
_wsprintfA = .text:0x100244DA; // type:function size:0x6
_GetUserNameW = .text:0x100244E0; // type:function size:0x6
_RegCloseKey = .text:0x100244E6; // type:function size:0x6
_RegEnumKeyA = .text:0x100244EC; // type:function size:0x6
_RegQueryInfoKeyA = .text:0x100244F2; // type:function size:0x6
_RegOpenKeyA = .text:0x100244F8; // type:function size:0x6
_RegDeleteKeyA = .text:0x100244FE; // type:function size:0x6
lbl_10024504 = .text:0x10024504; // type:label
lbl_10024524 = .text:0x10024524; // type:label
fn_10024536 = .text:0x10024536; // type:function size:0xC
fn_10024548 = .text:0x10024548; // type:function size:0xC
fn_1002455A = .text:0x1002455A; // type:function size:0xC
fn_10024566 = .text:0x10024566; // type:function size:0x6
fn_1002456C = .text:0x1002456C; // type:function size:0xC
fn_10024578 = .text:0x10024578; // type:function size:0x6
fn_1002457E = .text:0x1002457E; // type:function size:0xC
fn_10024590 = .text:0x10024590; // type:function size:0xC
fn_1002459C = .text:0x1002459C; // type:function size:0x12
lbl_100245A2 = .text:0x100245A2; // type:label
fn_100245B4 = .text:0x100245B4; // type:function size:0xC
fn_100245C6 = .text:0x100245C6; // type:function size:0xC
fn_100245D8 = .text:0x100245D8; // type:function size:0xC
fn_100245EA = .text:0x100245EA; // type:function size:0xC
fn_100245FC = .text:0x100245FC; // type:function size:0xC
fn_1002460E = .text:0x1002460E; // type:function size:0xC
fn_10024620 = .text:0x10024620; // type:function size:0xC
fn_10024632 = .text:0x10024632; // type:function size:0xC
fn_10024644 = .text:0x10024644; // type:function size:0xC
fn_10024656 = .text:0x10024656; // type:function size:0xC
fn_10024668 = .text:0x10024668; // type:function size:0xC
fn_1002467A = .text:0x1002467A; // type:function size:0xC
fn_1002468C = .text:0x1002468C; // type:function size:0xC
fn_1002469E = .text:0x1002469E; // type:function size:0xC
fn_100246B0 = .text:0x100246B0; // type:function size:0xC
fn_100246C2 = .text:0x100246C2; // type:function size:0xC
fn_100246D4 = .text:0x100246D4; // type:function size:0xC
fn_100246E6 = .text:0x100246E6; // type:function size:0xC
fn_100246F8 = .text:0x100246F8; // type:function size:0xC
fn_1002470A = .text:0x1002470A; // type:function size:0xC
fn_1002471C = .text:0x1002471C; // type:function size:0x1F9
fn_100249A5 = .text:0x100249A5; // type:function size:0x2B
fn_100249D0 = .text:0x100249D0; // type:function size:0xA0
fn_10024A70 = .text:0x10024A70; // type:function size:0xB0
fn_10024B20 = .text:0x10024B20; // type:function size:0x20
fn_10024B40 = .text:0x10024B40; // type:function size:0x50
fn_10024B90 = .text:0x10024B90; // type:function size:0x50
fn_10024BE0 = .text:0x10024BE0; // type:function size:0x110
fn_10024CF0 = .text:0x10024CF0; // type:function size:0x20
fn_10024D10 = .text:0x10024D10; // type:function size:0x3DA
lbl_10024D67 = .text:0x10024D67; // type:label
lbl_10024DDE = .text:0x10024DDE; // type:label
lbl_10024E55 = .text:0x10024E55; // type:label
lbl_10024EC2 = .text:0x10024EC2; // type:label
lbl_10024EF7 = .text:0x10024EF7; // type:label
lbl_10024F31 = .text:0x10024F31; // type:label
lbl_10024F6B = .text:0x10024F6B; // type:label
lbl_10024FD0 = .text:0x10024FD0; // type:label
lbl_10025008 = .text:0x10025008; // type:label
lbl_10025045 = .text:0x10025045; // type:label
lbl_1002507E = .text:0x1002507E; // type:label
lbl_100250C6 = .text:0x100250C6; // type:label
lbl_100250F3 = .text:0x100250F3; // type:label
lbl_100250FD = .text:0x100250FD; // type:label
lbl_10025108 = .text:0x10025108; // type:label
fn_100252D0 = .text:0x100252D0; // type:function size:0x30
fn_10025300 = .text:0x10025300; // type:function size:0x200
fn_10025600 = .text:0x10025600; // type:function size:0x80
fn_10025750 = .text:0x10025750; // type:function size:0x2B0
_putShortMSB = .text:0x10025A00; // type:function size:0x30 scope:local
_flush_pending = .text:0x10025A30; // type:function size:0x80 scope:local
fn_10025AB0 = .text:0x10025AB0; // type:function size:0xB0
_lm_init = .text:0x10025D10; // type:function size:0xA0 scope:local
_deflate_stored = .text:0x10025DB0; // type:function size:0x160 scope:local
_fill_window = .text:0x10025F10; // type:function size:0x130 scope:local
_read_buf = .text:0x10026040; // type:function size:0x80 scope:local
_deflate_fast = .text:0x100260C0; // type:function size:0x330 scope:local
_longest_match = .text:0x100263F0; // type:function size:0x170 scope:local
_deflate_slow = .text:0x10026560; // type:function size:0x430 scope:local
_inflate_blocks_reset = .text:0x10026990; // type:function size:0x80 scope:global
_inflate_blocks_new = .text:0x10026A10; // type:function size:0xA0 scope:global
lbl_10026B04 = .text:0x10026B04; // type:label
lbl_10026B68 = .text:0x10026B68; // type:label
lbl_10026B86 = .text:0x10026B86; // type:label
lbl_10026BE5 = .text:0x10026BE5; // type:label
lbl_10026BFA = .text:0x10026BFA; // type:label
lbl_10026C6D = .text:0x10026C6D; // type:label
lbl_10026D9C = .text:0x10026D9C; // type:label
lbl_10026E45 = .text:0x10026E45; // type:label
lbl_10026F2E = .text:0x10026F2E; // type:label
lbl_1002717E = .text:0x1002717E; // type:label
lbl_1002729F = .text:0x1002729F; // type:label
lbl_1002763C = .text:0x1002763C; // type:label
lbl_100276A3 = .text:0x100276A3; // type:label
lbl_100276E7 = .text:0x100276E7; // type:label
lbl_10027770 = .text:0x10027770; // type:label
lbl_10027798 = .text:0x10027798; // type:label
fn_100277B0 = .text:0x100277B0; // type:function size:0x40
_adler32 = .text:0x10027840; // type:function size:0x130 scope:global
lbl_100279A0 = .text:0x100279A0; // type:label
lbl_100279C0 = .text:0x100279C0; // type:label
fn_100279D0 = .text:0x100279D0; // type:function size:0x70
fn_10027A40 = .text:0x10027A40; // type:function size:0x10
_init_block = .text:0x10027A50; // type:function size:0x70 scope:local
fn_10027AC0 = .text:0x10027AC0; // type:function size:0xA0
fn_10027B60 = .text:0x10027B60; // type:function size:0x260
__tr_flush_block = .text:0x10027DC0; // type:function size:0x1F0 scope:global
_build_tree = .text:0x10027FB0; // type:function size:0x240 scope:local
_pqdownheap = .text:0x100281F0; // type:function size:0xE0 scope:local
_gen_bitlen = .text:0x100282D0; // type:function size:0x230 scope:local
_gen_codes = .text:0x10028500; // type:function size:0x80 scope:local
_build_bl_tree = .text:0x10028580; // type:function size:0x70 scope:local
_scan_tree = .text:0x100285F0; // type:function size:0xF0 scope:local
_send_all_trees = .text:0x100286E0; // type:function size:0x270 scope:local
_send_tree = .text:0x10028950; // type:function size:0x580 scope:local
_compress_block = .text:0x10028F80; // type:function size:0x440 scope:local
_set_data_type = .text:0x100293C0; // type:function size:0x80 scope:local
_bi_reverse = .text:0x10029440; // type:function size:0x20 scope:local
_bi_flush = .text:0x10029460; // type:function size:0x90 scope:local
_bi_windup = .text:0x100294F0; // type:function size:0x80 scope:local
_copy_block = .text:0x10029570; // type:function size:0xA0 scope:local
lbl_100296A3 = .text:0x100296A3; // type:label
lbl_10029765 = .text:0x10029765; // type:label
lbl_10029859 = .text:0x10029859; // type:label
lbl_100298DA = .text:0x100298DA; // type:label
lbl_10029987 = .text:0x10029987; // type:label
lbl_100299FA = .text:0x100299FA; // type:label
lbl_10029B27 = .text:0x10029B27; // type:label
lbl_10029CB8 = .text:0x10029CB8; // type:label
lbl_10029D27 = .text:0x10029D27; // type:label
lbl_10029D5F = .text:0x10029D5F; // type:label
lbl_10029DD0 = .text:0x10029DD0; // type:label
fn_10029E00 = .text:0x10029E00; // type:function size:0x20
?GetCode@LHLogger@@SAKXZ = .text:0x1002AA30; // type:function size:0x6
?GetText@LHLogger@@SAPADXZ = .text:0x1002AA36; // type:function size:0x6
?ChecksumBlock@LHVersion@@SAKPAEG@Z = .text:0x1002AA3C; // type:function size:0x6
?GetMajorMinorULONG@LHVersion@@SA?AW4LH_RETURN@@PADPAK@Z = .text:0x1002AA42; // type:function size:0x6
??0LHVersion@@QAE@PAULHVersionBlock@@@Z = .text:0x1002AA48; // type:function size:0x6
fn_0x1002aa4e = .text:0x1002AA4E; // type:function size:0x6
?_lhbeginthread@@YAKPADP6AXPAX@ZI1J@Z = .text:0x1002AA54; // type:function size:0x6
?LogS@LHLogger@@SAXPAD0K0ZZ = .text:0x1002AA5A; // type:function size:0x6
??0LHSPrintf@@QAA@PADZZ = .text:0x1002AA60; // type:function size:0x6
?RegistryRetrieveULong@@YA?AW4LH_RETURN@@PAD0PAK@Z = .text:0x1002AA66; // type:function size:0x6
?GetFileName@LHLogger@@SAPADPAD@Z = .text:0x1002AA6C; // type:function size:0x6
?AppendString@LHSPrintf@@QAAXPADZZ = .text:0x1002AA72; // type:function size:0x6
?RegistryRetrieveString@@YA?AW4LH_RETURN@@PAD00PAK@Z = .text:0x1002AA78; // type:function size:0x6
?LHRegistrySetCurrentKey@@YAXW4LH_REG_KEY_TYPE@@@Z = .text:0x1002AA7E; // type:function size:0x6
?LHRegistryGetCurrentKey@@YA?AW4LH_REG_KEY_TYPE@@XZ = .text:0x1002AA84; // type:function size:0x6
?EncryptBlock@LHVersion@@SAXPAEG@Z = .text:0x1002AA8A; // type:function size:0x6
?RegistryRetrieveWString@@YA?AW4LH_RETURN@@PAD0PAGPAK@Z = .text:0x1002AA90; // type:function size:0x6
?RegistrySetWString@@YA?AW4LH_RETURN@@PAD0PAG@Z = .text:0x1002AA96; // type:function size:0x6
?RegistryCheckKey@@YAHPAD@Z = .text:0x1002AA9C; // type:function size:0x6
?RegistryRetrieveDouble@@YA?AW4LH_RETURN@@PAD0PAN@Z = .text:0x1002AAA2; // type:function size:0x6
?RegistryRetrieveData@@YA?AW4LH_RETURN@@PAD0PAEPAK@Z = .text:0x1002AAA8; // type:function size:0x6
?RegistrySetULong@@YA?AW4LH_RETURN@@PAD0K@Z = .text:0x1002AAAE; // type:function size:0x6
?RegistrySetString@@YA?AW4LH_RETURN@@PAD00@Z = .text:0x1002AAB4; // type:function size:0x6
?RegistrySetDouble@@YA?AW4LH_RETURN@@PAD0N@Z = .text:0x1002AABA; // type:function size:0x6
?RegistrySetData@@YA?AW4LH_RETURN@@PAD0PAEK@Z = .text:0x1002AAC0; // type:function size:0x6
?SetString@LHSPrintf@@QAAXPADZZ = .text:0x1002AAC6; // type:function size:0x6
lbl_1002AACC = .text:0x1002AACC; // type:label
?_CallMemberFunction0@@YGXPAX0@Z = .text:0x1002AB09; // type:function scope:global
lbl_1002AB46 = .text:0x1002AB46; // type:label
lbl_1002AC11 = .text:0x1002AC11; // type:label
lbl_1002ACBE = .text:0x1002ACBE; // type:label
lbl_1002ACEC = .text:0x1002ACEC; // type:label
__global_unwind2 = .text:0x1002ADDC; // type:function scope:global
lbl_1002ADF4 = .text:0x1002ADF4; // type:label
__unwind_handler = .text:0x1002ADFC; // type:function scope:local
__local_unwind2 = .text:0x1002AE1E; // type:function scope:global
__abnormal_termination = .text:0x1002AE86; // type:function scope:global
fn_1002AEA9 = .text:0x1002AEA9; // type:function size:0x9
__NLG_Notify = .text:0x1002AEB2; // type:function scope:global
fn_1002AECA = .text:0x1002AECA; // type:function size:0xB
??_M@YGXPAXIHP6EX0@Z@Z = .text:0x1002AED5; // type:function scope:global
fn_1002AF3D = .text:0x1002AF3D; // type:function
?__ArrayUnwind@@YGXPAXIHP6EX0@Z@Z = .text:0x1002AF55; // type:function scope:global
fn_1002AF91 = .text:0x1002AF91; // type:function size:0xA
fn_1002AF9B = .text:0x1002AF9B; // type:function size:0x18
fn_1002AFB3 = .text:0x1002AFB3; // type:function size:0x1D
_strncpy = .text:0x1002AFD0; // type:function scope:global
??_L@YGXPAXIHP6EX0@Z1@Z = .text:0x1002B0CE; // type:function scope:global
fn_1002B138 = .text:0x1002B138; // type:function
_free = .text:0x1002B150; // type:function scope:global
fn_1002B1BA = .text:0x1002B1BA; // type:function size:0x9
fn_1002B212 = .text:0x1002B212; // type:function size:0x9
_malloc = .text:0x1002B239; // type:function scope:global
__nh_malloc = .text:0x1002B24B; // type:function scope:global
__heap_alloc = .text:0x1002B277; // type:function scope:global
fn_1002B2DE = .text:0x1002B2DE; // type:function size:0x9
fn_1002B33A = .text:0x1002B33A; // type:function size:0x3
fn_1002B33D = .text:0x1002B33D; // type:function size:0x9
??2@YAPAXI@Z = .text:0x1002B373; // type:function scope:global
_wcsncpy = .text:0x1002B381; // type:function scope:global
_srand = .text:0x1002B3BE; // type:function scope:global
_rand = .text:0x1002B3CB; // type:function scope:global
__onexit = .text:0x1002B3ED; // type:function scope:global
_atexit = .text:0x1002B46B; // type:function scope:global
___onexitinit = .text:0x1002B47D; // type:function scope:global
fn_1002B4AC = .text:0x1002B4AC; // type:function size:0x17
fn_1002B4C3 = .text:0x1002B4C3; // type:function size:0x1
__cfltcvt_init = .text:0x1002B4C4; // type:function scope:global
__ftol = .text:0x1002B50C; // type:function scope:global
_sprintf = .text:0x1002B533; // type:function scope:global
_time = .text:0x1002B585; // type:function scope:global
fn_1002B661 = .text:0x1002B661; // type:function size:0x3F
_strstr = .text:0x1002B6A0; // type:function scope:global
fn_1002B720 = .text:0x1002B720; // type:function size:0x2F
__fread_lk = .text:0x1002B74F; // type:function scope:global
_ftell = .text:0x1002B837; // type:function scope:global
__ftell_lk = .text:0x1002B859; // type:function scope:global
_fseek = .text:0x1002B9BA; // type:function scope:global
__fseek_lk = .text:0x1002B9E6; // type:function scope:global
_fclose = .text:0x1002BA73; // type:function scope:global
__fclose_lk = .text:0x1002BAA4; // type:function scope:global
fn_1002BAF0 = .text:0x1002BAF0; // type:function size:0x2F
__fwrite_lk = .text:0x1002BB1F; // type:function scope:global
__fsopen = .text:0x1002BC29; // type:function scope:global
fn_1002BC5A = .text:0x1002BC5A; // type:function size:0x16
__chkstk = .text:0x1002BC70; // type:function scope:global
_strncmp = .text:0x1002BCA0; // type:function scope:global
__strlwr = .text:0x1002BCD8; // type:function scope:global
_atol = .text:0x1002BE0C; // type:function scope:global
fn_1002BE97 = .text:0x1002BE97; // type:function size:0xB
_iswspace = .text:0x1002BFBD; // type:function scope:global
_wcscpy = .text:0x1002C050; // type:function scope:global
_fprintf = .text:0x1002C075; // type:function scope:global
_wcslen = .text:0x1002CDC3; // type:function scope:global
_calloc = .text:0x1002CDE0; // type:function scope:global
fn_1002CE74 = .text:0x1002CE74; // type:function size:0x5
fn_1002CE79 = .text:0x1002CE79; // type:function size:0x9
fn_1002CEFD = .text:0x1002CEFD; // type:function size:0x5
fn_1002CF02 = .text:0x1002CF02; // type:function size:0x9
_isxdigit = .text:0x1002CFC3; // type:function scope:global
_isspace = .text:0x1002CFF0; // type:function scope:global
_isalnum = .text:0x1002D040; // type:function scope:global
_toupper = .text:0x1002D189; // type:function scope:global
__toupper_lk = .text:0x1002D1F8; // type:function scope:global
_wcscmp = .text:0x1002D2C4; // type:function scope:global
_tolower = .text:0x1002D301; // type:function scope:global
__tolower_lk = .text:0x1002D370; // type:function scope:global
___tzset = .text:0x1002D63B; // type:function scope:global
__tzset_lk = .text:0x1002D67F; // type:function scope:local
__isindst = .text:0x1002D906; // type:function scope:global
__isindst_lk = .text:0x1002D927; // type:function scope:local
_cvtdate = .text:0x1002DAD3; // type:function scope:local
__CRT_INIT@12 = .text:0x1002DCC8; // type:function scope:global
__DllMainCRTStartup@12 = .text:0x1002DDA1; // type:function
__amsg_exit = .text:0x1002DE3E; // type:function scope:global
fn_1002E22D = .text:0x1002E22D; // type:function size:0xA
fn_1002E237 = .text:0x1002E237; // type:function size:0x2D
fn_1002E264 = .text:0x1002E264; // type:function size:0x136
fn_1002E39A = .text:0x1002E39A; // type:function size:0xA
fn_1002E3A4 = .text:0x1002E3A4; // type:function size:0x18
fn_1002E3BC = .text:0x1002E3BC; // type:function size:0x54
?ExFilterRethrow@@YAHPAU_EXCEPTION_POINTERS@@@Z = .text:0x1002E410; // type:function scope:local
fn_1002E5F2 = .text:0x1002E5F2; // type:function size:0x4
fn_1002E5F6 = .text:0x1002E5F6; // type:function size:0x8
?_DestructExceptionObject@@YAXPAUEHExceptionRecord@@E@Z = .text:0x1002E5FE; // type:function scope:global
fn_1002E654 = .text:0x1002E654; // type:function size:0x9
fn_1002E65D = .text:0x1002E65D; // type:function size:0x33
fn_1002E690 = .text:0x1002E690; // type:function size:0x4C
__mtinit = .text:0x1002E6DC; // type:function scope:global
__mtterm = .text:0x1002E730; // type:function scope:global
__initptd = .text:0x1002E74E; // type:function scope:global
__getptd = .text:0x1002E761; // type:function scope:global
__freeptd = .text:0x1002E7C8; // type:function scope:global
_GetCurrentThreadId = .text:0x1002E868; // type:function size:0x6
_GetCurrentThread = .text:0x1002E86E; // type:function size:0x6
lbl_1002E874 = .text:0x1002E874; // type:label
fn_1002E8BC = .text:0x1002E8BC; // type:function size:0x4
fn_1002E8C0 = .text:0x1002E8C0; // type:function size:0x10
fn_1002E8D0 = .text:0x1002E8D0; // type:function
fn_1002E8ED = .text:0x1002E8ED; // type:function size:0x3D
fn_1002E92A = .text:0x1002E92A; // type:function size:0x4
fn_1002E92E = .text:0x1002E92E; // type:function size:0x10
fn_1002E93E = .text:0x1002E93E; // type:function
__except_handler3 = .text:0x1002E94C; // type:function scope:global
__GetLinkerVersion = .text:0x1002EA24; // type:function size:0x2D scope:global
___heap_select = .text:0x1002EA51; // type:function size:0x148 scope:global
__heap_init = .text:0x1002EB99; // type:function scope:global
__heap_term = .text:0x1002EBF6; // type:function scope:global
___sbh_heap_init = .text:0x1002ED70; // type:function size:0x48 scope:global
___sbh_find_block = .text:0x1002EDB8; // type:function scope:global
___sbh_free_block = .text:0x1002EDE3; // type:function size:0x329 scope:global
___sbh_alloc_block = .text:0x1002F10C; // type:function scope:global
___sbh_alloc_new_region = .text:0x1002F415; // type:function scope:global
___sbh_alloc_new_group = .text:0x1002F4C6; // type:function scope:global
___sbh_resize_block = .text:0x1002F5C1; // type:function scope:global
___old_sbh_new_region = .text:0x1002FCD9; // type:function size:0x144 scope:global
___old_sbh_release_region = .text:0x1002FE1D; // type:function size:0x56 scope:global
___old_sbh_decommit_pages = .text:0x1002FE73; // type:function size:0xC2 scope:global
___old_sbh_find_block = .text:0x1002FF35; // type:function size:0x57 scope:global
___old_sbh_free_block = .text:0x1002FF8C; // type:function size:0x45 scope:global
___old_sbh_alloc_block = .text:0x1002FFD1; // type:function size:0x208 scope:global
___old_sbh_alloc_block_from_page = .text:0x100301D9; // type:function size:0x124 scope:global
fn_100302FD = .text:0x100302FD; // type:function size:0xA9
__mtinitlocks = .text:0x10030504; // type:function scope:global
__mtdeletelocks = .text:0x1003052D; // type:function scope:global
__lock = .text:0x10030599; // type:function scope:global
__unlock = .text:0x100305FA; // type:function scope:global
__callnewh = .text:0x10030651; // type:function scope:global
__cinit = .text:0x1003066C; // type:function scope:global
__exit = .text:0x100306AA; // type:function scope:global
__cexit = .text:0x100306BB; // type:function scope:global
_doexit = .text:0x100306D9; // type:function scope:local
__lockexit = .text:0x1003077E; // type:function scope:global
__unlockexit = .text:0x10030787; // type:function scope:global
__initterm = .text:0x10030790; // type:function scope:local
_realloc = .text:0x100307AA; // type:function scope:global
fn_1003092D = .text:0x1003092D; // type:function size:0x8
fn_10030935 = .text:0x10030935; // type:function size:0x9
fn_10030A7D = .text:0x10030A7D; // type:function size:0x6
fn_10030A83 = .text:0x10030A83; // type:function size:0xB
__msize = .text:0x10030AD9; // type:function scope:global
fn_10030B40 = .text:0x10030B40; // type:function size:0x3
fn_10030B43 = .text:0x10030B43; // type:function
fn_10030BBB = .text:0x10030BBB; // type:function size:0x3
fn_10030BBE = .text:0x10030BBE; // type:function
__setdefaultprecision = .text:0x10030BC7; // type:function scope:global
__ms_p5_mp_test_fdiv = .text:0x10030C17; // type:function scope:global
__forcdecpt = .text:0x10030C40; // type:function scope:global
__cropzeros = .text:0x10030C9A; // type:function scope:global
__positive = .text:0x10030CE8; // type:function scope:global
__fassign = .text:0x10030D00; // type:function scope:global
__cftoe = .text:0x10030D3E; // type:function scope:global
__cftoe2 = .text:0x10030D9F; // type:function scope:local
__cftof = .text:0x10030E61; // type:function scope:global
__cftof2 = .text:0x10030EB6; // type:function scope:local
__cftog = .text:0x10030F5D; // type:function scope:global
__cfltcvt = .text:0x10030FF0; // type:function scope:global
__shift = .text:0x10031041; // type:function scope:local
__flsbuf = .text:0x10031066; // type:function scope:global
__output = .text:0x1003117E; // type:function scope:global
lbl_100311F3 = .text:0x100311F3; // type:label
lbl_1003120E = .text:0x1003120E; // type:label
lbl_1003125A = .text:0x1003125A; // type:label
lbl_10031291 = .text:0x10031291; // type:label
lbl_10031299 = .text:0x10031299; // type:label
lbl_100312CE = .text:0x100312CE; // type:label
lbl_1003131D = .text:0x1003131D; // type:label
lbl_10031361 = .text:0x10031361; // type:label
lbl_1003189F = .text:0x1003189F; // type:label
___loctotime_t = .text:0x10031988; // type:function scope:global
__input = .text:0x10031A4A; // type:function scope:global
__hextodec = .text:0x1003246F; // type:function scope:local
__inc = .text:0x100324A6; // type:function scope:local
__un_inc = .text:0x100324C0; // type:function scope:local
__whiteout = .text:0x100324D7; // type:function scope:local
_strlen = .text:0x10032500; // type:function scope:global
_strchr = .text:0x10032590; // type:function scope:global
___initstdio = .text:0x1003264C; // type:function scope:global
___endstdio = .text:0x100326F4; // type:function scope:global
__lock_file = .text:0x10032708; // type:function scope:global
__lock_file2 = .text:0x10032737; // type:function scope:global
__unlock_file = .text:0x1003275A; // type:function scope:global
__unlock_file2 = .text:0x10032789; // type:function scope:global
__filbuf = .text:0x100327AC; // type:function scope:global
__read = .text:0x10032888; // type:function scope:global
__read_lk = .text:0x100328ED; // type:function scope:global
_memcpy = .text:0x10032AD0; // type:function scope:global
lbl_10032B30 = .text:0x10032B30; // type:label
lbl_10032B40 = .text:0x10032B40; // type:label
lbl_10032B6C = .text:0x10032B6C; // type:label
lbl_10032B90 = .text:0x10032B90; // type:label
lbl_10032BAC = .text:0x10032BAC; // type:label
lbl_10032BCC = .text:0x10032BCC; // type:label
lbl_10032BD4 = .text:0x10032BD4; // type:label
lbl_10032BDC = .text:0x10032BDC; // type:label
lbl_10032BE4 = .text:0x10032BE4; // type:label
lbl_10032BEC = .text:0x10032BEC; // type:label
lbl_10032BF4 = .text:0x10032BF4; // type:label
lbl_10032BFC = .text:0x10032BFC; // type:label
lbl_10032C0F = .text:0x10032C0F; // type:label
lbl_10032C18 = .text:0x10032C18; // type:label
lbl_10032C28 = .text:0x10032C28; // type:label
lbl_10032C30 = .text:0x10032C30; // type:label
lbl_10032C3C = .text:0x10032C3C; // type:label
lbl_10032C50 = .text:0x10032C50; // type:label
lbl_10032CB8 = .text:0x10032CB8; // type:label
lbl_10032CC8 = .text:0x10032CC8; // type:label
lbl_10032CE8 = .text:0x10032CE8; // type:label
lbl_10032D10 = .text:0x10032D10; // type:label
lbl_10032D60 = .text:0x10032D60; // type:label
lbl_10032D64 = .text:0x10032D64; // type:label
lbl_10032D6C = .text:0x10032D6C; // type:label
lbl_10032D74 = .text:0x10032D74; // type:label
lbl_10032D7C = .text:0x10032D7C; // type:label
lbl_10032D84 = .text:0x10032D84; // type:label
lbl_10032D8C = .text:0x10032D8C; // type:label
lbl_10032D94 = .text:0x10032D94; // type:label
lbl_10032DA7 = .text:0x10032DA7; // type:label
lbl_10032DB0 = .text:0x10032DB0; // type:label
lbl_10032DC0 = .text:0x10032DC0; // type:label
lbl_10032DC8 = .text:0x10032DC8; // type:label
lbl_10032DD8 = .text:0x10032DD8; // type:label
lbl_10032DEC = .text:0x10032DEC; // type:label
__dosmaperr = .text:0x10032E05; // type:function scope:global
__errno = .text:0x10032E78; // type:function scope:global
___doserrno = .text:0x10032E81; // type:function scope:global
__ioinit = .text:0x10032E8A; // type:function scope:global
__ioterm = .text:0x10033046; // type:function scope:global
__lseek = .text:0x1003309A; // type:function scope:global
__lseek_lk = .text:0x100330FF; // type:function scope:global
__fflush_lk = .text:0x100331A1; // type:function scope:global
__flush = .text:0x100331CF; // type:function scope:global
__flushall = .text:0x1003322B; // type:function scope:global
_flsall = .text:0x10033234; // type:function scope:local
__close = .text:0x100332D8; // type:function scope:global
__close_lk = .text:0x10033335; // type:function scope:global
__freebuf = .text:0x100333B8; // type:function scope:global
__write = .text:0x100333E3; // type:function scope:global
__write_lk = .text:0x10033448; // type:function scope:global
__openfile = .text:0x100335D3; // type:function scope:global
__getstream = .text:0x10033743; // type:function scope:global
_strcpy = .text:0x10033810; // type:function scope:global
__mbscat = .text:0x10033820; // type:function scope:global
___crtLCMapStringA = .text:0x10033900; // type:function scope:global
fn_10033A10 = .text:0x10033A10; // type:function size:0x4
fn_10033A14 = .text:0x10033A14; // type:function size:0xB0
fn_10033AC4 = .text:0x10033AC4; // type:function size:0x4
fn_10033AC8 = .text:0x10033AC8; // type:function size:0x5C
_strncnt = .text:0x10033B24; // type:function size:0x2B scope:local
fn_10034081 = .text:0x10034081; // type:function size:0x3
__isctype = .text:0x100341C8; // type:function scope:global
__allmul = .text:0x10034240; // type:function scope:global
_iswctype = .text:0x10034274; // type:function scope:global
__stbuf = .text:0x100342D6; // type:function scope:global
__ftbuf = .text:0x10034363; // type:function scope:global
fn_10034390 = .text:0x10034390; // type:function size:0xD0
_memset = .text:0x10034460; // type:function scope:global
_strcmp = .text:0x10034620; // type:function scope:global
__getenv_lk = .text:0x100346C5; // type:function scope:global
___crtsetenv = .text:0x10034998; // type:function scope:global
_findenv = .text:0x10034B1F; // type:function scope:local
_copy_environ = .text:0x10034B77; // type:function scope:local
__setenvp = .text:0x10034BDE; // type:function scope:global
__setargv = .text:0x10034C97; // type:function scope:global
_parse_cmdline = .text:0x10034D30; // type:function scope:local
___crtGetEnvironmentStringsA = .text:0x10034EE4; // type:function scope:global
_DllMain@12 = .text:0x10035016; // type:function scope:global
__FF_MSGBANNER = .text:0x1003501C; // type:function scope:global
__NMSG_WRITE = .text:0x10035055; // type:function scope:global
?__CxxUnhandledExceptionFilter@@YGJPAU_EXCEPTION_POINTERS@@@Z = .text:0x100351D9; // type:function scope:global
fn_1003521F = .text:0x1003521F; // type:function size:0x11
fn_10035230 = .text:0x10035230; // type:function size:0xD
?_ValidateExecute@@YAHP6GHXZ@Z = .text:0x10035275; // type:function scope:global
_memmove = .text:0x10035290; // type:function scope:global
lbl_100352F0 = .text:0x100352F0; // type:label
lbl_10035300 = .text:0x10035300; // type:label
lbl_1003532C = .text:0x1003532C; // type:label
lbl_10035350 = .text:0x10035350; // type:label
lbl_1003536C = .text:0x1003536C; // type:label
lbl_1003538C = .text:0x1003538C; // type:label
lbl_10035394 = .text:0x10035394; // type:label
lbl_1003539C = .text:0x1003539C; // type:label
lbl_100353A4 = .text:0x100353A4; // type:label
lbl_100353AC = .text:0x100353AC; // type:label
lbl_100353B4 = .text:0x100353B4; // type:label
lbl_100353BC = .text:0x100353BC; // type:label
lbl_100353CF = .text:0x100353CF; // type:label
lbl_100353D8 = .text:0x100353D8; // type:label
lbl_100353E8 = .text:0x100353E8; // type:label
lbl_100353F0 = .text:0x100353F0; // type:label
lbl_100353FC = .text:0x100353FC; // type:label
lbl_10035410 = .text:0x10035410; // type:label
lbl_10035478 = .text:0x10035478; // type:label
lbl_10035488 = .text:0x10035488; // type:label
lbl_100354A8 = .text:0x100354A8; // type:label
lbl_100354D0 = .text:0x100354D0; // type:label
lbl_10035520 = .text:0x10035520; // type:label
lbl_10035524 = .text:0x10035524; // type:label
lbl_1003552C = .text:0x1003552C; // type:label
lbl_10035534 = .text:0x10035534; // type:label
lbl_1003553C = .text:0x1003553C; // type:label
lbl_10035544 = .text:0x10035544; // type:label
lbl_1003554C = .text:0x1003554C; // type:label
lbl_10035554 = .text:0x10035554; // type:label
lbl_10035567 = .text:0x10035567; // type:label
lbl_10035570 = .text:0x10035570; // type:label
lbl_10035580 = .text:0x10035580; // type:label
lbl_10035588 = .text:0x10035588; // type:label
lbl_10035598 = .text:0x10035598; // type:label
lbl_100355AC = .text:0x100355AC; // type:label
__spawnv = .text:0x10035754; // type:function scope:global
__spawnve = .text:0x1003576B; // type:function scope:global
__control87 = .text:0x100359AE; // type:function scope:global
__controlfp = .text:0x100359E3; // type:function scope:global
__abstract_cw = .text:0x10035A24; // type:function scope:local
__hw_cw = .text:0x10035AB6; // type:function scope:local
__ZeroTail = .text:0x10035B74; // type:function scope:global
__IncMan = .text:0x10035BBD; // type:function scope:global
__RoundMan = .text:0x10035C13; // type:function scope:global
__CopyMan = .text:0x10035C9F; // type:function scope:global
__FillZeroMan = .text:0x10035CBA; // type:function scope:global
__IsZeroMan = .text:0x10035CC6; // type:function scope:global
__ShrMan = .text:0x10035CE1; // type:function scope:global
__ld12cvt = .text:0x10035D6E; // type:function scope:global
__ld12tod = .text:0x10035EDA; // type:function size:0x16 scope:global
__ld12tof = .text:0x10035EF0; // type:function size:0x16 scope:global
__atodbl = .text:0x10035F80; // type:function scope:global
__atoflt = .text:0x10035FDB; // type:function scope:global
__fptostr = .text:0x10036008; // type:function scope:global
__fltout2 = .text:0x1003607F; // type:function scope:global
___dtold = .text:0x100360DB; // type:function scope:global
fn_10036191 = .text:0x10036191; // type:function size:0x9
__getbuf = .text:0x1003619A; // type:function scope:global
__isatty = .text:0x100361DE; // type:function scope:global
_mbtowc = .text:0x100363B5; // type:function scope:global
__mbstowcs_lk = .text:0x10036412; // type:function scope:global
__allshl = .text:0x100364E0; // type:function scope:global
__ungetc_lk = .text:0x10036528; // type:function scope:global
__alloc_osfhnd = .text:0x10036617; // type:function scope:global
__set_osfhnd = .text:0x1003673A; // type:function scope:global
__free_osfhnd = .text:0x100367B6; // type:function scope:global
__get_osfhandle = .text:0x10036835; // type:function scope:global
__lock_fhandle = .text:0x1003691E; // type:function scope:global
__unlock_fhandle = .text:0x1003697D; // type:function scope:global
__commit = .text:0x1003699F; // type:function scope:global
__sopen = .text:0x10036A49; // type:function scope:global
___init_time = .text:0x10036D18; // type:function scope:global
__get_lc_time = .text:0x10036DA9; // type:function scope:local
__free_lc_time = .text:0x100370F7; // type:function scope:local
___init_numeric = .text:0x10037287; // type:function scope:global
_fix_grouping = .text:0x1003745C; // type:function scope:local
___init_monetary = .text:0x10037493; // type:function scope:global
__get_lc_lconv = .text:0x1003755E; // type:function scope:local
fn_0x10037680 = .text:0x10037680; // type:function scope:local
__free_lc_lconv = .text:0x100376B7; // type:function scope:local
___init_ctype = .text:0x10037705; // type:function scope:global
fn_1003794A = .text:0x1003794A; // type:function size:0x6
lbl_10037C26 = .text:0x10037C26; // type:label
lbl_10037E80 = .text:0x10037E80; // type:label
lbl_10037F74 = .text:0x10037F74; // type:label
lbl_10038131 = .text:0x10038131; // type:label
___crtGetStringTypeA = .text:0x10038271; // type:function scope:global
fn_1003836A = .text:0x1003836A; // type:function size:0x4
fn_1003836E = .text:0x1003836E; // type:function size:0x4C
___crtGetStringTypeW = .text:0x100383BA; // type:function scope:global
fn_100384A6 = .text:0x100384A6; // type:function size:0x4
fn_100384AA = .text:0x100384AA; // type:function size:0x59
fn_10038503 = .text:0x10038503; // type:function size:0x4
fn_10038507 = .text:0x10038507; // type:function size:0x78
__mbsnbicoll = .text:0x1003857F; // type:function scope:global
___wtomb_environ = .text:0x100385BE; // type:function scope:global
__mbschr = .text:0x100387CC; // type:function scope:global
__mbsdup = .text:0x10038863; // type:function scope:global
__setmbcp = .text:0x1003888E; // type:function scope:global
fn_10038A3B = .text:0x10038A3B; // type:function size:0x1A
_GetOEMCP = .text:0x10038A55; // type:function size:0x6
_GetACP = .text:0x10038A6A; // type:function size:0x6
_CPtoLCID = .text:0x10038A85; // type:function scope:local
_setSBCS = .text:0x10038AB8; // type:function scope:local
_setSBUpLow = .text:0x10038AE1; // type:function scope:local
___initmbctable = .text:0x10038C76; // type:function scope:global
___crtMessageBoxA = .text:0x10038C92; // type:function scope:global
lbl_10038E9D = .text:0x10038E9D; // type:label
_raise = .text:0x10038EFF; // type:function scope:global
_siglookup = .text:0x10039081; // type:function scope:local
___addl = .text:0x100390D0; // type:function scope:global
___add_12 = .text:0x100390F1; // type:function scope:global
___shl_12 = .text:0x1003914F; // type:function scope:global
___shr_12 = .text:0x1003917D; // type:function scope:global
___mtold12 = .text:0x100391AA; // type:function scope:global
___strgtold12 = .text:0x10039271; // type:function scope:global
lbl_100392DB = .text:0x100392DB; // type:label
lbl_1003932A = .text:0x1003932A; // type:label
lbl_10039381 = .text:0x10039381; // type:label
lbl_100393AB = .text:0x100393AB; // type:label
lbl_10039406 = .text:0x10039406; // type:label
lbl_1003947D = .text:0x1003947D; // type:label
lbl_100394B3 = .text:0x100394B3; // type:label
lbl_100394DC = .text:0x100394DC; // type:label
lbl_100394FD = .text:0x100394FD; // type:label
lbl_10039517 = .text:0x10039517; // type:label
lbl_1003954B = .text:0x1003954B; // type:label
lbl_10039561 = .text:0x10039561; // type:label
$L679 = .text:0x10039712; // type:label scope:local
_$I10_OUTPUT = .text:0x1003977E; // type:function scope:global
__chsize_lk = .text:0x10039A6A; // type:function scope:global
___getlocaleinfo = .text:0x10039B8F; // type:function scope:global
___crtCompareStringA = .text:0x10039F71; // type:function scope:global
fn_1003A128 = .text:0x1003A128; // type:function size:0x4
fn_1003A12C = .text:0x1003A12C; // type:function size:0x6B
fn_1003A197 = .text:0x1003A197; // type:function size:0x4
fn_1003A19B = .text:0x1003A19B; // type:function size:0x53
fn_0x1003a1ee = .text:0x1003A1EE; // type:function size:0x2B scope:local
fn_1003A33E = .text:0x1003A33E; // type:function size:0x4
fn_1003A342 = .text:0x1003A342; // type:function size:0x72
fn_1003A3B4 = .text:0x1003A3B4; // type:function size:0x4
fn_1003A3B8 = .text:0x1003A3B8; // type:function size:0x7C
___ld12mul = .text:0x1003A55C; // type:function scope:global
___multtenpow12 = .text:0x1003A77C; // type:function scope:global
__setmode_lk = .text:0x1003A851; // type:function scope:global
___crtGetLocaleInfoW = .text:0x1003A8B2; // type:function scope:global
fn_1003A96B = .text:0x1003A96B; // type:function size:0x4
fn_1003A96F = .text:0x1003A96F; // type:function size:0x56
___crtGetLocaleInfoA = .text:0x1003A9C5; // type:function scope:global
fn_1003AA84 = .text:0x1003AA84; // type:function size:0x4
fn_1003AA88 = .text:0x1003AA88; // type:function size:0x5B
fn_1003ACD4 = .text:0x1003ACD4; // type:function size:0x4
fn_1003ACD8 = .text:0x1003ACD8; // type:function size:0x79
fn_1003AD51 = .text:0x1003AD51; // type:function size:0x4
fn_1003AD55 = .text:0x1003AD55; // type:function size:0x86
_timeGetTime = .text:0x1003AE10; // type:function size:0x6
lbl_1003C020 = .text:0x1003C020; // type:label
lbl_1003C430 = .text:0x1003C430; // type:label
fn_1003C6F0 = .text:0x1003C6F0; // type:function size:0x120
fn_1003C810 = .text:0x1003C810; // type:function size:0x10
fn_1003C820 = .text:0x1003C820; // type:function size:0x10
fn_1003C830 = .text:0x1003C830; // type:function size:0x20
fn_1003C880 = .text:0x1003C880; // type:function size:0x20
fn_1003C8A0 = .text:0x1003C8A0; // type:function size:0x10
fn_1003C8B0 = .text:0x1003C8B0; // type:function size:0x20
fn_1003C910 = .text:0x1003C910; // type:function size:0x60
fn_1003C970 = .text:0x1003C970; // type:function size:0x10
fn_1003C980 = .text:0x1003C980; // type:function size:0x40
fn_1003CA20 = .text:0x1003CA20; // type:function size:0x50
fn_1003CA70 = .text:0x1003CA70; // type:function size:0x10
fn_1003CA80 = .text:0x1003CA80; // type:function size:0x70
fn_1003CB50 = .text:0x1003CB50; // type:function size:0x40
fn_1003CB90 = .text:0x1003CB90; // type:function size:0x10
fn_1003CBA0 = .text:0x1003CBA0; // type:function size:0x20
fn_1003CC00 = .text:0x1003CC00; // type:function size:0x50
fn_1003CC50 = .text:0x1003CC50; // type:function size:0x10
fn_1003CC60 = .text:0x1003CC60; // type:function size:0x30
fn_1003CCE0 = .text:0x1003CCE0; // type:function size:0x40
fn_1003CD20 = .text:0x1003CD20; // type:function size:0x10
fn_1003CD30 = .text:0x1003CD30; // type:function size:0x30
fn_1003CDA0 = .text:0x1003CDA0; // type:function size:0x40
fn_1003CDE0 = .text:0x1003CDE0; // type:function size:0x10
fn_1003CDF0 = .text:0x1003CDF0; // type:function size:0x30
fn_1003CE60 = .text:0x1003CE60; // type:function size:0x70
fn_1003CED0 = .text:0x1003CED0; // type:function size:0x20
fn_1003CEF0 = .text:0x1003CEF0; // type:function size:0x30
fn_1003CF80 = .text:0x1003CF80; // type:function size:0xA0
fn_1003D020 = .text:0x1003D020; // type:function size:0x30
fn_1003D050 = .text:0x1003D050; // type:function size:0x30
fn_1003D0E0 = .text:0x1003D0E0; // type:function size:0x20
fn_1003D100 = .text:0x1003D100; // type:function size:0x10
fn_1003D110 = .text:0x1003D110; // type:function size:0x20
fn_1003D170 = .text:0x1003D170; // type:function size:0x70
fn_1003D1E0 = .text:0x1003D1E0; // type:function size:0x20
fn_1003D200 = .text:0x1003D200; // type:function size:0x30
fn_1003D280 = .text:0x1003D280; // type:function size:0xA0
fn_1003D320 = .text:0x1003D320; // type:function size:0x30
fn_1003D350 = .text:0x1003D350; // type:function size:0x30
fn_1003D3D0 = .text:0x1003D3D0; // type:function size:0x40
fn_1003D410 = .text:0x1003D410; // type:function size:0x10
fn_1003D420 = .text:0x1003D420; // type:function size:0x20
fn_1003D490 = .text:0x1003D490; // type:function size:0x40
fn_1003D4D0 = .text:0x1003D4D0; // type:function size:0x10
fn_1003D4E0 = .text:0x1003D4E0; // type:function size:0x20
fn_1003D550 = .text:0x1003D550; // type:function size:0x40
fn_1003D590 = .text:0x1003D590; // type:function size:0x10
fn_1003D5A0 = .text:0x1003D5A0; // type:function size:0x20
fn_1003D610 = .text:0x1003D610; // type:function size:0x40
fn_1003D650 = .text:0x1003D650; // type:function size:0x10
fn_1003D660 = .text:0x1003D660; // type:function size:0x20
fn_1003D6D0 = .text:0x1003D6D0; // type:function size:0x70
fn_1003D740 = .text:0x1003D740; // type:function size:0x20
fn_1003D760 = .text:0x1003D760; // type:function size:0x30
fn_1003D7E0 = .text:0x1003D7E0; // type:function size:0x20
fn_1003D800 = .text:0x1003D800; // type:function size:0x10
fn_1003D810 = .text:0x1003D810; // type:function size:0x20
fn_1003D870 = .text:0x1003D870; // type:function size:0x70
fn_1003D8E0 = .text:0x1003D8E0; // type:function size:0x20
fn_1003D900 = .text:0x1003D900; // type:function size:0x30
fn_1003D980 = .text:0x1003D980; // type:function size:0x40
fn_1003D9C0 = .text:0x1003D9C0; // type:function size:0x10
fn_1003D9D0 = .text:0x1003D9D0; // type:function size:0x30
fn_1003DA50 = .text:0x1003DA50; // type:function size:0x30
fn_1003DA80 = .text:0x1003DA80; // type:function size:0x10
fn_1003DA90 = .text:0x1003DA90; // type:function size:0x20
fn_1003DAF0 = .text:0x1003DAF0; // type:function size:0x40
fn_1003DB30 = .text:0x1003DB30; // type:function size:0x10
fn_1003DB40 = .text:0x1003DB40; // type:function size:0x20
fn_1003DBB0 = .text:0x1003DBB0; // type:function size:0x70
fn_1003DC20 = .text:0x1003DC20; // type:function size:0x20
fn_1003DC40 = .text:0x1003DC40; // type:function size:0x30
fn_1003DCC0 = .text:0x1003DCC0; // type:function size:0x70
fn_1003DD30 = .text:0x1003DD30; // type:function size:0x20
fn_1003DD50 = .text:0x1003DD50; // type:function size:0x30
lbl_1003DE10 = .text:0x1003DE10; // type:label
lbl_1003E0B0 = .text:0x1003E0B0; // type:label
lbl_1003E110 = .text:0x1003E110; // type:label
lbl_1003E1B0 = .text:0x1003E1B0; // type:label
lbl_1003E220 = .text:0x1003E220; // type:label
lbl_1003E3A0 = .text:0x1003E3A0; // type:label
lbl_1003E400 = .text:0x1003E400; // type:label
lbl_1003E430 = .text:0x1003E430; // type:label
lbl_1003E550 = .text:0x1003E550; // type:label
lbl_1003E5E0 = .text:0x1003E5E0; // type:label
lbl_1003E7F0 = .text:0x1003E7F0; // type:label
lbl_1003E890 = .text:0x1003E890; // type:label
lbl_1003EA40 = .text:0x1003EA40; // type:label
lbl_1003EB70 = .text:0x1003EB70; // type:label
lbl_1003EC10 = .text:0x1003EC10; // type:label
lbl_1003ED70 = .text:0x1003ED70; // type:label
fn_0x1003ee30 = .text:0x1003EE30; // type:function size:0x6
fn_1003F270 = .text:0x1003F270; // type:function size:0xA0
lbl_1003F9E0 = .text:0x1003F9E0; // type:label
lbl_10040070 = .text:0x10040070; // type:label
lbl_100407F0 = .text:0x100407F0; // type:label
lbl_10040800 = .text:0x10040800; // type:label
lbl_100408A0 = .text:0x100408A0; // type:label
lbl_100409C0 = .text:0x100409C0; // type:label
lbl_10040C80 = .text:0x10040C80; // type:label
lbl_10040DB0 = .text:0x10040DB0; // type:label
lbl_10041440 = .text:0x10041440; // type:label
lbl_100414E0 = .text:0x100414E0; // type:label
lbl_10041590 = .text:0x10041590; // type:label
lbl_100415A0 = .text:0x100415A0; // type:label
lbl_100415B0 = .text:0x100415B0; // type:label
lbl_10041710 = .text:0x10041710; // type:label
lbl_10041750 = .text:0x10041750; // type:label
lbl_100419C0 = .text:0x100419C0; // type:label
lbl_10041C50 = .text:0x10041C50; // type:label
lbl_10041F00 = .text:0x10041F00; // type:label
lbl_10041F40 = .text:0x10041F40; // type:label
lbl_10041F60 = .text:0x10041F60; // type:label
lbl_10042270 = .text:0x10042270; // type:label
lbl_10042300 = .text:0x10042300; // type:label
lbl_10042390 = .text:0x10042390; // type:label
lbl_10042C2D = .text:0x10042C2D; // type:label
lbl_10042C44 = .text:0x10042C44; // type:label
lbl_10042C5B = .text:0x10042C5B; // type:label
lbl_10042C72 = .text:0x10042C72; // type:label
lbl_10042C89 = .text:0x10042C89; // type:label
lbl_10042CCD = .text:0x10042CCD; // type:label
lbl_10042D3E = .text:0x10042D3E; // type:label
lbl_10042D53 = .text:0x10042D53; // type:label
lbl_10042DB8 = .text:0x10042DB8; // type:label
lbl_10043730 = .text:0x10043730; // type:label
lbl_10043750 = .text:0x10043750; // type:label
lbl_10043BA0 = .text:0x10043BA0; // type:label
lbl_10043C30 = .text:0x10043C30; // type:label
lbl_10043C80 = .text:0x10043C80; // type:label
lbl_10043D20 = .text:0x10043D20; // type:label
lbl_10043D60 = .text:0x10043D60; // type:label
lbl_10043DB0 = .text:0x10043DB0; // type:label
lbl_10043E50 = .text:0x10043E50; // type:label
lbl_10043F00 = .text:0x10043F00; // type:label
lbl_10043F90 = .text:0x10043F90; // type:label
lbl_10044070 = .text:0x10044070; // type:label
lbl_10044220 = .text:0x10044220; // type:label
lbl_10044260 = .text:0x10044260; // type:label
lbl_10044310 = .text:0x10044310; // type:label
lbl_100446C0 = .text:0x100446C0; // type:label
lbl_10044915 = .text:0x10044915; // type:label
lbl_10044921 = .text:0x10044921; // type:label
lbl_1004492D = .text:0x1004492D; // type:label
lbl_1004496C = .text:0x1004496C; // type:label
fn_10044AA0 = .text:0x10044AA0; // type:function size:0x10
fn_10044AB0 = .text:0x10044AB0; // type:function size:0x10
fn_10044AC0 = .text:0x10044AC0; // type:function size:0x10
lbl_10044D80 = .text:0x10044D80; // type:label
lbl_10044DA0 = .text:0x10044DA0; // type:label
lbl_10044E00 = .text:0x10044E00; // type:label
lbl_10044E20 = .text:0x10044E20; // type:label
lbl_10044E40 = .text:0x10044E40; // type:label
lbl_10044E50 = .text:0x10044E50; // type:label
fn_10044E60 = .text:0x10044E60; // type:function size:0x30
fn_10044E90 = .text:0x10044E90; // type:function size:0xB0
fn_10044F40 = .text:0x10044F40; // type:function size:0x70
fn_10044FB0 = .text:0x10044FB0; // type:function size:0x950
fn_10045900 = .text:0x10045900; // type:function size:0x50
fn_10045950 = .text:0x10045950; // type:function size:0x50
fn_100459A0 = .text:0x100459A0; // type:function size:0x20
fn_100459C0 = .text:0x100459C0; // type:function size:0x30
fn_100459F0 = .text:0x100459F0; // type:function size:0x30
fn_10045A20 = .text:0x10045A20; // type:function size:0x50
fn_100460D0 = .text:0x100460D0; // type:function size:0x80
fn_10046150 = .text:0x10046150; // type:function size:0x30
fn_10046180 = .text:0x10046180; // type:function size:0x60
fn_100461E0 = .text:0x100461E0; // type:function size:0x30
lbl_10046422 = .text:0x10046422; // type:label
lbl_1004642C = .text:0x1004642C; // type:label
lbl_10046436 = .text:0x10046436; // type:label
lbl_10046440 = .text:0x10046440; // type:label
lbl_10046444 = .text:0x10046444; // type:label
lbl_10046E10 = .text:0x10046E10; // type:label
lbl_10046E16 = .text:0x10046E16; // type:label
lbl_10046E1C = .text:0x10046E1C; // type:label
lbl_10046E22 = .text:0x10046E22; // type:label
lbl_10046E28 = .text:0x10046E28; // type:label
lbl_10046E2E = .text:0x10046E2E; // type:label
lbl_10046E3C = .text:0x10046E3C; // type:label
lbl_10046ED0 = .text:0x10046ED0; // type:label
lbl_10046ED7 = .text:0x10046ED7; // type:label
lbl_10046EDE = .text:0x10046EDE; // type:label
lbl_10046EE5 = .text:0x10046EE5; // type:label
lbl_10046F18 = .text:0x10046F18; // type:label
lbl_10046F30 = .text:0x10046F30; // type:label
lbl_10046F90 = .text:0x10046F90; // type:label
lbl_10047020 = .text:0x10047020; // type:label
lbl_100470B0 = .text:0x100470B0; // type:label
fn_10047120 = .text:0x10047120; // type:function size:0x50
fn_100471B0 = .text:0x100471B0; // type:function size:0x20
fn_100471D0 = .text:0x100471D0; // type:function size:0x10
fn_100471E0 = .text:0x100471E0; // type:function size:0x20
fn_10047200 = .text:0x10047200; // type:function size:0x20
fn_10047220 = .text:0x10047220; // type:function size:0x70
fn_10047290 = .text:0x10047290; // type:function size:0x30
fn_100472C0 = .text:0x100472C0; // type:function size:0x40
fn_10047340 = .text:0x10047340; // type:function size:0x50
fn_10047390 = .text:0x10047390; // type:function size:0x20
fn_100473B0 = .text:0x100473B0; // type:function size:0x30
fn_10047400 = .text:0x10047400; // type:function size:0x90
fn_10047490 = .text:0x10047490; // type:function size:0x40
fn_10047570 = .text:0x10047570; // type:function size:0x50
fn_100475C0 = .text:0x100475C0; // type:function size:0x70
fn_10047BB0 = .text:0x10047BB0; // type:function size:0x60
fn_10047C10 = .text:0x10047C10; // type:function size:0xB0
fn_10047CC0 = .text:0x10047CC0; // type:function size:0x60
lbl_10048600 = .text:0x10048600; // type:label
lbl_10048679 = .text:0x10048679; // type:label
lbl_10048697 = .text:0x10048697; // type:label
lbl_100486AB = .text:0x100486AB; // type:label
lbl_100486E4 = .text:0x100486E4; // type:label
lbl_10048714 = .text:0x10048714; // type:label
lbl_10048728 = .text:0x10048728; // type:label
lbl_1004873B = .text:0x1004873B; // type:label
lbl_10048759 = .text:0x10048759; // type:label
lbl_10048761 = .text:0x10048761; // type:label
lbl_100487BE = .text:0x100487BE; // type:label
lbl_100487DD = .text:0x100487DD; // type:label
lbl_100487E8 = .text:0x100487E8; // type:label
lbl_10048829 = .text:0x10048829; // type:label
lbl_1004888F = .text:0x1004888F; // type:label
lbl_100488C0 = .text:0x100488C0; // type:label
lbl_100488D5 = .text:0x100488D5; // type:label
lbl_10048920 = .text:0x10048920; // type:label
lbl_1004893F = .text:0x1004893F; // type:label
lbl_10048951 = .text:0x10048951; // type:label
lbl_10048994 = .text:0x10048994; // type:label
lbl_100489A4 = .text:0x100489A4; // type:label
fn_10048A20 = .text:0x10048A20; // type:function size:0xB10
lbl_10048AF0 = .text:0x10048AF0; // type:label
lbl_10048B17 = .text:0x10048B17; // type:label
lbl_10048B55 = .text:0x10048B55; // type:label
lbl_10048B93 = .text:0x10048B93; // type:label
lbl_10048BD1 = .text:0x10048BD1; // type:label
lbl_10048C2C = .text:0x10048C2C; // type:label
lbl_10048C4B = .text:0x10048C4B; // type:label
lbl_10048C72 = .text:0x10048C72; // type:label
lbl_10048CE3 = .text:0x10048CE3; // type:label
lbl_10048D39 = .text:0x10048D39; // type:label
lbl_10048D74 = .text:0x10048D74; // type:label
lbl_10048DC4 = .text:0x10048DC4; // type:label
lbl_10048DEA = .text:0x10048DEA; // type:label
lbl_10048E25 = .text:0x10048E25; // type:label
lbl_10048F8F = .text:0x10048F8F; // type:label
lbl_10048FCF = .text:0x10048FCF; // type:label
lbl_1004900C = .text:0x1004900C; // type:label
lbl_10049077 = .text:0x10049077; // type:label
lbl_1004909F = .text:0x1004909F; // type:label
lbl_10049171 = .text:0x10049171; // type:label
lbl_10049279 = .text:0x10049279; // type:label
lbl_100492D8 = .text:0x100492D8; // type:label
lbl_10049300 = .text:0x10049300; // type:label
lbl_100493C8 = .text:0x100493C8; // type:label
lbl_100493E8 = .text:0x100493E8; // type:label
lbl_1004950B = .text:0x1004950B; // type:label
lbl_10049530 = .text:0x10049530; // type:label
lbl_100495BB = .text:0x100495BB; // type:label
lbl_100495D9 = .text:0x100495D9; // type:label
lbl_100495FB = .text:0x100495FB; // type:label
lbl_10049621 = .text:0x10049621; // type:label
lbl_1004964F = .text:0x1004964F; // type:label
lbl_10049675 = .text:0x10049675; // type:label
lbl_10049693 = .text:0x10049693; // type:label
lbl_100496C9 = .text:0x100496C9; // type:label
lbl_100496F7 = .text:0x100496F7; // type:label
lbl_1004972D = .text:0x1004972D; // type:label
lbl_10049757 = .text:0x10049757; // type:label
lbl_10049779 = .text:0x10049779; // type:label
lbl_1004979F = .text:0x1004979F; // type:label
lbl_100497CC = .text:0x100497CC; // type:label
lbl_10049A00 = .text:0x10049A00; // type:label
lbl_10049A50 = .text:0x10049A50; // type:label
lbl_10049A70 = .text:0x10049A70; // type:label
lbl_10049B30 = .text:0x10049B30; // type:label
fn_10049B50 = .text:0x10049B50; // type:function size:0x60
fn_10049BB0 = .text:0x10049BB0; // type:function size:0x120
lbl_10049CD0 = .text:0x10049CD0; // type:label
lbl_10049CE0 = .text:0x10049CE0; // type:label
lbl_10049D00 = .text:0x10049D00; // type:label
fn_10049D10 = .text:0x10049D10; // type:function size:0x90
fn_10049DA0 = .text:0x10049DA0; // type:function size:0x20
fn_10049DC0 = .text:0x10049DC0; // type:function size:0x60
lbl_10049EA0 = .text:0x10049EA0; // type:label
fn_10049F50 = .text:0x10049F50; // type:function size:0x20
fn_10049F70 = .text:0x10049F70; // type:function size:0x40
fn_10049FB0 = .text:0x10049FB0; // type:function size:0x40
fn_10049FF0 = .text:0x10049FF0; // type:function size:0x80
fn_1004A090 = .text:0x1004A090; // type:function size:0x30
fn_1004A0C0 = .text:0x1004A0C0; // type:function size:0x20
fn_1004A0E0 = .text:0x1004A0E0; // type:function size:0x40
fn_1004A140 = .text:0x1004A140; // type:function size:0x100
fn_1004A240 = .text:0x1004A240; // type:function size:0x70
fn_1004A2B0 = .text:0x1004A2B0; // type:function size:0x80
lbl_1004A330 = .text:0x1004A330; // type:label
fn_1004A370 = .text:0x1004A370; // type:function size:0x40
lbl_1004A3B0 = .text:0x1004A3B0; // type:label
fn_1004A490 = .text:0x1004A490; // type:function size:0x150
lbl_1004A760 = .text:0x1004A760; // type:label
fn_1004A790 = .text:0x1004A790; // type:function size:0x80
lbl_1004A810 = .text:0x1004A810; // type:label
lbl_1004A920 = .text:0x1004A920; // type:label
lbl_1004A990 = .text:0x1004A990; // type:label
lbl_1004A9F0 = .text:0x1004A9F0; // type:label
fn_1004AC80 = .text:0x1004AC80; // type:function size:0x60
fn_1004ACE0 = .text:0x1004ACE0; // type:function size:0x30
fn_1004AD10 = .text:0x1004AD10; // type:function size:0x3D0
fn_1004B600 = .text:0x1004B600; // type:function size:0x16D
lbl_1004B654 = .text:0x1004B654; // type:label
lbl_1004B65E = .text:0x1004B65E; // type:label
lbl_1004B664 = .text:0x1004B664; // type:label
lbl_1004B668 = .text:0x1004B668; // type:label
lbl_1004B66F = .text:0x1004B66F; // type:label
lbl_1004B67B = .text:0x1004B67B; // type:label
lbl_1004B682 = .text:0x1004B682; // type:label
lbl_1004B689 = .text:0x1004B689; // type:label
lbl_1004B695 = .text:0x1004B695; // type:label
lbl_1004B69C = .text:0x1004B69C; // type:label
lbl_1004B6A3 = .text:0x1004B6A3; // type:label
lbl_1004B6AA = .text:0x1004B6AA; // type:label
lbl_1004B6B6 = .text:0x1004B6B6; // type:label
lbl_1004B6C2 = .text:0x1004B6C2; // type:label
lbl_1004B6CB = .text:0x1004B6CB; // type:label
lbl_1004B6D2 = .text:0x1004B6D2; // type:label
lbl_1004B737 = .text:0x1004B737; // type:label
lbl_1004B770 = .text:0x1004B770; // type:label
lbl_1004B7B4 = .text:0x1004B7B4; // type:label
fn_1004B830 = .text:0x1004B830; // type:function size:0x7C
lbl_1004B854 = .text:0x1004B854; // type:label
lbl_1004B85A = .text:0x1004B85A; // type:label
lbl_1004B87D = .text:0x1004B87D; // type:label
lbl_1004B884 = .text:0x1004B884; // type:label
lbl_1004B88B = .text:0x1004B88B; // type:label
lbl_1004B892 = .text:0x1004B892; // type:label
lbl_1004B899 = .text:0x1004B899; // type:label
lbl_1004B89E = .text:0x1004B89E; // type:label
lbl_1004B8AC = .text:0x1004B8AC; // type:label
fn_1004B8D0 = .text:0x1004B8D0; // type:function size:0x70
fn_1004B940 = .text:0x1004B940; // type:function size:0x1E0
fn_1004BB20 = .text:0x1004BB20; // type:function size:0xD0
fn_1004BBF0 = .text:0x1004BBF0; // type:function size:0xD0
fn_1004BCC0 = .text:0x1004BCC0; // type:function size:0x20
fn_1004BCE0 = .text:0x1004BCE0; // type:function size:0xB0
fn_1004BD90 = .text:0x1004BD90; // type:function size:0xA0
fn_1004BE30 = .text:0x1004BE30; // type:function size:0x1C0
fn_1004BFF0 = .text:0x1004BFF0; // type:function size:0xE0
fn_1004C0D0 = .text:0x1004C0D0; // type:function size:0x140
lbl_1004C210 = .text:0x1004C210; // type:label
fn_1004C2C0 = .text:0x1004C2C0; // type:function size:0x30
lbl_1004C2F0 = .text:0x1004C2F0; // type:label
fn_1004C3A0 = .text:0x1004C3A0; // type:function size:0x30
fn_1004C3D0 = .text:0x1004C3D0; // type:function size:0x70
fn_1004C440 = .text:0x1004C440; // type:function size:0x110
fn_1004C550 = .text:0x1004C550; // type:function size:0x70
fn_1004C5C0 = .text:0x1004C5C0; // type:function size:0x50
fn_1004C610 = .text:0x1004C610; // type:function size:0x1C0
fn_1004C7D0 = .text:0x1004C7D0; // type:function size:0x160
fn_1004C930 = .text:0x1004C930; // type:function size:0xC0
fn_1004C9F0 = .text:0x1004C9F0; // type:function size:0xC0
fn_1004CAB0 = .text:0x1004CAB0; // type:function size:0x90
fn_1004CB40 = .text:0x1004CB40; // type:function size:0x130
fn_1004CC70 = .text:0x1004CC70; // type:function size:0xA0
fn_1004CD10 = .text:0x1004CD10; // type:function size:0x90
fn_1004CDA0 = .text:0x1004CDA0; // type:function size:0x40
fn_1004CDE0 = .text:0x1004CDE0; // type:function size:0x1F0
fn_1004CFD0 = .text:0x1004CFD0; // type:function size:0x70
fn_1004D040 = .text:0x1004D040; // type:function size:0x120
fn_1004D160 = .text:0x1004D160; // type:function size:0x180
fn_1004D2E0 = .text:0x1004D2E0; // type:function size:0x120
fn_1004D400 = .text:0x1004D400; // type:function size:0xA0
fn_1004D4A0 = .text:0x1004D4A0; // type:function size:0xC0
fn_1004D560 = .text:0x1004D560; // type:function size:0x80
fn_1004D5E0 = .text:0x1004D5E0; // type:function size:0x30
fn_1004D610 = .text:0x1004D610; // type:function size:0xB0
fn_1004D6C0 = .text:0x1004D6C0; // type:function size:0x70
fn_1004D730 = .text:0x1004D730; // type:function size:0x70
fn_1004D7A0 = .text:0x1004D7A0; // type:function size:0x70
fn_1004D810 = .text:0x1004D810; // type:function size:0x70
fn_1004D880 = .text:0x1004D880; // type:function size:0x70
fn_1004D8F0 = .text:0x1004D8F0; // type:function size:0x70
fn_1004D960 = .text:0x1004D960; // type:function size:0x10
fn_1004D970 = .text:0x1004D970; // type:function size:0x20
fn_1004D990 = .text:0x1004D990; // type:function size:0x30
fn_1004D9C0 = .text:0x1004D9C0; // type:function size:0x70
fn_1004DAA0 = .text:0x1004DAA0; // type:function size:0x60
fn_1004DB00 = .text:0x1004DB00; // type:function size:0x50
fn_1004DB50 = .text:0x1004DB50; // type:function size:0x50
fn_1004DBA0 = .text:0x1004DBA0; // type:function size:0x40
lbl_1004E690 = .text:0x1004E690; // type:label
__rmdir = .text:0x1004E8E0; // type:function scope:global
fn_1004E90A = .text:0x1004E90A; // type:function size:0xB
___inittime = .text:0x1004E958; // type:function scope:global
_vsprintf = .text:0x1004EBA8; // type:function scope:global
fn_1004EBF9 = .text:0x1004EBF9; // type:function size:0x9C
_WSOCK32_8 = .text:0x1004ED26; // type:function size:0x6
_LocalAlloc = .text:0x1004ED2C; // type:function size:0x6
_InterlockedExchange = .text:0x1004ED32; // type:function size:0x6
_RaiseException = .text:0x1004ED38; // type:function size:0x6
_GetLastError = .text:0x1004ED3E; // type:function size:0x6
_LocalFree = .text:0x1004ED44; // type:function size:0x6
_RtlUnwind = .text:0x1004ED4A; // type:function
_HeapFree = .text:0x1004ED50; // type:function size:0x6
_HeapAlloc = .text:0x1004ED56; // type:function size:0x6
_GetTimeZoneInformation = .text:0x1004ED5C; // type:function size:0x6
_GetSystemTime = .text:0x1004ED62; // type:function size:0x6
_GetLocalTime = .text:0x1004ED68; // type:function size:0x6
_InterlockedDecrement = .text:0x1004ED6E; // type:function size:0x6
_InterlockedIncrement = .text:0x1004ED74; // type:function size:0x6
_GetCommandLineA = .text:0x1004ED7A; // type:function size:0x6
_GetVersion = .text:0x1004ED80; // type:function size:0x6
fn_0x1004ed86 = .text:0x1004ED86; // type:function size:0x6
_TlsSetValue = .text:0x1004ED8C; // type:function size:0x6
_TlsAlloc = .text:0x1004ED92; // type:function size:0x6
_TlsFree = .text:0x1004ED98; // type:function size:0x6
_TlsGetValue = .text:0x1004ED9E; // type:function size:0x6
fn_0x1004eda4 = .text:0x1004EDA4; // type:function size:0x6
_GetModuleHandleA = .text:0x1004EDAA; // type:function size:0x6
_GetModuleFileNameA = .text:0x1004EDB0; // type:function size:0x6
_GetEnvironmentVariableA = .text:0x1004EDB6; // type:function size:0x6
_HeapDestroy = .text:0x1004EDBC; // type:function size:0x6
_HeapCreate = .text:0x1004EDC2; // type:function size:0x6
_VirtualFree = .text:0x1004EDC8; // type:function size:0x6
_VirtualAlloc = .text:0x1004EDCE; // type:function size:0x6
_HeapReAlloc = .text:0x1004EDD4; // type:function size:0x6
_IsBadWritePtr = .text:0x1004EDDA; // type:function size:0x6
_ExitProcess = .text:0x1004EDE0; // type:function size:0x6
_FatalAppExitA = .text:0x1004EDE6; // type:function size:0x6
_TerminateProcess = .text:0x1004EDEC; // type:function size:0x6
_GetCurrentProcess = .text:0x1004EDF2; // type:function size:0x6
_HeapSize = .text:0x1004EDF8; // type:function size:0x6
_SetHandleCount = .text:0x1004EDFE; // type:function size:0x6
_GetStdHandle = .text:0x1004EE04; // type:function size:0x6
_GetFileType = .text:0x1004EE0A; // type:function size:0x6
_GetStartupInfoA = .text:0x1004EE10; // type:function size:0x6
_LCMapStringA = .text:0x1004EE16; // type:function size:0x6
_LCMapStringW = .text:0x1004EE1C; // type:function size:0x6
_SetEnvironmentVariableW = .text:0x1004EE22; // type:function size:0x6
_SetEnvironmentVariableA = .text:0x1004EE28; // type:function size:0x6
_FreeEnvironmentStringsA = .text:0x1004EE2E; // type:function size:0x6
_FreeEnvironmentStringsW = .text:0x1004EE34; // type:function size:0x6
_GetEnvironmentStrings = .text:0x1004EE3A; // type:function size:0x6
_GetEnvironmentStringsW = .text:0x1004EE40; // type:function size:0x6
_SetUnhandledExceptionFilter = .text:0x1004EE46; // type:function size:0x6
_IsBadReadPtr = .text:0x1004EE4C; // type:function size:0x6
_IsBadCodePtr = .text:0x1004EE52; // type:function size:0x6
_UnhandledExceptionFilter = .text:0x1004EE58; // type:function size:0x6
_SetStdHandle = .text:0x1004EE5E; // type:function size:0x6
_FlushFileBuffers = .text:0x1004EE64; // type:function size:0x6
_GetCPInfo = .text:0x1004EE6A; // type:function size:0x6
_IsValidLocale = .text:0x1004EE70; // type:function size:0x6
_IsValidCodePage = .text:0x1004EE76; // type:function size:0x6
_GetLocaleInfoA = .text:0x1004EE7C; // type:function size:0x6
_EnumSystemLocalesA = .text:0x1004EE82; // type:function size:0x6
_GetUserDefaultLCID = .text:0x1004EE88; // type:function size:0x6
_GetStringTypeA = .text:0x1004EE8E; // type:function size:0x6
_GetStringTypeW = .text:0x1004EE94; // type:function size:0x6
fn_0x1004ee9a = .text:0x1004EE9A; // type:function size:0x6
fn_0x1004eea0 = .text:0x1004EEA0; // type:function size:0x6
_SetConsoleCtrlHandler = .text:0x1004EEA6; // type:function size:0x6
_SetEndOfFile = .text:0x1004EEAC; // type:function size:0x6
_CompareStringA = .text:0x1004EEB2; // type:function size:0x6
_CompareStringW = .text:0x1004EEB8; // type:function size:0x6
_GetLocaleInfoW = .text:0x1004EEBE; // type:function size:0x6
_QueryPerformanceCounter = .text:0x1004EEC4; // type:function size:0x6
_DeleteFileA = .text:0x1004EECA; // type:function size:0x6
_GetSystemTimeAsFileTime = .text:0x1004EED0; // type:function size:0x6
_RegSetValueExA = .text:0x1004EED6; // type:function size:0x6
_RegCreateKeyExA = .text:0x1004EEDC; // type:function size:0x6
_RegQueryValueExA = .text:0x1004EEE2; // type:function size:0x6
_RegOpenKeyExA = .text:0x1004EEE8; // type:function size:0x6
fn_1004EEF0 = .text:0x1004EEF0; // type:function size:0x8
lbl_1004EEF8 = .text:0x1004EEF8; // type:label
fn_1004EF10 = .text:0x1004EF10; // type:function size:0xB
fn_1004EF1B = .text:0x1004EF1B; // type:function size:0x8
lbl_1004EF23 = .text:0x1004EF23; // type:label
fn_1004EF30 = .text:0x1004EF30; // type:function size:0xB
lbl_1004EF3B = .text:0x1004EF3B; // type:label
fn_1004EF50 = .text:0x1004EF50; // type:function size:0xB
lbl_1004EF5B = .text:0x1004EF5B; // type:label
fn_1004EF70 = .text:0x1004EF70; // type:function size:0xE
lbl_1004EF7E = .text:0x1004EF7E; // type:label
fn_1004EF90 = .text:0x1004EF90; // type:function size:0xE
lbl_1004EF9E = .text:0x1004EF9E; // type:label
fn_1004EFB0 = .text:0x1004EFB0; // type:function size:0xB
fn_1004EFBB = .text:0x1004EFBB; // type:function size:0x8
fn_1004EFC3 = .text:0x1004EFC3; // type:function size:0xE
lbl_1004EFD1 = .text:0x1004EFD1; // type:label
fn_1004EFE0 = .text:0x1004EFE0; // type:function size:0xB
fn_1004EFEB = .text:0x1004EFEB; // type:function size:0x8
fn_1004EFF3 = .text:0x1004EFF3; // type:function size:0xE
lbl_1004F001 = .text:0x1004F001; // type:label
fn_1004F010 = .text:0x1004F010; // type:function size:0x8
fn_1004F018 = .text:0x1004F018; // type:function size:0xE
fn_1004F026 = .text:0x1004F026; // type:function size:0x18
lbl_1004F03E = .text:0x1004F03E; // type:label
fn_1004F050 = .text:0x1004F050; // type:function size:0xB
lbl_1004F05B = .text:0x1004F05B; // type:label
fn_1004F070 = .text:0x1004F070; // type:function size:0x8
lbl_1004F078 = .text:0x1004F078; // type:label
fn_1004F090 = .text:0x1004F090; // type:function size:0xE
lbl_1004F09E = .text:0x1004F09E; // type:label
fn_1004F0B0 = .text:0x1004F0B0; // type:function size:0xE
fn_1004F0BE = .text:0x1004F0BE; // type:function size:0xE
lbl_1004F0CC = .text:0x1004F0CC; // type:label
fn_1004F0E0 = .text:0x1004F0E0; // type:function size:0xB
lbl_1004F0EB = .text:0x1004F0EB; // type:label
fn_1004F100 = .text:0x1004F100; // type:function size:0xB
fn_1004F10B = .text:0x1004F10B; // type:function size:0xB
fn_1004F116 = .text:0x1004F116; // type:function size:0x8
lbl_1004F11E = .text:0x1004F11E; // type:label
fn_1004F130 = .text:0x1004F130; // type:function size:0xE
lbl_1004F13E = .text:0x1004F13E; // type:label
fn_1004F150 = .text:0x1004F150; // type:function size:0xE
lbl_1004F15E = .text:0x1004F15E; // type:label
fn_1004F170 = .text:0x1004F170; // type:function size:0xB
fn_1004F17B = .text:0x1004F17B; // type:function size:0xB
fn_1004F186 = .text:0x1004F186; // type:function size:0x8
lbl_1004F18E = .text:0x1004F18E; // type:label
fn_1004F1A0 = .text:0x1004F1A0; // type:function size:0xE
lbl_1004F1AE = .text:0x1004F1AE; // type:label
fn_1004F1C0 = .text:0x1004F1C0; // type:function size:0xE
lbl_1004F1CE = .text:0x1004F1CE; // type:label
fn_1004F1E0 = .text:0x1004F1E0; // type:function size:0xE
fn_1004F1EE = .text:0x1004F1EE; // type:function size:0xE
lbl_1004F1FC = .text:0x1004F1FC; // type:label
fn_1004F210 = .text:0x1004F210; // type:function size:0xE
lbl_1004F21E = .text:0x1004F21E; // type:label
fn_1004F230 = .text:0x1004F230; // type:function size:0xE
lbl_1004F23E = .text:0x1004F23E; // type:label
fn_1004F250 = .text:0x1004F250; // type:function size:0xE
fn_1004F25E = .text:0x1004F25E; // type:function size:0x8
fn_1004F266 = .text:0x1004F266; // type:function size:0x8
lbl_1004F26E = .text:0x1004F26E; // type:label
fn_1004F280 = .text:0x1004F280; // type:function size:0xE
lbl_1004F28E = .text:0x1004F28E; // type:label
fn_1004F2A0 = .text:0x1004F2A0; // type:function size:0x8
fn_1004F2A8 = .text:0x1004F2A8; // type:function size:0x8
fn_1004F2B0 = .text:0x1004F2B0; // type:function size:0x8
lbl_1004F2B8 = .text:0x1004F2B8; // type:label
fn_1004F2D0 = .text:0x1004F2D0; // type:function size:0x8
fn_1004F2D8 = .text:0x1004F2D8; // type:function size:0xE
fn_1004F2E6 = .text:0x1004F2E6; // type:function size:0xE
lbl_1004F2F4 = .text:0x1004F2F4; // type:label
fn_1004F300 = .text:0x1004F300; // type:function size:0xB
fn_1004F30B = .text:0x1004F30B; // type:function size:0xE
fn_1004F319 = .text:0x1004F319; // type:function size:0xE
fn_1004F327 = .text:0x1004F327; // type:function size:0x8
fn_1004F32F = .text:0x1004F32F; // type:function size:0xE
fn_1004F33D = .text:0x1004F33D; // type:function size:0xE
lbl_1004F34B = .text:0x1004F34B; // type:label
fn_1004F360 = .text:0x1004F360; // type:function size:0x8
fn_1004F368 = .text:0x1004F368; // type:function size:0xE
fn_1004F376 = .text:0x1004F376; // type:function size:0xE
lbl_1004F384 = .text:0x1004F384; // type:label
fn_1004F390 = .text:0x1004F390; // type:function size:0x8
lbl_1004F398 = .text:0x1004F398; // type:label
fn_1004F3B0 = .text:0x1004F3B0; // type:function size:0xE
fn_1004F3BE = .text:0x1004F3BE; // type:function size:0x11
fn_1004F3CF = .text:0x1004F3CF; // type:function size:0x11
fn_1004F3E0 = .text:0x1004F3E0; // type:function size:0xB
fn_1004F3EB = .text:0x1004F3EB; // type:function size:0x11
fn_1004F3FC = .text:0x1004F3FC; // type:function size:0x11
fn_1004F40D = .text:0x1004F40D; // type:function size:0x11
lbl_1004F41E = .text:0x1004F41E; // type:label
fn_1004F430 = .text:0x1004F430; // type:function size:0x8
fn_1004F438 = .text:0x1004F438; // type:function size:0xE
fn_1004F446 = .text:0x1004F446; // type:function size:0xE
fn_1004F454 = .text:0x1004F454; // type:function size:0xE
lbl_1004F462 = .text:0x1004F462; // type:label
fn_1004F470 = .text:0x1004F470; // type:function size:0xE
fn_1004F47E = .text:0x1004F47E; // type:function size:0xB
fn_1004F489 = .text:0x1004F489; // type:function size:0x11
fn_1004F49A = .text:0x1004F49A; // type:function size:0x1B
lbl_1004F4B5 = .text:0x1004F4B5; // type:label
fn_1004F4C0 = .text:0x1004F4C0; // type:function size:0x8
fn_1004F4C8 = .text:0x1004F4C8; // type:function size:0xB
fn_1004F4D3 = .text:0x1004F4D3; // type:function size:0xE
fn_1004F4E1 = .text:0x1004F4E1; // type:function size:0xE
fn_1004F4EF = .text:0x1004F4EF; // type:function size:0xE
lbl_1004F4FD = .text:0x1004F4FD; // type:label
fn_1004F510 = .text:0x1004F510; // type:function size:0x8
fn_1004F518 = .text:0x1004F518; // type:function size:0xE
fn_1004F526 = .text:0x1004F526; // type:function size:0xE
lbl_1004F534 = .text:0x1004F534; // type:label
fn_1004F540 = .text:0x1004F540; // type:function size:0x8
fn_1004F548 = .text:0x1004F548; // type:function size:0xE
lbl_1004F556 = .text:0x1004F556; // type:label
fn_1004F560 = .text:0x1004F560; // type:function size:0xB
fn_1004F56B = .text:0x1004F56B; // type:function size:0xB
fn_1004F576 = .text:0x1004F576; // type:function size:0x8
fn_1004F57E = .text:0x1004F57E; // type:function size:0xE
lbl_1004F58C = .text:0x1004F58C; // type:label
fn_1004F5A0 = .text:0x1004F5A0; // type:function size:0x8
fn_1004F5A8 = .text:0x1004F5A8; // type:function size:0xB
fn_1004F5B3 = .text:0x1004F5B3; // type:function size:0xE
lbl_1004F5C1 = .text:0x1004F5C1; // type:label
fn_1004F5D0 = .text:0x1004F5D0; // type:function size:0x8
fn_1004F5D8 = .text:0x1004F5D8; // type:function size:0xB
lbl_1004F5E3 = .text:0x1004F5E3; // type:label
fn_1004F5F0 = .text:0x1004F5F0; // type:function size:0xB
fn_1004F5FB = .text:0x1004F5FB; // type:function size:0xB
fn_1004F606 = .text:0x1004F606; // type:function size:0x8
lbl_1004F60E = .text:0x1004F60E; // type:label
fn_1004F620 = .text:0x1004F620; // type:function size:0xB
fn_1004F62B = .text:0x1004F62B; // type:function size:0xB
fn_1004F636 = .text:0x1004F636; // type:function size:0x8
lbl_1004F63E = .text:0x1004F63E; // type:label
fn_1004F650 = .text:0x1004F650; // type:function size:0xB
fn_1004F65B = .text:0x1004F65B; // type:function size:0xB
lbl_1004F666 = .text:0x1004F666; // type:label
fn_1004F670 = .text:0x1004F670; // type:function size:0xB
fn_1004F67B = .text:0x1004F67B; // type:function size:0xB
lbl_1004F686 = .text:0x1004F686; // type:label
fn_1004F690 = .text:0x1004F690; // type:function size:0x8
lbl_1004F698 = .text:0x1004F698; // type:label
fn_1004F6B0 = .text:0x1004F6B0; // type:function size:0x8
fn_1004F6B8 = .text:0x1004F6B8; // type:function size:0xE
lbl_1004F6C6 = .text:0x1004F6C6; // type:label
fn_1004F6D0 = .text:0x1004F6D0; // type:function size:0xE
lbl_1004F6DE = .text:0x1004F6DE; // type:label
fn_1004F6F0 = .text:0x1004F6F0; // type:function size:0xB
fn_1004F6FB = .text:0x1004F6FB; // type:function size:0xB
lbl_1004F706 = .text:0x1004F706; // type:label
fn_1004F710 = .text:0x1004F710; // type:function size:0xB
lbl_1004F71B = .text:0x1004F71B; // type:label
fn_1004F730 = .text:0x1004F730; // type:function size:0xE
lbl_1004F73E = .text:0x1004F73E; // type:label
fn_1004F750 = .text:0x1004F750; // type:function size:0xE
lbl_1004F75E = .text:0x1004F75E; // type:label
fn_1004F770 = .text:0x1004F770; // type:function size:0xE
fn_1004F77E = .text:0x1004F77E; // type:function size:0xB
fn_1004F789 = .text:0x1004F789; // type:function size:0xB
fn_1004F794 = .text:0x1004F794; // type:function size:0xB
lbl_1004F79F = .text:0x1004F79F; // type:label
fn_1004F7B0 = .text:0x1004F7B0; // type:function size:0xE
lbl_1004F7BE = .text:0x1004F7BE; // type:label
fn_1004F7D0 = .text:0x1004F7D0; // type:function size:0xE
lbl_1004F7DE = .text:0x1004F7DE; // type:label
fn_1004F7F0 = .text:0x1004F7F0; // type:function size:0xE
lbl_1004F7FE = .text:0x1004F7FE; // type:label
fn_1004F810 = .text:0x1004F810; // type:function size:0xE
lbl_1004F81E = .text:0x1004F81E; // type:label
fn_1004F830 = .text:0x1004F830; // type:function size:0xB
lbl_1004F83B = .text:0x1004F83B; // type:label
fn_1004F850 = .text:0x1004F850; // type:function size:0xB
fn_1004F85B = .text:0x1004F85B; // type:function size:0x8
lbl_1004F863 = .text:0x1004F863; // type:label
fn_1004F870 = .text:0x1004F870; // type:function size:0x8
lbl_1004F878 = .text:0x1004F878; // type:label
fn_1004F890 = .text:0x1004F890; // type:function size:0xB
lbl_1004F89B = .text:0x1004F89B; // type:label
fn_1004F8B0 = .text:0x1004F8B0; // type:function size:0x8
fn_1004F8B8 = .text:0x1004F8B8; // type:function size:0xB
fn_1004F8C3 = .text:0x1004F8C3; // type:function size:0xB
fn_1004F8CE = .text:0x1004F8CE; // type:function size:0x8
lbl_1004F8D6 = .text:0x1004F8D6; // type:label
fn_1004F8E0 = .text:0x1004F8E0; // type:function size:0x8
fn_1004F8E8 = .text:0x1004F8E8; // type:function size:0xE
fn_1004F8F6 = .text:0x1004F8F6; // type:function size:0x18
lbl_1004F90E = .text:0x1004F90E; // type:label
fn_1004F920 = .text:0x1004F920; // type:function size:0xE
fn_1004F92E = .text:0x1004F92E; // type:function size:0xE
fn_1004F93C = .text:0x1004F93C; // type:function size:0xE
fn_1004F94A = .text:0x1004F94A; // type:function size:0xB
fn_1004F955 = .text:0x1004F955; // type:function size:0x11
lbl_1004F966 = .text:0x1004F966; // type:label
fn_1004F970 = .text:0x1004F970; // type:function size:0xE
fn_1004F97E = .text:0x1004F97E; // type:function size:0xB
fn_1004F989 = .text:0x1004F989; // type:function size:0x11
fn_1004F99A = .text:0x1004F99A; // type:function size:0x1B
fn_1004F9B5 = .text:0x1004F9B5; // type:function size:0xE
fn_1004F9C3 = .text:0x1004F9C3; // type:function size:0xE
fn_1004F9D1 = .text:0x1004F9D1; // type:function size:0xB
fn_1004F9DC = .text:0x1004F9DC; // type:function size:0x11
lbl_1004F9ED = .text:0x1004F9ED; // type:label
fn_1004FA00 = .text:0x1004FA00; // type:function size:0xB
lbl_1004FA0B = .text:0x1004FA0B; // type:label
fn_1004FA20 = .text:0x1004FA20; // type:function size:0xB
lbl_1004FA2B = .text:0x1004FA2B; // type:label
fn_1004FA40 = .text:0x1004FA40; // type:function size:0xB
lbl_1004FA4B = .text:0x1004FA4B; // type:label
fn_1004FA60 = .text:0x1004FA60; // type:function size:0xB
lbl_1004FA6B = .text:0x1004FA6B; // type:label
fn_1004FA80 = .text:0x1004FA80; // type:function size:0xB
fn_1004FA8B = .text:0x1004FA8B; // type:function size:0xB
lbl_1004FA96 = .text:0x1004FA96; // type:label
fn_1004FAA0 = .text:0x1004FAA0; // type:function size:0xB
fn_1004FAAB = .text:0x1004FAAB; // type:function size:0xB
fn_1004FAB6 = .text:0x1004FAB6; // type:function size:0xB
fn_1004FAC1 = .text:0x1004FAC1; // type:function size:0xB
lbl_1004FACC = .text:0x1004FACC; // type:label
fn_1004FAE0 = .text:0x1004FAE0; // type:function size:0x8
lbl_1004FAE8 = .text:0x1004FAE8; // type:label
fn_1004FB00 = .text:0x1004FB00; // type:function size:0x8
lbl_1004FB08 = .text:0x1004FB08; // type:label
fn_1004FB20 = .text:0x1004FB20; // type:function size:0x8
lbl_1004FB28 = .text:0x1004FB28; // type:label
fn_1004FB40 = .text:0x1004FB40; // type:function size:0x8
lbl_1004FB48 = .text:0x1004FB48; // type:label
fn_1004FB60 = .text:0x1004FB60; // type:function size:0xB
lbl_1004FB6B = .text:0x1004FB6B; // type:label
fn_1004FB80 = .text:0x1004FB80; // type:function size:0x8
lbl_1004FB88 = .text:0x1004FB88; // type:label
fn_1004FBA0 = .text:0x1004FBA0; // type:function size:0xB
lbl_1004FBAB = .text:0x1004FBAB; // type:label
fn_1004FBC0 = .text:0x1004FBC0; // type:function size:0x8
lbl_1004FBC8 = .text:0x1004FBC8; // type:label
__imp__RegCreateKeyExA = .rdata:0x10050000; // type:object size:0x4
__imp__RegOpenKeyExA = .rdata:0x10050004; // type:object size:0x4
__imp__RegQueryValueExA = .rdata:0x10050008; // type:object size:0x4
__imp__RegDeleteKeyA = .rdata:0x1005000C; // type:object size:0x4
__imp__RegOpenKeyA = .rdata:0x10050010; // type:object size:0x4
__imp__RegQueryInfoKeyA = .rdata:0x10050014; // type:object size:0x4
__imp__RegEnumKeyA = .rdata:0x10050018; // type:object size:0x4
__imp__RegCloseKey = .rdata:0x1005001C; // type:object size:0x4
__imp__GetUserNameW = .rdata:0x10050020; // type:object size:0x4
__imp__RegSetValueExA = .rdata:0x10050024; // type:object size:0x4
__imp__GetDiskFreeSpaceA = .rdata:0x1005002C; // type:object size:0x4
__imp__WriteFile@20 = .rdata:0x10050030; // type:object size:0x4 scope:global
__imp__CreateFileA = .rdata:0x10050034; // type:object size:0x4
__imp__CreateDirectoryA = .rdata:0x10050038; // type:object size:0x4
__imp__GetComputerNameA = .rdata:0x1005003C; // type:object size:0x4
__imp__DeleteCriticalSection@4 = .rdata:0x10050040; // type:object size:0x4 scope:global
__imp__GetProcAddress = .rdata:0x10050044; // type:object size:0x4
__imp__LoadLibraryA = .rdata:0x10050048; // type:object size:0x4
__imp__FreeLibrary = .rdata:0x1005004C; // type:object size:0x4
__imp__GetFileAttributesA = .rdata:0x10050050; // type:object size:0x4
__imp__ReadFile = .rdata:0x10050054; // type:object size:0x4
__imp__SetFilePointer = .rdata:0x10050058; // type:object size:0x4
__imp__GetFileSize = .rdata:0x1005005C; // type:object size:0x4
__imp__SetFileAttributesA = .rdata:0x10050060; // type:object size:0x4
__imp__ResetEvent = .rdata:0x10050064; // type:object size:0x4
__imp__WaitForSingleObject = .rdata:0x10050068; // type:object size:0x4
__imp__GetVersionExA = .rdata:0x1005006C; // type:object size:0x4
__imp__SetCommTimeouts = .rdata:0x10050070; // type:object size:0x4
__imp__SetCommState = .rdata:0x10050074; // type:object size:0x4
__imp__GetCommState = .rdata:0x10050078; // type:object size:0x4
__imp__PurgeComm = .rdata:0x1005007C; // type:object size:0x4
__imp__SetupComm = .rdata:0x10050080; // type:object size:0x4
__imp__SetCommMask = .rdata:0x10050084; // type:object size:0x4
__imp__EscapeCommFunction = .rdata:0x10050088; // type:object size:0x4
__imp__ClearCommError = .rdata:0x1005008C; // type:object size:0x4
__imp__SetLastError@4 = .rdata:0x10050090; // type:object size:0x4 scope:global
__imp__GlobalAlloc = .rdata:0x10050094; // type:object size:0x4
__imp__GlobalFree = .rdata:0x10050098; // type:object size:0x4
__imp__SetEvent = .rdata:0x1005009C; // type:object size:0x4
__imp__GetSystemTimeAsFileTime@4 = .rdata:0x100500A0; // type:object size:0x4 scope:global
__imp__InitializeCriticalSection = .rdata:0x100500A4; // type:object size:0x4
__imp__CreateEventA = .rdata:0x100500A8; // type:object size:0x4
__imp__Sleep = .rdata:0x100500AC; // type:object size:0x4
__imp__CloseHandle@4 = .rdata:0x100500B0; // type:object size:0x4 scope:global
__imp__WaitForMultipleObjects = .rdata:0x100500B4; // type:object size:0x4
__imp__GetTickCount = .rdata:0x100500B8; // type:object size:0x4
__imp__LeaveCriticalSection@4 = .rdata:0x100500BC; // type:object size:0x4 scope:global
__imp__WideCharToMultiByte = .rdata:0x100500C0; // type:object size:0x4
__imp__MultiByteToWideChar = .rdata:0x100500C4; // type:object size:0x4
__imp__GetLocaleInfoW = .rdata:0x100500C8; // type:object size:0x4
__imp__TlsFree@4 = .rdata:0x100500CC; // type:object size:0x4 scope:global
__imp__TlsAlloc = .rdata:0x100500D0; // type:object size:0x4
__imp__CompareStringA = .rdata:0x100500D4; // type:object size:0x4
__imp__SetEndOfFile@4 = .rdata:0x100500D8; // type:object size:0x4 scope:global
__imp__SetConsoleCtrlHandler = .rdata:0x100500DC; // type:object size:0x4
__imp__GetOEMCP = .rdata:0x100500E0; // type:object size:0x4
__imp__GetACP = .rdata:0x100500E4; // type:object size:0x4
__imp__GetStringTypeW = .rdata:0x100500E8; // type:object size:0x4
__imp__GetStringTypeA = .rdata:0x100500EC; // type:object size:0x4
__imp__GetUserDefaultLCID = .rdata:0x100500F0; // type:object size:0x4
__imp__EnumSystemLocalesA = .rdata:0x100500F4; // type:object size:0x4
__imp__GetLocaleInfoA = .rdata:0x100500F8; // type:object size:0x4
__imp__IsValidCodePage = .rdata:0x100500FC; // type:object size:0x4
__imp__IsValidLocale = .rdata:0x10050100; // type:object size:0x4
__imp__GetCPInfo@8 = .rdata:0x10050104; // type:object size:0x4 scope:global
__imp__FlushFileBuffers = .rdata:0x10050108; // type:object size:0x4
__imp__SetStdHandle = .rdata:0x1005010C; // type:object size:0x4
__imp__UnhandledExceptionFilter = .rdata:0x10050110; // type:object size:0x4
__imp__IsBadCodePtr = .rdata:0x10050114; // type:object size:0x4
__imp__IsBadReadPtr = .rdata:0x10050118; // type:object size:0x4
__imp__SetUnhandledExceptionFilter = .rdata:0x1005011C; // type:object size:0x4
__imp__GetEnvironmentStringsW@0 = .rdata:0x10050120; // type:object size:0x4 scope:global
__imp__CompareStringW = .rdata:0x10050124; // type:object size:0x4
__imp__QueryPerformanceCounter = .rdata:0x10050128; // type:object size:0x4
__imp__TlsGetValue@4 = .rdata:0x1005012C; // type:object size:0x4 scope:global
__imp__GetEnvironmentStrings = .rdata:0x10050130; // type:object size:0x4
__imp__EnterCriticalSection = .rdata:0x10050134; // type:object size:0x4
__imp__DeleteFileA = .rdata:0x10050138; // type:object size:0x4
__imp__GetCurrentThread = .rdata:0x1005013C; // type:object size:0x4
__imp__FreeEnvironmentStringsA@4 = .rdata:0x10050140; // type:object size:0x4 scope:global
__imp__LocalAlloc = .rdata:0x10050144; // type:object size:0x4
__imp__InterlockedExchange = .rdata:0x10050148; // type:object size:0x4
__imp__RaiseException = .rdata:0x1005014C; // type:object size:0x4
__imp__GetLastError@0 = .rdata:0x10050150; // type:object size:0x4 scope:global
__imp__LocalFree = .rdata:0x10050154; // type:object size:0x4
__imp__RtlUnwind = .rdata:0x10050158; // type:object size:0x4
__imp__HeapFree@12 = .rdata:0x1005015C; // type:object size:0x4 scope:global
__imp__HeapAlloc = .rdata:0x10050160; // type:object size:0x4
__imp__GetTimeZoneInformation = .rdata:0x10050164; // type:object size:0x4
__imp__GetSystemTime = .rdata:0x10050168; // type:object size:0x4
__imp__GetLocalTime = .rdata:0x1005016C; // type:object size:0x4
__imp__InterlockedDecrement = .rdata:0x10050170; // type:object size:0x4
__imp__InterlockedIncrement = .rdata:0x10050174; // type:object size:0x4
__imp__GetCommandLineA = .rdata:0x10050178; // type:object size:0x4
__imp__GetVersion = .rdata:0x1005017C; // type:object size:0x4
__imp__GetCurrentThreadId = .rdata:0x10050180; // type:object size:0x4
__imp__TlsSetValue = .rdata:0x10050184; // type:object size:0x4
__imp__FreeEnvironmentStringsW = .rdata:0x10050188; // type:object size:0x4
__imp__SetEnvironmentVariableA = .rdata:0x1005018C; // type:object size:0x4
__imp__LCMapStringW = .rdata:0x10050190; // type:object size:0x4
__imp__SetEnvironmentVariableW = .rdata:0x10050194; // type:object size:0x4
__imp__GetModuleHandleA@4 = .rdata:0x10050198; // type:object size:0x4 scope:global
__imp__GetModuleFileNameA = .rdata:0x1005019C; // type:object size:0x4
__imp__GetEnvironmentVariableA = .rdata:0x100501A0; // type:object size:0x4
__imp__HeapDestroy = .rdata:0x100501A4; // type:object size:0x4
__imp__HeapCreate = .rdata:0x100501A8; // type:object size:0x4
__imp__VirtualFree = .rdata:0x100501AC; // type:object size:0x4
__imp__VirtualAlloc@16 = .rdata:0x100501B0; // type:object size:0x4 scope:global
__imp__HeapReAlloc = .rdata:0x100501B4; // type:object size:0x4
__imp__IsBadWritePtr = .rdata:0x100501B8; // type:object size:0x4
__imp__ExitProcess@4 = .rdata:0x100501BC; // type:object size:0x4 scope:global
__imp__FatalAppExitA = .rdata:0x100501C0; // type:object size:0x4
__imp__TerminateProcess@8 = .rdata:0x100501C4; // type:object size:0x4 scope:global
__imp__GetCurrentProcess = .rdata:0x100501C8; // type:object size:0x4
__imp__HeapSize = .rdata:0x100501CC; // type:object size:0x4
__imp__SetHandleCount@4 = .rdata:0x100501D0; // type:object size:0x4 scope:global
__imp__GetStdHandle = .rdata:0x100501D4; // type:object size:0x4
__imp__GetFileType = .rdata:0x100501D8; // type:object size:0x4
__imp__GetStartupInfoA = .rdata:0x100501DC; // type:object size:0x4
__imp__LCMapStringA = .rdata:0x100501E0; // type:object size:0x4
__imp_?GetCode@LHLogger@@SAKXZ = .rdata:0x100501E8; // type:object size:0x4
__imp_?GetText@LHLogger@@SAPADXZ = .rdata:0x100501EC; // type:object size:0x4
__imp_?ChecksumBlock@LHVersion@@SAKPAEG@Z = .rdata:0x100501F0; // type:object size:0x4
__imp_?SetString@LHSPrintf@@QAAXPADZZ = .rdata:0x100501F4; // type:object size:0x4
__imp_?RegistrySetString@@YA?AW4LH_RETURN@@PAD00@Z = .rdata:0x100501F8; // type:object size:0x4
__imp_?RegistrySetULong@@YA?AW4LH_RETURN@@PAD0K@Z = .rdata:0x100501FC; // type:object size:0x4
__imp_?RegistryRetrieveData@@YA?AW4LH_RETURN@@PAD0PAEPAK@Z = .rdata:0x10050200; // type:object size:0x4
__imp_?RegistryRetrieveDouble@@YA?AW4LH_RETURN@@PAD0PAN@Z = .rdata:0x10050204; // type:object size:0x4
__imp_?RegistryCheckKey@@YAHPAD@Z = .rdata:0x10050208; // type:object size:0x4
__imp_?RegistrySetWString@@YA?AW4LH_RETURN@@PAD0PAG@Z = .rdata:0x1005020C; // type:object size:0x4
__imp_?RegistryRetrieveWString@@YA?AW4LH_RETURN@@PAD0PAGPAK@Z = .rdata:0x10050210; // type:object size:0x4
__imp_?EncryptBlock@LHVersion@@SAXPAEG@Z = .rdata:0x10050214; // type:object size:0x4
__imp_?LHRegistryGetCurrentKey@@YA?AW4LH_REG_KEY_TYPE@@XZ = .rdata:0x10050218; // type:object size:0x4
__imp_?LHRegistrySetCurrentKey@@YAXW4LH_REG_KEY_TYPE@@@Z = .rdata:0x1005021C; // type:object size:0x4
__imp_?RegistryRetrieveString@@YA?AW4LH_RETURN@@PAD00PAK@Z = .rdata:0x10050220; // type:object size:0x4
__imp_?AppendString@LHSPrintf@@QAAXPADZZ = .rdata:0x10050224; // type:object size:0x4
__imp_?ModuleChecksumString@LHVersion@@0PADA = .rdata:0x10050228; // type:object size:0x4
__imp_?ModuleChecksum@LHVersion@@0KA = .rdata:0x1005022C; // type:object size:0x4
__imp_?GetFileName@LHLogger@@SAPADPAD@Z = .rdata:0x10050230; // type:object size:0x4
__imp_?RegistryRetrieveULong@@YA?AW4LH_RETURN@@PAD0PAK@Z = .rdata:0x10050234; // type:object size:0x4
__imp_??0LHSPrintf@@QAA@PADZZ = .rdata:0x10050238; // type:object size:0x4
__imp_?LogS@LHLogger@@SAXPAD0K0ZZ = .rdata:0x1005023C; // type:object size:0x4
__imp_?_lhbeginthread@@YAKPADP6AXPAX@ZI1J@Z = .rdata:0x10050240; // type:object size:0x4
__imp_??1LHVersion@@QAE@XZ = .rdata:0x10050244; // type:object size:0x4
__imp_??0LHVersion@@QAE@PAULHVersionBlock@@@Z = .rdata:0x10050248; // type:object size:0x4
__imp_?GetMajorMinorULONG@LHVersion@@SA?AW4LH_RETURN@@PADPAK@Z = .rdata:0x1005024C; // type:object size:0x4
__imp_?RegistrySetDouble@@YA?AW4LH_RETURN@@PAD0N@Z = .rdata:0x10050250; // type:object size:0x4
__imp_?RegistrySetData@@YA?AW4LH_RETURN@@PAD0PAEK@Z = .rdata:0x10050254; // type:object size:0x4
__imp__wsprintfA = .rdata:0x1005025C; // type:object size:0x4
__imp__timeGetTime = .rdata:0x10050264; // type:object size:0x4
__imp__WSOCK32_8 = .rdata:0x1005026C; // type:object size:0x4
lbl_3_rdata_10050270 = .rdata:0x10050270; // type:object size:0x2C
??_7LHPacketisableObject@@6B@ = .rdata:0x1005029C; // type:object size:0x10
??_7LHTransportInfo@@6B@ = .rdata:0x100502AC; // type:object size:0x10
??_7LHPlayer@@6B@ = .rdata:0x100502BC; // type:object size:0x10
??_7LHConnection@@6B@ = .rdata:0x100502CC; // type:object size:0x10
??_7LHChannel@@6B@ = .rdata:0x100502DC; // type:object size:0x14
??_7LHLocalLobbyInfo@@6B@ = .rdata:0x100502F0; // type:object size:0x10
??_7LHLobbyChannel@@6B@ = .rdata:0x10050300; // type:object size:0x14
??_7LHLobby@@6B@ = .rdata:0x10050314; // type:object size:0x10
??_7LHSession@@6B@ = .rdata:0x10050324; // type:object size:0x10
??_7LHTransport@@6B@ = .rdata:0x10050334; // type:object size:0x54
??_7LHSyncTransport@@6B@ = .rdata:0x10050388; // type:object size:0x54
??_7LHAsyncTransport@@6B@ = .rdata:0x100503DC; // type:object size:0x54
??_7LHTransportRemote@@6B@ = .rdata:0x10050430; // type:object size:0x74
??_7LHTransportTCP@@6B@ = .rdata:0x100504A4; // type:object size:0x74
??_7LHTransportUDP@@6B@ = .rdata:0x10050518; // type:object size:0x74
lbl_1005058C = .rdata:0x1005058C; // type:object size:0x10
lbl_1005059C = .rdata:0x1005059C; // type:object size:0x20
lbl_100505BC = .rdata:0x100505BC; // type:object size:0x4
lbl_100505C0 = .rdata:0x100505C0; // type:object size:0xE data:string
lbl_100505D0 = .rdata:0x100505D0; // type:object size:0x8 data:string
lbl_100505D8 = .rdata:0x100505D8; // type:object size:0x4
lbl_100505DC = .rdata:0x100505DC; // type:object size:0x4
lbl_100505E0 = .rdata:0x100505E0; // type:object size:0x4
??_7LHSocket@@6B@ = .rdata:0x100505E4; // type:object size:0x28
??_7LHSocketTCP@@6B@ = .rdata:0x1005060C; // type:object size:0x28
lbl_10050634 = .rdata:0x10050634; // type:object size:0x20
lbl_10050654 = .rdata:0x10050654; // type:object size:0x20
lbl_10050674 = .rdata:0x10050674; // type:object size:0x14
lbl_10050688 = .rdata:0x10050688; // type:object size:0x16 data:string
??_7LHMail@@6B@ = .rdata:0x100506A0; // type:object size:0x18
??_7LHMailOutlook@@6B@ = .rdata:0x100506B8; // type:object size:0x18
??_7LHMailPOP3@@6B@ = .rdata:0x100506D0; // type:object size:0x18
lbl_100506E8 = .rdata:0x100506E8; // type:object size:0x2C
lbl_10050714 = .rdata:0x10050714; // type:object size:0x2C
lbl_10050740 = .rdata:0x10050740; // type:object size:0xC
lbl_1005074C = .rdata:0x1005074C; // type:object size:0x3C
_configuration_table = .rdata:0x10050788; // type:object size:0x2 scope:local
data_0x1005078a = .rdata:0x1005078A; // type:object size:0x2 scope:local
data_0x1005078c = .rdata:0x1005078C; // type:object size:0x2 scope:local
data_0x1005078e = .rdata:0x1005078E; // type:object size:0x2 scope:local
lbl_10050790 = .rdata:0x10050790; // type:object size:0x70
lbl_10050800 = .rdata:0x10050800; // type:object size:0x4C
lbl_3_rdata_1005084C = .rdata:0x1005084C; // type:object size:0xEC
_extra_dbits = .rdata:0x100508C0; // type:object size:0x78 scope:local
lbl_10050938 = .rdata:0x10050938; // type:object size:0x4C
lbl_3_rdata_10050984 = .rdata:0x10050984; // type:object size:0x14
lbl_10050998 = .rdata:0x10050998; // type:object size:0x400
lbl_10050D98 = .rdata:0x10050D98; // type:object size:0x2
lbl_10050D9A = .rdata:0x10050D9A; // type:object size:0x7E
lbl_10050E18 = .rdata:0x10050E18; // type:object size:0x78
lbl_3_rdata_10050E90 = .rdata:0x10050E90; // type:object size:0x41C
data_0x10050f90 = .rdata:0x10050F90; // type:object size:0x100 scope:global
__length_code = .rdata:0x10051090; // type:object size:0x100 scope:global
_base_length = .rdata:0x10051190; // type:object size:0x74 scope:local
_base_dist = .rdata:0x10051204; // type:object size:0xA8 scope:local
lbl_100512AC = .rdata:0x100512AC; // type:object size:0x7C
lbl_10051328 = .rdata:0x10051328; // type:object size:0x7C
lbl_100513A4 = .rdata:0x100513A4; // type:object size:0x78
lbl_1005141C = .rdata:0x1005141C; // type:object size:0x7C
$T16509 = .rdata:0x10051498; // type:object scope:local
lbl_3_rdata_10051498 = .rdata:0x10051498; // type:object size:0x10
lbl_100514A8 = .rdata:0x100514A8; // type:object size:0x10
$T267 = .rdata:0x100514B8; // type:object scope:local
lbl_3_rdata_100514B8 = .rdata:0x100514B8; // type:object size:0x10
$T16943 = .rdata:0x100514C8; // type:object size:0x18 scope:local
$T16962 = .rdata:0x100514E0; // type:object size:0x18 scope:local
lbl_100514F8 = .rdata:0x100514F8; // type:object size:0x8 data:string
lbl_10051500 = .rdata:0x10051500; // type:object size:0x14 data:string
lbl_10051514 = .rdata:0x10051514; // type:object size:0x7 data:string
lbl_1005151C = .rdata:0x1005151C; // type:object size:0x3 data:string
lbl_10051520 = .rdata:0x10051520; // type:object size:0x3 data:string
lbl_10051524 = .rdata:0x10051524; // type:object size:0x9 data:string
lbl_10051530 = .rdata:0x10051530; // type:object size:0x9 data:string
lbl_1005153C = .rdata:0x1005153C; // type:object size:0x8 data:string
lbl_10051544 = .rdata:0x10051544; // type:object size:0xA data:string
lbl_10051550 = .rdata:0x10051550; // type:object size:0x7 data:string
lbl_10051558 = .rdata:0x10051558; // type:object size:0x5 data:string
lbl_10051560 = .rdata:0x10051560; // type:object size:0x5 data:string
lbl_10051568 = .rdata:0x10051568; // type:object size:0x6 data:string
lbl_10051570 = .rdata:0x10051570; // type:object size:0x6 data:string
lbl_10051578 = .rdata:0x10051578; // type:object size:0x9 data:string
lbl_10051584 = .rdata:0x10051584; // type:object size:0x8 data:string
lbl_1005158C = .rdata:0x1005158C; // type:object size:0x4 data:string
lbl_10051590 = .rdata:0x10051590; // type:object size:0x4 data:string
lbl_10051594 = .rdata:0x10051594; // type:object size:0x4 data:string
lbl_10051598 = .rdata:0x10051598; // type:object size:0x4 data:string
lbl_1005159C = .rdata:0x1005159C; // type:object size:0x4 data:string
lbl_100515A0 = .rdata:0x100515A0; // type:object size:0x4 data:string
lbl_100515A4 = .rdata:0x100515A4; // type:object size:0x4 data:string
lbl_100515A8 = .rdata:0x100515A8; // type:object size:0x4 data:string
lbl_100515AC = .rdata:0x100515AC; // type:object size:0x4 data:string
lbl_100515B0 = .rdata:0x100515B0; // type:object size:0x4 data:string
lbl_100515B4 = .rdata:0x100515B4; // type:object size:0x4 data:string
lbl_100515B8 = .rdata:0x100515B8; // type:object size:0x4 data:string
lbl_100515BC = .rdata:0x100515BC; // type:object size:0x9 data:string
lbl_100515C8 = .rdata:0x100515C8; // type:object size:0x7 data:string
lbl_100515D0 = .rdata:0x100515D0; // type:object size:0x9 data:string
lbl_100515DC = .rdata:0x100515DC; // type:object size:0xA data:string
lbl_100515E8 = .rdata:0x100515E8; // type:object size:0x8 data:string
lbl_100515F0 = .rdata:0x100515F0; // type:object size:0x7 data:string
lbl_100515F8 = .rdata:0x100515F8; // type:object size:0x7 data:string
lbl_10051600 = .rdata:0x10051600; // type:object size:0x4 data:string
lbl_10051604 = .rdata:0x10051604; // type:object size:0x4 data:string
lbl_10051608 = .rdata:0x10051608; // type:object size:0x4 data:string
lbl_1005160C = .rdata:0x1005160C; // type:object size:0x4 data:string
lbl_10051610 = .rdata:0x10051610; // type:object size:0x4 data:string
lbl_10051614 = .rdata:0x10051614; // type:object size:0x4 data:string
lbl_10051618 = .rdata:0x10051618; // type:object size:0x4 data:string
lbl_1005161C = .rdata:0x1005161C; // type:object size:0x4 data:string
lbl_10051620 = .rdata:0x10051620; // type:object size:0x6 data:string
lbl_10051628 = .rdata:0x10051628; // type:object size:0x18
??_C@_02JHIA@TZ?$AA@ = .rdata:0x10051640; // type:object scope:global data:string
lbl_3_rdata_10051640 = .rdata:0x10051640; // type:object size:0x8
lbl_10051648 = .rdata:0x10051648; // type:object size:0x10
lbl_10051658 = .rdata:0x10051658; // type:object size:0x18
lbl_10051670 = .rdata:0x10051670; // type:object size:0x10
$T17343 = .rdata:0x10051680; // type:object scope:local
lbl_3_rdata_10051680 = .rdata:0x10051680; // type:object size:0x10
lbl_10051690 = .rdata:0x10051690; // type:object size:0x18
lbl_100516A8 = .rdata:0x100516A8; // type:object size:0x18
lbl_3_rdata_100516C0 = .rdata:0x100516C0; // type:object size:0x30 data:string
??_C@_0BF@BBGL@__MSVCRT_HEAP_SELECT?$AA@ = .rdata:0x100516D8; // type:object size:0x18 scope:global data:string
lbl_100516F0 = .rdata:0x100516F0; // type:object size:0x18
lbl_10051708 = .rdata:0x10051708; // type:object size:0x18
lbl_10051720 = .rdata:0x10051720; // type:object size:0x8
lbl_10051728 = .rdata:0x10051728; // type:object size:0x8
lbl_10051730 = .rdata:0x10051730; // type:object size:0x8
??_C@_0BK@JEGK@IsProcessorFeaturePresent?$AA@ = .rdata:0x10051738; // type:object scope:global data:string
lbl_3_rdata_10051738 = .rdata:0x10051738; // type:object size:0x18
lbl_10051750 = .rdata:0x10051750; // type:object size:0x2 data:string
lbl_3_rdata_10051752 = .rdata:0x10051752; // type:object size:0x16
??_C@_08OBID@KERNEL32?$AA@ = .rdata:0x10051754; // type:object scope:global data:string
__real@8@00000000000000000000 = .rdata:0x10051760; // type:object scope:global
??_C@_05OFLO@e?$CL000?$AA@ = .rdata:0x10051768; // type:object scope:global data:string
lbl_3_rdata_10051768 = .rdata:0x10051768; // type:object size:0x8
lbl_10051770 = .rdata:0x10051770; // type:object size:0x5C
lbl_100517CC = .rdata:0x100517CC; // type:object size:0x10
lbl_100517DC = .rdata:0x100517DC; // type:object size:0x7 data:string
??_C@_01A@?$AA?$AA@ = .rdata:0x100517E4; // type:object size:0x4 scope:global
??_C@_13A@?$AA?$AA?$AA?$AA@ = .rdata:0x100517E8; // type:object size:0x8 scope:global
$T17201 = .rdata:0x100517F0; // type:object size:0x18 scope:local
lbl_10051808 = .rdata:0x10051808; // type:object size:0x8 data:string
lbl_10051810 = .rdata:0x10051810; // type:object size:0xB data:string
lbl_1005181C = .rdata:0x1005181C; // type:object size:0xC data:string
lbl_10051828 = .rdata:0x10051828; // type:object size:0x9 data:string
lbl_10051834 = .rdata:0x10051834; // type:object size:0xB data:string
lbl_10051840 = .rdata:0x10051840; // type:object size:0x7 data:string
lbl_10051848 = .rdata:0x10051848; // type:object size:0x2 data:string
lbl_1005184C = .rdata:0x1005184C; // type:object size:0x3 data:string
lbl_10051850 = .rdata:0x10051850; // type:object size:0x2 data:string
lbl_10051854 = .rdata:0x10051854; // type:object size:0x4 data:string
lbl_10051858 = .rdata:0x10051858; // type:object size:0x44
lbl_1005189C = .rdata:0x1005189C; // type:object size:0xF data:string
lbl_100518AC = .rdata:0x100518AC; // type:object size:0xE data:string
lbl_100518BC = .rdata:0x100518BC; // type:object size:0xD data:string
lbl_100518CC = .rdata:0x100518CC; // type:object size:0xF data:string
lbl_100518DC = .rdata:0x100518DC; // type:object size:0x25 data:string
lbl_10051904 = .rdata:0x10051904; // type:object size:0x35 data:string
lbl_1005193C = .rdata:0x1005193C; // type:object size:0x35 data:string
lbl_10051974 = .rdata:0x10051974; // type:object size:0x26 data:string
lbl_1005199C = .rdata:0x1005199C; // type:object size:0x35 data:string
lbl_100519D4 = .rdata:0x100519D4; // type:object size:0x29 data:string
lbl_10051A00 = .rdata:0x10051A00; // type:object size:0x21 data:string
lbl_10051A24 = .rdata:0x10051A24; // type:object size:0x2D data:string
lbl_10051A54 = .rdata:0x10051A54; // type:object size:0x2C data:string
lbl_10051A80 = .rdata:0x10051A80; // type:object size:0x21 data:string
lbl_10051AA4 = .rdata:0x10051AA4; // type:object size:0x2C data:string
lbl_10051AD0 = .rdata:0x10051AD0; // type:object size:0x2A data:string
lbl_10051AFC = .rdata:0x10051AFC; // type:object size:0x25 data:string
lbl_10051B24 = .rdata:0x10051B24; // type:object size:0x25 data:string
lbl_10051B4C = .rdata:0x10051B4C; // type:object size:0x3 data:string
lbl_10051B50 = .rdata:0x10051B50; // type:object size:0x1A data:string
lbl_10051B6C = .rdata:0x10051B6C; // type:object size:0x4 data:string
lbl_10051B70 = .rdata:0x10051B70; // type:object size:0x17 data:string
lbl_10051B88 = .rdata:0x10051B88; // type:object size:0x9 data:string
lbl_10051B94 = .rdata:0x10051B94; // type:object size:0x8 data:string
lbl_10051B9C = .rdata:0x10051B9C; // type:object size:0x6 data:string
lbl_10051BA4 = .rdata:0x10051BA4; // type:object size:0x8 data:string
lbl_10051BAC = .rdata:0x10051BAC; // type:object size:0xA data:string
lbl_10051BB8 = .rdata:0x10051BB8; // type:object size:0x5 data:string
lbl_10051BC0 = .rdata:0x10051BC0; // type:object size:0x9 data:string
lbl_10051BCC = .rdata:0x10051BCC; // type:object size:0xA data:string
lbl_10051BD8 = .rdata:0x10051BD8; // type:object size:0x13 data:string
lbl_10051BEC = .rdata:0x10051BEC; // type:object size:0xD data:string
lbl_10051BFC = .rdata:0x10051BFC; // type:object size:0x7 data:string
lbl_10051C04 = .rdata:0x10051C04; // type:object size:0xB data:string
lbl_10051C10 = .rdata:0x10051C10; // type:object size:0xB data:string
lbl_10051C1C = .rdata:0x10051C1C; // type:object size:0xC data:string
lbl_10051C28 = .rdata:0x10051C28; // type:object size:0xA data:string
lbl_10051C34 = .rdata:0x10051C34; // type:object size:0x7 data:string
lbl_10051C3C = .rdata:0x10051C3C; // type:object size:0x16 data:string
lbl_10051C54 = .rdata:0x10051C54; // type:object size:0xA data:string
lbl_10051C60 = .rdata:0x10051C60; // type:object size:0x8 data:string
lbl_10051C68 = .rdata:0x10051C68; // type:object size:0x8 data:string
lbl_10051C70 = .rdata:0x10051C70; // type:object size:0x7 data:string
lbl_10051C78 = .rdata:0x10051C78; // type:object size:0x8 data:string
lbl_10051C80 = .rdata:0x10051C80; // type:object size:0x7 data:string
lbl_10051C88 = .rdata:0x10051C88; // type:object size:0x8 data:string
lbl_10051C90 = .rdata:0x10051C90; // type:object size:0x7 data:string
lbl_10051C98 = .rdata:0x10051C98; // type:object size:0x7 data:string
lbl_10051CA0 = .rdata:0x10051CA0; // type:object size:0x8 data:string
lbl_10051CA8 = .rdata:0x10051CA8; // type:object size:0x8 data:string
lbl_10051CB0 = .rdata:0x10051CB0; // type:object size:0xA data:string
lbl_10051CBC = .rdata:0x10051CBC; // type:object size:0x7 data:string
lbl_10051CC4 = .rdata:0x10051CC4; // type:object size:0x7 data:string
lbl_10051CCC = .rdata:0x10051CCC; // type:object size:0x8 data:string
lbl_10051CD4 = .rdata:0x10051CD4; // type:object size:0x8 data:string
lbl_10051CDC = .rdata:0x10051CDC; // type:object size:0x6 data:string
lbl_10051CE4 = .rdata:0x10051CE4; // type:object size:0x1B data:string
lbl_10051D00 = .rdata:0x10051D00; // type:object size:0xE data:string
lbl_10051D10 = .rdata:0x10051D10; // type:object size:0xF data:string
lbl_10051D20 = .rdata:0x10051D20; // type:object size:0x12 data:string
lbl_10051D34 = .rdata:0x10051D34; // type:object size:0xC data:string
lbl_10051D40 = .rdata:0x10051D40; // type:object size:0xD data:string
lbl_10051D50 = .rdata:0x10051D50; // type:object size:0xC data:string
lbl_10051D5C = .rdata:0x10051D5C; // type:object size:0xD data:string
lbl_10051D6C = .rdata:0x10051D6C; // type:object size:0x7 data:string
lbl_10051D74 = .rdata:0x10051D74; // type:object size:0xC data:string
lbl_10051D80 = .rdata:0x10051D80; // type:object size:0x9 data:string
lbl_10051D8C = .rdata:0x10051D8C; // type:object size:0x9 data:string
lbl_10051D98 = .rdata:0x10051D98; // type:object size:0x3 data:string
lbl_10051D9C = .rdata:0x10051D9C; // type:object size:0xC data:string
lbl_10051DA8 = .rdata:0x10051DA8; // type:object size:0xA data:string
lbl_10051DB4 = .rdata:0x10051DB4; // type:object size:0x8 data:string
lbl_10051DBC = .rdata:0x10051DBC; // type:object size:0xE data:string
lbl_10051DCC = .rdata:0x10051DCC; // type:object size:0x8 data:string
lbl_10051DD4 = .rdata:0x10051DD4; // type:object size:0x6 data:string
lbl_10051DDC = .rdata:0x10051DDC; // type:object size:0x6 data:string
lbl_10051DE4 = .rdata:0x10051DE4; // type:object size:0x8 data:string
lbl_10051DEC = .rdata:0x10051DEC; // type:object size:0x8 data:string
lbl_10051DF4 = .rdata:0x10051DF4; // type:object size:0x4 data:string
lbl_10051DF8 = .rdata:0x10051DF8; // type:object size:0x3 data:string
lbl_10051DFC = .rdata:0x10051DFC; // type:object size:0x3 data:string
lbl_10051E00 = .rdata:0x10051E00; // type:object size:0x6 data:string
lbl_10051E08 = .rdata:0x10051E08; // type:object size:0x10 data:string
lbl_10051E18 = .rdata:0x10051E18; // type:object size:0x12 data:string
lbl_10051E2C = .rdata:0x10051E2C; // type:object size:0x10 data:string
lbl_10051E3C = .rdata:0x10051E3C; // type:object size:0x14 data:string
lbl_10051E50 = .rdata:0x10051E50; // type:object size:0xD data:string
lbl_10051E60 = .rdata:0x10051E60; // type:object size:0x11 data:string
lbl_10051E74 = .rdata:0x10051E74; // type:object size:0xF data:string
lbl_10051E84 = .rdata:0x10051E84; // type:object size:0x12 data:string
lbl_10051E98 = .rdata:0x10051E98; // type:object size:0xF data:string
lbl_10051EA8 = .rdata:0x10051EA8; // type:object size:0x10 data:string
lbl_10051EB8 = .rdata:0x10051EB8; // type:object size:0x11 data:string
lbl_10051ECC = .rdata:0x10051ECC; // type:object size:0x12 data:string
lbl_10051EE0 = .rdata:0x10051EE0; // type:object size:0x14 data:string
lbl_10051EF4 = .rdata:0x10051EF4; // type:object size:0x10 data:string
lbl_10051F04 = .rdata:0x10051F04; // type:object size:0x1B data:string
lbl_10051F20 = .rdata:0x10051F20; // type:object size:0x13 data:string
lbl_10051F34 = .rdata:0x10051F34; // type:object size:0x11 data:string
lbl_10051F48 = .rdata:0x10051F48; // type:object size:0xE data:string
lbl_10051F58 = .rdata:0x10051F58; // type:object size:0x10 data:string
lbl_10051F68 = .rdata:0x10051F68; // type:object size:0x12 data:string
lbl_10051F7C = .rdata:0x10051F7C; // type:object size:0x15 data:string
lbl_10051F94 = .rdata:0x10051F94; // type:object size:0x12 data:string
lbl_10051FA8 = .rdata:0x10051FA8; // type:object size:0x11 data:string
lbl_10051FBC = .rdata:0x10051FBC; // type:object size:0xA data:string
lbl_10051FC8 = .rdata:0x10051FC8; // type:object size:0xE data:string
lbl_10051FD8 = .rdata:0x10051FD8; // type:object size:0xE data:string
lbl_10051FE8 = .rdata:0x10051FE8; // type:object size:0xD data:string
lbl_10051FF8 = .rdata:0x10051FF8; // type:object size:0x12 data:string
lbl_1005200C = .rdata:0x1005200C; // type:object size:0x14 data:string
lbl_10052020 = .rdata:0x10052020; // type:object size:0x10 data:string
lbl_10052030 = .rdata:0x10052030; // type:object size:0xD data:string
lbl_10052040 = .rdata:0x10052040; // type:object size:0x12 data:string
lbl_10052054 = .rdata:0x10052054; // type:object size:0x10 data:string
lbl_10052064 = .rdata:0x10052064; // type:object size:0xF data:string
lbl_10052074 = .rdata:0x10052074; // type:object size:0xC data:string
lbl_10052080 = .rdata:0x10052080; // type:object size:0xB data:string
lbl_1005208C = .rdata:0x1005208C; // type:object size:0xB data:string
lbl_10052098 = .rdata:0x10052098; // type:object size:0x1A data:string
lbl_100520B4 = .rdata:0x100520B4; // type:object size:0x15 data:string
lbl_100520CC = .rdata:0x100520CC; // type:object size:0xB data:string
lbl_100520D8 = .rdata:0x100520D8; // type:object size:0x10 data:string
lbl_100520E8 = .rdata:0x100520E8; // type:object size:0xC data:string
lbl_100520F4 = .rdata:0x100520F4; // type:object size:0x12 data:string
lbl_10052108 = .rdata:0x10052108; // type:object size:0xC data:string
lbl_10052114 = .rdata:0x10052114; // type:object size:0xF data:string
lbl_10052124 = .rdata:0x10052124; // type:object size:0xC data:string
lbl_10052130 = .rdata:0x10052130; // type:object size:0x11 data:string
lbl_10052144 = .rdata:0x10052144; // type:object size:0xE data:string
lbl_10052154 = .rdata:0x10052154; // type:object size:0x14 data:string
lbl_10052168 = .rdata:0x10052168; // type:object size:0x12 data:string
lbl_1005217C = .rdata:0x1005217C; // type:object size:0x13 data:string
lbl_10052190 = .rdata:0x10052190; // type:object size:0x11 data:string
lbl_100521A4 = .rdata:0x100521A4; // type:object size:0x8 data:string
lbl_100521AC = .rdata:0x100521AC; // type:object size:0x4 data:string
lbl_100521B0 = .rdata:0x100521B0; // type:object size:0x4 data:string
lbl_100521B4 = .rdata:0x100521B4; // type:object size:0x9 data:string
lbl_100521C0 = .rdata:0x100521C0; // type:object size:0x8 data:string
lbl_100521C8 = .rdata:0x100521C8; // type:object size:0xB data:string
lbl_100521D4 = .rdata:0x100521D4; // type:object size:0x11 data:string
lbl_100521E8 = .rdata:0x100521E8; // type:object size:0x11 data:string
lbl_100521FC = .rdata:0x100521FC; // type:object size:0x9 data:string
lbl_10052208 = .rdata:0x10052208; // type:object size:0x4 data:string
lbl_1005220C = .rdata:0x1005220C; // type:object size:0x4 data:string
$T17182 = .rdata:0x10052210; // type:object size:0x10 scope:local
$T17198 = .rdata:0x10052220; // type:object size:0x18 scope:local
??_C@_0BD@NJFP@GetLastActivePopup?$AA@ = .rdata:0x10052238; // type:object scope:global data:string
lbl_3_rdata_10052238 = .rdata:0x10052238; // type:object size:0x60
??_C@_0BA@GILI@GetActiveWindow?$AA@ = .rdata:0x1005224C; // type:object scope:global data:string
??_C@_0M@PKCK@MessageBoxA?$AA@ = .rdata:0x1005225C; // type:object scope:global data:string
??_C@_0L@HKL@user32?4dll?$AA@ = .rdata:0x10052268; // type:object scope:global data:string
??_C@_06PAPI@1?$CDQNAN?$AA@ = .rdata:0x10052274; // type:object scope:global data:string
??_C@_05BGNL@1?$CDINF?$AA@ = .rdata:0x1005227C; // type:object scope:global data:string
??_C@_05EDPF@1?$CDIND?$AA@ = .rdata:0x10052284; // type:object scope:global data:string
??_C@_06LKFM@1?$CDSNAN?$AA@ = .rdata:0x1005228C; // type:object scope:global data:string
$T17215 = .rdata:0x10052298; // type:object size:0x18 scope:local
lbl_100522B0 = .rdata:0x100522B0; // type:object size:0x18
$T17148 = .rdata:0x100522C8; // type:object size:0x10 scope:local
$T17152 = .rdata:0x100522D8; // type:object size:0x10 scope:local
lbl_100522E8 = .rdata:0x100522E8; // type:object size:0x1C
lbl_10052304 = .rdata:0x10052304; // type:object size:0x4
lbl_10052308 = .rdata:0x10052308; // type:object size:0x4
lbl_1005230C = .rdata:0x1005230C; // type:object size:0x194
lbl_100524A0 = .rdata:0x100524A0; // type:object size:0x11 data:string
lbl_100524B4 = .rdata:0x100524B4; // type:object size:0x11 data:string
lbl_100524C8 = .rdata:0x100524C8; // type:object size:0x4
lbl_100524CC = .rdata:0x100524CC; // type:object size:0x1C
lbl_100524E8 = .rdata:0x100524E8; // type:object size:0x20
lbl_10052508 = .rdata:0x10052508; // type:object size:0x8
lbl_10052510 = .rdata:0x10052510; // type:object size:0x20
lbl_10052530 = .rdata:0x10052530; // type:object size:0x10
lbl_10052540 = .rdata:0x10052540; // type:object size:0x20
lbl_10052560 = .rdata:0x10052560; // type:object size:0x8
lbl_10052568 = .rdata:0x10052568; // type:object size:0x20
lbl_10052588 = .rdata:0x10052588; // type:object size:0x8
lbl_10052590 = .rdata:0x10052590; // type:object size:0x20
lbl_100525B0 = .rdata:0x100525B0; // type:object size:0x8
lbl_100525B8 = .rdata:0x100525B8; // type:object size:0x20
lbl_100525D8 = .rdata:0x100525D8; // type:object size:0x8
lbl_100525E0 = .rdata:0x100525E0; // type:object size:0x20
lbl_10052600 = .rdata:0x10052600; // type:object size:0x18
lbl_10052618 = .rdata:0x10052618; // type:object size:0x20
lbl_10052638 = .rdata:0x10052638; // type:object size:0x18
lbl_10052650 = .rdata:0x10052650; // type:object size:0x20
lbl_10052670 = .rdata:0x10052670; // type:object size:0x18
lbl_10052688 = .rdata:0x10052688; // type:object size:0x20
lbl_100526A8 = .rdata:0x100526A8; // type:object size:0x8
lbl_100526B0 = .rdata:0x100526B0; // type:object size:0x20
lbl_100526D0 = .rdata:0x100526D0; // type:object size:0x8
lbl_100526D8 = .rdata:0x100526D8; // type:object size:0x20
lbl_100526F8 = .rdata:0x100526F8; // type:object size:0x8
lbl_10052700 = .rdata:0x10052700; // type:object size:0x20
lbl_10052720 = .rdata:0x10052720; // type:object size:0x10
lbl_10052730 = .rdata:0x10052730; // type:object size:0x20
lbl_10052750 = .rdata:0x10052750; // type:object size:0x8
lbl_10052758 = .rdata:0x10052758; // type:object size:0x20
lbl_10052778 = .rdata:0x10052778; // type:object size:0x18
lbl_10052790 = .rdata:0x10052790; // type:object size:0x20
lbl_100527B0 = .rdata:0x100527B0; // type:object size:0x8
lbl_100527B8 = .rdata:0x100527B8; // type:object size:0x20
lbl_100527D8 = .rdata:0x100527D8; // type:object size:0x8
lbl_100527E0 = .rdata:0x100527E0; // type:object size:0x20
lbl_10052800 = .rdata:0x10052800; // type:object size:0x18
lbl_10052818 = .rdata:0x10052818; // type:object size:0x20
lbl_10052838 = .rdata:0x10052838; // type:object size:0x8
lbl_10052840 = .rdata:0x10052840; // type:object size:0x20
lbl_10052860 = .rdata:0x10052860; // type:object size:0x8
lbl_10052868 = .rdata:0x10052868; // type:object size:0x20
lbl_10052888 = .rdata:0x10052888; // type:object size:0x10
lbl_10052898 = .rdata:0x10052898; // type:object size:0x20
lbl_100528B8 = .rdata:0x100528B8; // type:object size:0x8
lbl_100528C0 = .rdata:0x100528C0; // type:object size:0x20
lbl_100528E0 = .rdata:0x100528E0; // type:object size:0x8
lbl_100528E8 = .rdata:0x100528E8; // type:object size:0x20
lbl_10052908 = .rdata:0x10052908; // type:object size:0x18
lbl_10052920 = .rdata:0x10052920; // type:object size:0x20
lbl_10052940 = .rdata:0x10052940; // type:object size:0x8
lbl_10052948 = .rdata:0x10052948; // type:object size:0x20
lbl_10052968 = .rdata:0x10052968; // type:object size:0x18
lbl_10052980 = .rdata:0x10052980; // type:object size:0x20
lbl_100529A0 = .rdata:0x100529A0; // type:object size:0x18
lbl_100529B8 = .rdata:0x100529B8; // type:object size:0x20
lbl_100529D8 = .rdata:0x100529D8; // type:object size:0x30
lbl_10052A08 = .rdata:0x10052A08; // type:object size:0x20
lbl_10052A28 = .rdata:0x10052A28; // type:object size:0x18
lbl_10052A40 = .rdata:0x10052A40; // type:object size:0x20
lbl_10052A60 = .rdata:0x10052A60; // type:object size:0x8
lbl_10052A68 = .rdata:0x10052A68; // type:object size:0x20
lbl_10052A88 = .rdata:0x10052A88; // type:object size:0x38
lbl_10052AC0 = .rdata:0x10052AC0; // type:object size:0x20
lbl_10052AE0 = .rdata:0x10052AE0; // type:object size:0x20
lbl_10052B00 = .rdata:0x10052B00; // type:object size:0x20
lbl_10052B20 = .rdata:0x10052B20; // type:object size:0x20
lbl_10052B40 = .rdata:0x10052B40; // type:object size:0x20
lbl_10052B60 = .rdata:0x10052B60; // type:object size:0x28
lbl_10052B88 = .rdata:0x10052B88; // type:object size:0x20
lbl_10052BA8 = .rdata:0x10052BA8; // type:object size:0x18
lbl_10052BC0 = .rdata:0x10052BC0; // type:object size:0x20
lbl_10052BE0 = .rdata:0x10052BE0; // type:object size:0x10
lbl_10052BF0 = .rdata:0x10052BF0; // type:object size:0x20
lbl_10052C10 = .rdata:0x10052C10; // type:object size:0x20
lbl_10052C30 = .rdata:0x10052C30; // type:object size:0x20
lbl_10052C50 = .rdata:0x10052C50; // type:object size:0x18
lbl_10052C68 = .rdata:0x10052C68; // type:object size:0x20
lbl_10052C88 = .rdata:0x10052C88; // type:object size:0x10
lbl_10052C98 = .rdata:0x10052C98; // type:object size:0x20
lbl_10052CB8 = .rdata:0x10052CB8; // type:object size:0x18
lbl_10052CD0 = .rdata:0x10052CD0; // type:object size:0x20
lbl_10052CF0 = .rdata:0x10052CF0; // type:object size:0x18
lbl_10052D08 = .rdata:0x10052D08; // type:object size:0x20
lbl_10052D28 = .rdata:0x10052D28; // type:object size:0x10
lbl_10052D38 = .rdata:0x10052D38; // type:object size:0x20
lbl_10052D58 = .rdata:0x10052D58; // type:object size:0x10
lbl_10052D68 = .rdata:0x10052D68; // type:object size:0x20
lbl_10052D88 = .rdata:0x10052D88; // type:object size:0x8
lbl_10052D90 = .rdata:0x10052D90; // type:object size:0x20
lbl_10052DB0 = .rdata:0x10052DB0; // type:object size:0x10
lbl_10052DC0 = .rdata:0x10052DC0; // type:object size:0x20
lbl_10052DE0 = .rdata:0x10052DE0; // type:object size:0x8
lbl_10052DE8 = .rdata:0x10052DE8; // type:object size:0x20
lbl_10052E08 = .rdata:0x10052E08; // type:object size:0x10
lbl_10052E18 = .rdata:0x10052E18; // type:object size:0x20
lbl_10052E38 = .rdata:0x10052E38; // type:object size:0x8
lbl_10052E40 = .rdata:0x10052E40; // type:object size:0x20
lbl_10052E60 = .rdata:0x10052E60; // type:object size:0x8
lbl_10052E68 = .rdata:0x10052E68; // type:object size:0x20
lbl_10052E88 = .rdata:0x10052E88; // type:object size:0x8
lbl_10052E90 = .rdata:0x10052E90; // type:object size:0x20
lbl_10052EB0 = .rdata:0x10052EB0; // type:object size:0x20
lbl_10052ED0 = .rdata:0x10052ED0; // type:object size:0x20
lbl_10052EF0 = .rdata:0x10052EF0; // type:object size:0x8
lbl_10052EF8 = .rdata:0x10052EF8; // type:object size:0x20
lbl_10052F18 = .rdata:0x10052F18; // type:object size:0x8
lbl_10052F20 = .rdata:0x10052F20; // type:object size:0x20
lbl_10052F40 = .rdata:0x10052F40; // type:object size:0x8
lbl_10052F48 = .rdata:0x10052F48; // type:object size:0x20
lbl_10052F68 = .rdata:0x10052F68; // type:object size:0x8
lbl_10052F70 = .rdata:0x10052F70; // type:object size:0x20
lbl_10052F90 = .rdata:0x10052F90; // type:object size:0x8
lbl_10052F98 = .rdata:0x10052F98; // type:object size:0x20
lbl_10052FB8 = .rdata:0x10052FB8; // type:object size:0x10
lbl_10052FC8 = .rdata:0x10052FC8; // type:object size:0x20
lbl_10052FE8 = .rdata:0x10052FE8; // type:object size:0x8
lbl_10052FF0 = .rdata:0x10052FF0; // type:object size:0x20
lbl_10053010 = .rdata:0x10053010; // type:object size:0x8
lbl_10053018 = .rdata:0x10053018; // type:object size:0x20
lbl_10053038 = .rdata:0x10053038; // type:object size:0x20
lbl_10053058 = .rdata:0x10053058; // type:object size:0x20
lbl_10053078 = .rdata:0x10053078; // type:object size:0x18
lbl_10053090 = .rdata:0x10053090; // type:object size:0x20
lbl_100530B0 = .rdata:0x100530B0; // type:object size:0x28
lbl_100530D8 = .rdata:0x100530D8; // type:object size:0x20
lbl_100530F8 = .rdata:0x100530F8; // type:object size:0x40
lbl_10053138 = .rdata:0x10053138; // type:object size:0x20
lbl_10053158 = .rdata:0x10053158; // type:object size:0x8
lbl_10053160 = .rdata:0x10053160; // type:object size:0x20
lbl_10053180 = .rdata:0x10053180; // type:object size:0x8
lbl_10053188 = .rdata:0x10053188; // type:object size:0x20
lbl_100531A8 = .rdata:0x100531A8; // type:object size:0x8
lbl_100531B0 = .rdata:0x100531B0; // type:object size:0x20
lbl_100531D0 = .rdata:0x100531D0; // type:object size:0x8
lbl_100531D8 = .rdata:0x100531D8; // type:object size:0x20
lbl_100531F8 = .rdata:0x100531F8; // type:object size:0x10
lbl_10053208 = .rdata:0x10053208; // type:object size:0x20
lbl_10053228 = .rdata:0x10053228; // type:object size:0x20
lbl_10053248 = .rdata:0x10053248; // type:object size:0x20
lbl_10053268 = .rdata:0x10053268; // type:object size:0x8
lbl_10053270 = .rdata:0x10053270; // type:object size:0x20
lbl_10053290 = .rdata:0x10053290; // type:object size:0x8
lbl_10053298 = .rdata:0x10053298; // type:object size:0x20
lbl_100532B8 = .rdata:0x100532B8; // type:object size:0x8
lbl_100532C0 = .rdata:0x100532C0; // type:object size:0x20
lbl_100532E0 = .rdata:0x100532E0; // type:object size:0x8
lbl_100532E8 = .rdata:0x100532E8; // type:object size:0x20
lbl_10053308 = .rdata:0x10053308; // type:object size:0x8
lbl_10053310 = .rdata:0x10053310; // type:object size:0x20
lbl_10053330 = .rdata:0x10053330; // type:object size:0x8
lbl_10053338 = .rdata:0x10053338; // type:object size:0x20
lbl_10053358 = .rdata:0x10053358; // type:object size:0x8
lbl_10053360 = .rdata:0x10053360; // type:object size:0x20
lbl_10053380 = .rdata:0x10053380; // type:object size:0x8
lbl_10053388 = .rdata:0x10053388; // type:object size:0x40
lbl_100533C8 = .rdata:0x100533C8; // type:object size:0x78
lbl_10053440 = .rdata:0x10053440; // type:object size:0x14
lbl_10053454 = .rdata:0x10053454; // type:object size:0xD481
___xc_a = .data:0x10061000; // type:object scope:global
___xc_z = .data:0x10061094; // type:object scope:global
___xi_a = .data:0x10061098; // type:object scope:global
___xi_z = .data:0x100610B0; // type:object scope:global
___xp_a = .data:0x100610B4; // type:object scope:global
___xp_z = .data:0x100610BC; // type:object scope:global
___xt_a = .data:0x100610C0; // type:object scope:global
___xt_z = .data:0x100610C8; // type:object scope:global
?LH_CHANNEL_DEFAULT_NAME@@3PBDB = .data:0x100610D8; // type:object size:0x4
lbl_100610DC = .data:0x100610DC; // type:object size:0x8 data:string
lbl_100610E4 = .data:0x100610E4; // type:object size:0x1C
lbl_10061100 = .data:0x10061100; // type:object size:0x194
lbl_10061294 = .data:0x10061294; // type:object size:0x15 data:string
lbl_100612AC = .data:0x100612AC; // type:object size:0x8
lbl_100612B4 = .data:0x100612B4; // type:object size:0x19 data:string
lbl_100612D0 = .data:0x100612D0; // type:object size:0x41 data:string
lbl_10061314 = .data:0x10061314; // type:object size:0x19 data:string
lbl_10061330 = .data:0x10061330; // type:object size:0xE data:string
lbl_10061340 = .data:0x10061340; // type:object size:0xA data:string
lbl_1006134C = .data:0x1006134C; // type:object size:0xD data:string
lbl_1006135C = .data:0x1006135C; // type:object size:0xC data:string
lbl_10061368 = .data:0x10061368; // type:object size:0x14
lbl_1006137C = .data:0x1006137C; // type:object size:0x4
lbl_10061380 = .data:0x10061380; // type:object size:0x4
lbl_10061384 = .data:0x10061384; // type:object size:0x4
lbl_10061388 = .data:0x10061388; // type:object size:0x14
lbl_1006139C = .data:0x1006139C; // type:object size:0x4
lbl_100613A0 = .data:0x100613A0; // type:object size:0x4
lbl_100613A4 = .data:0x100613A4; // type:object size:0x4
lbl_100613A8 = .data:0x100613A8; // type:object size:0x4
lbl_100613AC = .data:0x100613AC; // type:object size:0x7 data:string
lbl_100613B4 = .data:0x100613B4; // type:object size:0x3 data:string
lbl_100613B8 = .data:0x100613B8; // type:object size:0x52 data:string
lbl_1006140C = .data:0x1006140C; // type:object size:0x3 data:string
lbl_10061410 = .data:0x10061410; // type:object size:0x10 data:string
lbl_10061420 = .data:0x10061420; // type:object size:0xB data:string
lbl_1006142C = .data:0x1006142C; // type:object size:0x4 data:string
lbl_10061430 = .data:0x10061430; // type:object size:0x8 data:string
lbl_10061438 = .data:0x10061438; // type:object size:0x28 data:string
lbl_10061460 = .data:0x10061460; // type:object size:0x5 data:string
lbl_10061468 = .data:0x10061468; // type:object size:0x4 data:string
lbl_1006146C = .data:0x1006146C; // type:object size:0x3 data:string
lbl_10061470 = .data:0x10061470; // type:object size:0x3 data:string
lbl_10061474 = .data:0x10061474; // type:object size:0x8 data:string
lbl_1006147C = .data:0x1006147C; // type:object size:0x3 data:string
lbl_10061480 = .data:0x10061480; // type:object size:0x4
lbl_10061484 = .data:0x10061484; // type:object size:0x2B data:string
lbl_100614B0 = .data:0x100614B0; // type:object size:0x7 data:string
lbl_100614B8 = .data:0x100614B8; // type:object size:0xC data:string
lbl_100614C4 = .data:0x100614C4; // type:object size:0x5 data:string
lbl_100614CC = .data:0x100614CC; // type:object size:0x5 data:string
lbl_100614D4 = .data:0x100614D4; // type:object size:0x6 data:string
lbl_100614DC = .data:0x100614DC; // type:object size:0x3 data:string
lbl_100614E0 = .data:0x100614E0; // type:object size:0x2 data:string
lbl_100614E4 = .data:0x100614E4; // type:object size:0xA data:string
lbl_100614F0 = .data:0x100614F0; // type:object size:0xA data:string
lbl_100614FC = .data:0x100614FC; // type:object size:0x8 data:string
lbl_10061504 = .data:0x10061504; // type:object size:0x13 data:string
lbl_10061518 = .data:0x10061518; // type:object size:0x6 data:string
lbl_10061520 = .data:0x10061520; // type:object size:0xE data:string
lbl_10061530 = .data:0x10061530; // type:object size:0x7 data:string
lbl_10061538 = .data:0x10061538; // type:object size:0x10 data:string
lbl_10061548 = .data:0x10061548; // type:object size:0x9 data:string
lbl_10061554 = .data:0x10061554; // type:object size:0x6 data:string
lbl_1006155C = .data:0x1006155C; // type:object size:0x9 data:string
lbl_10061568 = .data:0x10061568; // type:object size:0x14 data:string
lbl_1006157C = .data:0x1006157C; // type:object size:0x2 data:string
lbl_10061580 = .data:0x10061580; // type:object size:0x8 data:string
lbl_10061588 = .data:0x10061588; // type:object size:0x2 data:string
lbl_1006158C = .data:0x1006158C; // type:object size:0x2 data:string
lbl_10061590 = .data:0x10061590; // type:object size:0x5 data:string
lbl_10061598 = .data:0x10061598; // type:object size:0xB data:string
lbl_100615A4 = .data:0x100615A4; // type:object size:0x34 data:string
lbl_100615D8 = .data:0x100615D8; // type:object size:0xB data:string
lbl_100615E4 = .data:0x100615E4; // type:object size:0x10 data:string
lbl_100615F4 = .data:0x100615F4; // type:object size:0x12 data:string
lbl_10061608 = .data:0x10061608; // type:object size:0x5 data:string
lbl_10061610 = .data:0x10061610; // type:object size:0xB data:string
lbl_1006161C = .data:0x1006161C; // type:object size:0x8 data:string
lbl_10061624 = .data:0x10061624; // type:object size:0x12 data:string
lbl_10061638 = .data:0x10061638; // type:object size:0xF data:string
lbl_10061648 = .data:0x10061648; // type:object size:0xC
lbl_10061654 = .data:0x10061654; // type:object size:0x3 data:string
lbl_10061658 = .data:0x10061658; // type:object size:0x4
lbl_1006165C = .data:0x1006165C; // type:object size:0x5 data:string
lbl_10061664 = .data:0x10061664; // type:object size:0x8 data:string
lbl_1006166C = .data:0x1006166C; // type:object size:0xE data:string
lbl_1006167C = .data:0x1006167C; // type:object size:0x5 data:string
lbl_10061684 = .data:0x10061684; // type:object size:0x14
lbl_10061698 = .data:0x10061698; // type:object size:0x194
lbl_1006182C = .data:0x1006182C; // type:object size:0x7 data:string
lbl_10061834 = .data:0x10061834; // type:object size:0x16 data:string
lbl_1006184C = .data:0x1006184C; // type:object size:0x36 data:string
lbl_10061884 = .data:0x10061884; // type:object size:0x26 data:string
lbl_100618AC = .data:0x100618AC; // type:object size:0x26 data:string
lbl_100618D4 = .data:0x100618D4; // type:object size:0xB data:string
lbl_100618E0 = .data:0x100618E0; // type:object size:0xE data:string
lbl_100618F0 = .data:0x100618F0; // type:object size:0x3 data:string
lbl_100618F4 = .data:0x100618F4; // type:object size:0x2A data:string
lbl_10061920 = .data:0x10061920; // type:object size:0xA data:string
lbl_1006192C = .data:0x1006192C; // type:object size:0x3 data:string
lbl_10061930 = .data:0x10061930; // type:object size:0x2F data:string
lbl_10061960 = .data:0x10061960; // type:object size:0xF data:string
lbl_10061970 = .data:0x10061970; // type:object size:0x6 data:string
lbl_10061978 = .data:0x10061978; // type:object size:0xF data:string
lbl_10061988 = .data:0x10061988; // type:object size:0xA data:string
lbl_10061994 = .data:0x10061994; // type:object size:0x15 data:string
lbl_100619AC = .data:0x100619AC; // type:object size:0x16 data:string
lbl_100619C4 = .data:0x100619C4; // type:object size:0x9 data:string
lbl_100619D0 = .data:0x100619D0; // type:object size:0xD data:string
lbl_100619E0 = .data:0x100619E0; // type:object size:0x11 data:string
lbl_100619F4 = .data:0x100619F4; // type:object size:0x15 data:string
lbl_10061A0C = .data:0x10061A0C; // type:object size:0xF data:string
lbl_10061A1C = .data:0x10061A1C; // type:object size:0x71 data:string
lbl_10061A90 = .data:0x10061A90; // type:object size:0x11 data:string
lbl_10061AA4 = .data:0x10061AA4; // type:object size:0xD data:string
lbl_10061AB4 = .data:0x10061AB4; // type:object size:0xF data:string
lbl_10061AC4 = .data:0x10061AC4; // type:object size:0x87 data:string
lbl_10061B4C = .data:0x10061B4C; // type:object size:0xF data:string
lbl_10061B5C = .data:0x10061B5C; // type:object size:0x2A data:string
lbl_10061B88 = .data:0x10061B88; // type:object size:0xB data:string
lbl_10061B94 = .data:0x10061B94; // type:object size:0x14
lbl_10061BA8 = .data:0x10061BA8; // type:object size:0x194
lbl_10061D3C = .data:0x10061D3C; // type:object size:0x8
lbl_10061D44 = .data:0x10061D44; // type:object size:0x18 data:string
lbl_10061D5C = .data:0x10061D5C; // type:object size:0x4
lbl_10061D60 = .data:0x10061D60; // type:object size:0xC data:string
lbl_10061D70 = .data:0x10061D70; // type:object size:0x108
lbl_10061E78 = .data:0x10061E78; // type:object size:0x38 data:string
lbl_10061EB0 = .data:0x10061EB0; // type:object size:0x31 data:string
lbl_10061EE4 = .data:0x10061EE4; // type:object size:0x1B data:string
lbl_10061F00 = .data:0x10061F00; // type:object size:0x28 data:string
lbl_10061F28 = .data:0x10061F28; // type:object size:0x1A data:string
lbl_10061F44 = .data:0x10061F44; // type:object size:0x17 data:string
lbl_10061F5C = .data:0x10061F5C; // type:object size:0x15 data:string
lbl_10061F74 = .data:0x10061F74; // type:object size:0x16 data:string
lbl_10061F8C = .data:0x10061F8C; // type:object size:0x31 data:string
lbl_10061FC0 = .data:0x10061FC0; // type:object size:0x1A data:string
lbl_10061FDC = .data:0x10061FDC; // type:object size:0x1B data:string
lbl_10061FF8 = .data:0x10061FF8; // type:object size:0x21 data:string
lbl_1006201C = .data:0x1006201C; // type:object size:0xE data:string
lbl_1006202C = .data:0x1006202C; // type:object size:0x14 data:string
lbl_10062040 = .data:0x10062040; // type:object size:0x29 data:string
lbl_1006206C = .data:0x1006206C; // type:object size:0x46 data:string
lbl_100620B4 = .data:0x100620B4; // type:object size:0x46 data:string
lbl_100620FC = .data:0x100620FC; // type:object size:0x15 data:string
lbl_10062114 = .data:0x10062114; // type:object size:0x31 data:string
lbl_10062148 = .data:0x10062148; // type:object size:0x2C data:string
lbl_10062174 = .data:0x10062174; // type:object size:0x15 data:string
lbl_1006218C = .data:0x1006218C; // type:object size:0x1F data:string
lbl_100621AC = .data:0x100621AC; // type:object size:0x11 data:string
lbl_100621C0 = .data:0x100621C0; // type:object size:0x1C data:string
lbl_100621DC = .data:0x100621DC; // type:object size:0x28 data:string
lbl_10062204 = .data:0x10062204; // type:object size:0x42 data:string
lbl_10062248 = .data:0x10062248; // type:object size:0x49 data:string
lbl_10062294 = .data:0x10062294; // type:object size:0x20 data:string
lbl_100622B4 = .data:0x100622B4; // type:object size:0x2A data:string
lbl_100622E0 = .data:0x100622E0; // type:object size:0x16 data:string
lbl_100622F8 = .data:0x100622F8; // type:object size:0x25 data:string
lbl_10062320 = .data:0x10062320; // type:object size:0x28
?MessageDescriptors@LHNetEvent@@0PAULHNetMessageFormatDescriptor@@A = .data:0x10062348; // type:object size:0x1F0
lbl_10062538 = .data:0x10062538; // type:object size:0x3 data:string
lbl_1006253C = .data:0x1006253C; // type:object size:0x2 data:string
lbl_10062540 = .data:0x10062540; // type:object size:0x5 data:string
lbl_10062548 = .data:0x10062548; // type:object size:0x3 data:string
lbl_1006254C = .data:0x1006254C; // type:object size:0x2 data:string
lbl_10062550 = .data:0x10062550; // type:object size:0x6 data:string
lbl_10062558 = .data:0x10062558; // type:object size:0x3 data:string
lbl_1006255C = .data:0x1006255C; // type:object size:0x4 data:string
lbl_10062560 = .data:0x10062560; // type:object size:0x6 data:string
lbl_10062568 = .data:0x10062568; // type:object size:0x3 data:string
lbl_1006256C = .data:0x1006256C; // type:object size:0x4 data:string
lbl_10062570 = .data:0x10062570; // type:object size:0x4 data:string
lbl_10062574 = .data:0x10062574; // type:object size:0x6 data:string
lbl_1006257C = .data:0x1006257C; // type:object size:0x5 data:string
lbl_10062584 = .data:0x10062584; // type:object size:0x3 data:string
lbl_10062588 = .data:0x10062588; // type:object size:0x5 data:string
lbl_10062590 = .data:0x10062590; // type:object size:0x6 data:string
lbl_10062598 = .data:0x10062598; // type:object size:0x7 data:string
lbl_100625A0 = .data:0x100625A0; // type:object size:0x5 data:string
lbl_100625A8 = .data:0x100625A8; // type:object size:0x7 data:string
lbl_100625B0 = .data:0x100625B0; // type:object size:0x3 data:string
lbl_100625B4 = .data:0x100625B4; // type:object size:0x4 data:string
lbl_100625B8 = .data:0x100625B8; // type:object size:0x4 data:string
lbl_100625BC = .data:0x100625BC; // type:object size:0x5 data:string
lbl_100625C4 = .data:0x100625C4; // type:object size:0x4 data:string
lbl_100625C8 = .data:0x100625C8; // type:object size:0x6 data:string
lbl_100625D0 = .data:0x100625D0; // type:object size:0x3 data:string
lbl_100625D4 = .data:0x100625D4; // type:object size:0x6 data:string
lbl_100625DC = .data:0x100625DC; // type:object size:0x3 data:string
lbl_100625E0 = .data:0x100625E0; // type:object size:0x2 data:string
lbl_100625E4 = .data:0x100625E4; // type:object size:0x2 data:string
lbl_100625E8 = .data:0x100625E8; // type:object size:0x2 data:string
lbl_100625EC = .data:0x100625EC; // type:object size:0x3 data:string
lbl_100625F0 = .data:0x100625F0; // type:object size:0x7 data:string
lbl_100625F8 = .data:0x100625F8; // type:object size:0x3 data:string
lbl_100625FC = .data:0x100625FC; // type:object size:0x3 data:string
lbl_10062600 = .data:0x10062600; // type:object size:0x3 data:string
lbl_10062604 = .data:0x10062604; // type:object size:0x14
lbl_10062618 = .data:0x10062618; // type:object size:0x4
lbl_1006261C = .data:0x1006261C; // type:object size:0xB data:string
lbl_10062628 = .data:0x10062628; // type:object size:0xB data:string
lbl_10062634 = .data:0x10062634; // type:object size:0x24 data:string
lbl_10062658 = .data:0x10062658; // type:object size:0x9 data:string
lbl_10062664 = .data:0x10062664; // type:object size:0x30
lbl_10062694 = .data:0x10062694; // type:object size:0x2C
lbl_100626C0 = .data:0x100626C0; // type:object size:0x30
?LH_NET_REGISTRY_KEY@@3PBDB = .data:0x100626F0; // type:object size:0x4
?LH_NET_PROFILES_KEY@@3PBDB = .data:0x100626F4; // type:object size:0x4
?LH_NET_MACHINE_DEFAULT_BROWSER@@3PBDB = .data:0x100626F8; // type:object size:0x4
?LH_NET_BW_CURRENT_VERSION@@3PBDB = .data:0x100626FC; // type:object size:0x4
?LH_NET_PROFILE@@3PBDB = .data:0x10062700; // type:object size:0x4
?LH_NET_PROFILE_FILE_NAME@@3PBDB = .data:0x10062704; // type:object size:0x4
?LH_NET_PROFILE_LOGIN_NAME@@3PBDB = .data:0x10062708; // type:object size:0x4
?LH_NET_REGISTRY_LOBBY@@3PBDB = .data:0x1006270C; // type:object size:0x4
?LH_NET_REGISTRY_LOGIN_SERVER@@3PBDB = .data:0x10062710; // type:object size:0x4
lbl_10062714 = .data:0x10062714; // type:object size:0x10
?CheckInternetConnectionOptions@@3DA = .data:0x10062724; // type:object size:0x4
lbl_10062728 = .data:0x10062728; // type:object size:0xB data:string
lbl_10062734 = .data:0x10062734; // type:object size:0x11 data:string
lbl_10062748 = .data:0x10062748; // type:object size:0xF data:string
lbl_10062758 = .data:0x10062758; // type:object size:0x6 data:string
lbl_10062760 = .data:0x10062760; // type:object size:0x6 data:string
lbl_10062768 = .data:0x10062768; // type:object size:0x5 data:string
lbl_10062770 = .data:0x10062770; // type:object size:0x8 data:string
lbl_10062778 = .data:0x10062778; // type:object size:0x2C data:string
lbl_100627A4 = .data:0x100627A4; // type:object size:0x30 data:string
lbl_100627D4 = .data:0x100627D4; // type:object size:0x43 data:string
lbl_10062818 = .data:0x10062818; // type:object size:0x3A data:string
lbl_10062854 = .data:0x10062854; // type:object size:0x8 data:string
lbl_1006285C = .data:0x1006285C; // type:object size:0x6 data:string
lbl_10062864 = .data:0x10062864; // type:object size:0x11 data:string
lbl_3_data_10062875 = .data:0x10062875; // type:object size:0x7
??_C@_01PJCK@?4?$AA@ = .data:0x10062878; // type:object scope:global data:string
lbl_1006287C = .data:0x1006287C; // type:object size:0x3 data:string
lbl_10062880 = .data:0x10062880; // type:object size:0xC data:string
lbl_1006288C = .data:0x1006288C; // type:object size:0x3 data:string
lbl_10062890 = .data:0x10062890; // type:object size:0xC data:string
lbl_1006289C = .data:0x1006289C; // type:object size:0xC data:string
lbl_100628A8 = .data:0x100628A8; // type:object size:0x6 data:string
lbl_100628B0 = .data:0x100628B0; // type:object size:0xF data:string
lbl_100628C0 = .data:0x100628C0; // type:object size:0x10 data:string
lbl_100628D0 = .data:0x100628D0; // type:object size:0x13 data:string
lbl_100628E4 = .data:0x100628E4; // type:object size:0x14 data:string
lbl_100628F8 = .data:0x100628F8; // type:object size:0x25
lbl_1006291D = .data:0x1006291D; // type:object size:0x43
lbl_10062960 = .data:0x10062960; // type:object size:0x2 data:string
lbl_10062964 = .data:0x10062964; // type:object size:0x3 data:string
lbl_10062968 = .data:0x10062968; // type:object size:0x7 data:string
lbl_10062970 = .data:0x10062970; // type:object size:0xB data:string
lbl_1006297C = .data:0x1006297C; // type:object size:0x4 data:string
lbl_10062980 = .data:0x10062980; // type:object size:0xC data:string
lbl_1006298C = .data:0x1006298C; // type:object size:0x7 data:string
lbl_10062994 = .data:0x10062994; // type:object size:0x7 data:string
lbl_1006299C = .data:0x1006299C; // type:object size:0xA data:string
lbl_100629A8 = .data:0x100629A8; // type:object size:0x3 data:string
lbl_100629AC = .data:0x100629AC; // type:object size:0x4 data:string
lbl_100629B0 = .data:0x100629B0; // type:object size:0x8 data:string
lbl_100629B8 = .data:0x100629B8; // type:object size:0x8 data:string
lbl_100629C0 = .data:0x100629C0; // type:object size:0x5 data:string
lbl_100629C8 = .data:0x100629C8; // type:object size:0xA data:string
lbl_100629D4 = .data:0x100629D4; // type:object size:0x5 data:string
lbl_100629DC = .data:0x100629DC; // type:object size:0x5 data:string
lbl_100629E4 = .data:0x100629E4; // type:object size:0x4 data:string
lbl_100629E8 = .data:0x100629E8; // type:object size:0x4 data:string
lbl_100629EC = .data:0x100629EC; // type:object size:0x14
lbl_10062A00 = .data:0x10062A00; // type:object size:0x18
lbl_10062A18 = .data:0x10062A18; // type:object size:0x16 data:string
lbl_10062A30 = .data:0x10062A30; // type:object size:0x1F data:string
lbl_10062A50 = .data:0x10062A50; // type:object size:0x14 data:string
lbl_10062A64 = .data:0x10062A64; // type:object size:0x12 data:string
lbl_10062A78 = .data:0x10062A78; // type:object size:0x13 data:string
lbl_10062A8C = .data:0x10062A8C; // type:object size:0x14 data:string
lbl_10062AA0 = .data:0x10062AA0; // type:object size:0x12 data:string
lbl_10062AB4 = .data:0x10062AB4; // type:object size:0x28
lbl_10062ADC = .data:0x10062ADC; // type:object size:0x18 data:string
lbl_10062AF8 = .data:0x10062AF8; // type:object size:0x190
lbl_10062C88 = .data:0x10062C88; // type:object size:0x4
lbl_10062C8C = .data:0x10062C8C; // type:object size:0x6 data:string
lbl_10062C94 = .data:0x10062C94; // type:object size:0x10 data:string
lbl_10062CA4 = .data:0x10062CA4; // type:object size:0x15 data:string
lbl_10062CBC = .data:0x10062CBC; // type:object size:0x17 data:string
lbl_10062CD4 = .data:0x10062CD4; // type:object size:0x14 data:string
lbl_10062CE8 = .data:0x10062CE8; // type:object size:0x1B data:string
lbl_10062D04 = .data:0x10062D04; // type:object size:0x4
lbl_10062D08 = .data:0x10062D08; // type:object size:0x1A data:string
lbl_10062D24 = .data:0x10062D24; // type:object size:0x24 data:string
lbl_10062D48 = .data:0x10062D48; // type:object size:0x1D data:string
lbl_10062D68 = .data:0x10062D68; // type:object size:0x1C
lbl_10062D84 = .data:0x10062D84; // type:object size:0x8
lbl_10062D8C = .data:0x10062D8C; // type:object size:0x8
lbl_10062D94 = .data:0x10062D94; // type:object size:0x4
lbl_10062D98 = .data:0x10062D98; // type:object size:0xC
lbl_10062DA4 = .data:0x10062DA4; // type:object size:0x15 data:string
lbl_10062DBC = .data:0x10062DBC; // type:object size:0xD data:string
lbl_10062DCC = .data:0x10062DCC; // type:object size:0x14 data:string
lbl_10062DE0 = .data:0x10062DE0; // type:object size:0xB data:string
lbl_10062DEC = .data:0x10062DEC; // type:object size:0xD data:string
lbl_10062DFC = .data:0x10062DFC; // type:object size:0xB data:string
lbl_10062E08 = .data:0x10062E08; // type:object size:0xB data:string
lbl_10062E18 = .data:0x10062E18; // type:object size:0x18
lbl_10062E30 = .data:0x10062E30; // type:object size:0x18
lbl_10062E48 = .data:0x10062E48; // type:object size:0x14
lbl_10062E5C = .data:0x10062E5C; // type:object size:0x16 data:string
lbl_10062E74 = .data:0x10062E74; // type:object size:0x1C data:string
lbl_10062E90 = .data:0x10062E90; // type:object size:0x2 data:string
lbl_10062E94 = .data:0x10062E94; // type:object size:0x4
lbl_10062E98 = .data:0x10062E98; // type:object size:0x1000
lbl_10063E98 = .data:0x10063E98; // type:object size:0x100
lbl_10063F98 = .data:0x10063F98; // type:object size:0x24 data:string
lbl_10063FBC = .data:0x10063FBC; // type:object size:0x28 data:string
lbl_10063FE4 = .data:0x10063FE4; // type:object size:0x1F data:string
lbl_10064004 = .data:0x10064004; // type:object size:0x23 data:string
lbl_10064028 = .data:0x10064028; // type:object size:0x21 data:string
lbl_1006404C = .data:0x1006404C; // type:object size:0x19 data:string
lbl_10064068 = .data:0x10064068; // type:object size:0x1D data:string
lbl_10064088 = .data:0x10064088; // type:object size:0x44
__NLG_Destination = .data:0x100640CC; // type:object size:0x1C scope:global
__FPinit = .data:0x100640E8; // type:object scope:global
lbl_3_data_100640E8 = .data:0x100640E8; // type:object size:0xFC
___lc_time_curr = .data:0x10064100; // type:object scope:global
___lc_time_c = .data:0x10064108; // type:object scope:global
_dststart = .data:0x100641B8; // type:object scope:local
data_0x100641bc = .data:0x100641BC; // type:object scope:local
data_0x100641c0 = .data:0x100641C0; // type:object scope:local
_dstend = .data:0x100641C8; // type:object scope:local
data_0x100641cc = .data:0x100641CC; // type:object scope:local
data_0x100641d0 = .data:0x100641D0; // type:object scope:local
__aexit_rtn = .data:0x100641D4; // type:object scope:global
___tlsindex = .data:0x100641E0; // type:object scope:global
lbl_100641E4 = .data:0x100641E4; // type:object size:0xC
lbl_3_data_100641F0 = .data:0x100641F0; // type:object size:0x18
data_0x100641f4 = .data:0x100641F4; // type:object size:0xC scope:global
data_0x10064200 = .data:0x10064200; // type:object size:0x8 scope:global
lbl_10064208 = .data:0x10064208; // type:object size:0x2008
lbl_3_data_10066210 = .data:0x10066210; // type:object size:0x4
lbl_10066214 = .data:0x10066214; // type:object size:0x4
__locktable = .data:0x10066218; // type:object scope:global
lbl_3_data_10066218 = .data:0x10066218; // type:object size:0xD8
data_0x1006621c = .data:0x1006621C; // type:object scope:global
data_0x1006623c = .data:0x1006623C; // type:object scope:global
data_0x1006624c = .data:0x1006624C; // type:object scope:global
data_0x1006625c = .data:0x1006625C; // type:object scope:global
data_0x100662d8 = .data:0x100662D8; // type:object scope:global
__cfltcvt_tab = .data:0x100662DC; // type:object scope:global
data_0x100662e0 = .data:0x100662E0; // type:object scope:global
data_0x100662e4 = .data:0x100662E4; // type:object scope:global
data_0x100662e8 = .data:0x100662E8; // type:object scope:global
data_0x100662ec = .data:0x100662EC; // type:object scope:global
lbl_100662F0 = .data:0x100662F0; // type:object size:0x4
lbl_100662F4 = .data:0x100662F4; // type:object size:0x4
_sbrackset = .data:0x100662F8; // type:object scope:local data:string
lbl_3_data_100662F8 = .data:0x100662F8; // type:object size:0x278
_cbrackset = .data:0x10066300; // type:object scope:local data:string
data_0x10066310 = .data:0x10066310; // type:object scope:global
data_0x10066320 = .data:0x10066320; // type:object scope:global
__iob = .data:0x10066330; // type:object scope:global
data_0x10066350 = .data:0x10066350; // type:object scope:global
data_0x10066380 = .data:0x10066380; // type:object scope:global
data_0x10066570 = .data:0x10066570; // type:object size:0x20 scope:global
data_0x10066590 = .data:0x10066590; // type:object scope:global
lbl_3_data_10066590 = .data:0x10066590; // type:object size:0x4
lbl_10066594 = .data:0x10066594; // type:object size:0x164
___badioinfo = .data:0x100666F8; // type:object scope:global
lbl_3_data_100666F8 = .data:0x100666F8; // type:object size:0x28
lbl_10066720 = .data:0x10066720; // type:object size:0x2 data:string
lbl_10066724 = .data:0x10066724; // type:object size:0x2 data:string
lbl_100667A8 = .data:0x100667A8; // type:object size:0x8C
lbl_10066834 = .data:0x10066834; // type:object size:0x4
lbl_10066838 = .data:0x10066838; // type:object size:0x4
lbl_1006683C = .data:0x1006683C; // type:object size:0x4
lbl_10066840 = .data:0x10066840; // type:object size:0xC
lbl_1006684C = .data:0x1006684C; // type:object size:0x20
lbl_1006686C = .data:0x1006686C; // type:object size:0x4
lbl_10066870 = .data:0x10066870; // type:object size:0x8
__pctype = .data:0x10066878; // type:object scope:global
lbl_3_data_10066878 = .data:0x10066878; // type:object size:0x224
__pwctype = .data:0x1006687C; // type:object scope:global
__ctype = .data:0x10066882; // type:object scope:global
___mb_cur_max = .data:0x10066A84; // type:object scope:global
___decimal_point = .data:0x10066A88; // type:object scope:global data:string
___decimal_point_length = .data:0x10066A8C; // type:object scope:global
__timezone = .data:0x10066A90; // type:object scope:global
__daylight = .data:0x10066A94; // type:object scope:global
__dstbias = .data:0x10066A98; // type:object scope:global
lbl_10066A9C = .data:0x10066A9C; // type:object size:0x4 data:string
lbl_10066ADC = .data:0x10066ADC; // type:object size:0x4 data:string
lbl_3_data_10066AE0 = .data:0x10066AE0; // type:object size:0x4C
__tzname = .data:0x10066B1C; // type:object scope:global
data_0x10066b20 = .data:0x10066B20; // type:object scope:global
lbl_10066B2C = .data:0x10066B2C; // type:object size:0x4
lbl_10066B30 = .data:0x10066B30; // type:object size:0x30
__days = .data:0x10066B60; // type:object scope:global
lbl_3_data_10066B60 = .data:0x10066B60; // type:object size:0x4
lbl_10066B64 = .data:0x10066B64; // type:object size:0x3C
lbl_10066BA0 = .data:0x10066BA0; // type:object size:0x4
lbl_10066BA4 = .data:0x10066BA4; // type:object size:0x8C
__XcptActTab = .data:0x10066C30; // type:object scope:global
lbl_3_data_10066C30 = .data:0x10066C30; // type:object size:0x80
__First_FPE_Indx = .data:0x10066CA8; // type:object scope:global
__Num_FPE = .data:0x10066CAC; // type:object scope:global
lbl_10066CB0 = .data:0x10066CB0; // type:object size:0x2 data:string
lbl_3_data_10066CB2 = .data:0x10066CB2; // type:object size:0x6
__XcptActTabCount = .data:0x10066CB4; // type:object scope:global data:string
_DoubleFormat = .data:0x10066CB8; // type:object size:0x18 scope:local
_FloatFormat = .data:0x10066CD0; // type:object size:0x20 scope:local
lbl_10066CF0 = .data:0x10066CF0; // type:object size:0x4
lbl_10066CF4 = .data:0x10066CF4; // type:object size:0x5 data:string
lbl_10066CFC = .data:0x10066CFC; // type:object size:0x4
lbl_10066D00 = .data:0x10066D00; // type:object size:0x4 data:string
lbl_10066D04 = .data:0x10066D04; // type:object size:0x4
lbl_10066D08 = .data:0x10066D08; // type:object size:0x4 data:string
lbl_10066D0C = .data:0x10066D0C; // type:object size:0x4 data:string
lbl_10066D14 = .data:0x10066D14; // type:object size:0x480
lbl_10067194 = .data:0x10067194; // type:object size:0x14
lbl_100671A8 = .data:0x100671A8; // type:object size:0xB8
lbl_10067260 = .data:0x10067260; // type:object size:0x208
lbl_10067468 = .data:0x10067468; // type:object size:0x8
lbl_10067470 = .data:0x10067470; // type:object size:0x4
lbl_10067474 = .data:0x10067474; // type:object size:0xC
lbl_10067480 = .data:0x10067480; // type:object size:0xE0
___lconv_static_decimal = .data:0x10067560; // type:object scope:global data:string
lbl_3_data_10067560 = .data:0x10067560; // type:object size:0x2FC
___lconv_c = .data:0x10067568; // type:object scope:global
data_0x1006756c = .data:0x1006756C; // type:object scope:global
data_0x10067570 = .data:0x10067570; // type:object scope:global
___lconv = .data:0x10067598; // type:object scope:global
__pow10pos = .data:0x100675A0; // type:object scope:global
__pow10neg = .data:0x10067700; // type:object scope:global
lbl_1006785C = .data:0x1006785C; // type:object size:0x5 data:string
lbl_10067864 = .data:0x10067864; // type:object size:0x9 data:string
lbl_10067870 = .data:0x10067870; // type:object size:0x4 data:string
lbl_10067874 = .data:0x10067874; // type:object size:0x9 data:string
lbl_10067880 = .data:0x10067880; // type:object size:0x7 data:string
lbl_10067888 = .data:0x10067888; // type:object size:0x5 data:string
lbl_10067890 = .data:0x10067890; // type:object size:0x1D data:string
lbl_100678B0 = .data:0x100678B0; // type:object size:0x4
lbl_100678B4 = .data:0x100678B4; // type:object size:0xA data:string
lbl_100678C0 = .data:0x100678C0; // type:object size:0x9 data:string
lbl_100678CC = .data:0x100678CC; // type:object size:0x7 data:string
lbl_100678D4 = .data:0x100678D4; // type:object size:0x8 data:string
lbl_100678DC = .data:0x100678DC; // type:object size:0x4
lbl_100678E0 = .data:0x100678E0; // type:object size:0x6 data:string
lbl_100678E8 = .data:0x100678E8; // type:object size:0x29 data:string
lbl_10067914 = .data:0x10067914; // type:object size:0x3F data:string
lbl_10067954 = .data:0x10067954; // type:object size:0x4
lbl_10067958 = .data:0x10067958; // type:object size:0x12 data:string
lbl_1006796C = .data:0x1006796C; // type:object size:0xA data:string
lbl_10067978 = .data:0x10067978; // type:object size:0x8 data:string
lbl_10067980 = .data:0x10067980; // type:object size:0x2 data:string
lbl_10067984 = .data:0x10067984; // type:object size:0x49 data:string
lbl_100679D0 = .data:0x100679D0; // type:object size:0xB data:string
lbl_100679DC = .data:0x100679DC; // type:object size:0x6 data:string
lbl_100679E4 = .data:0x100679E4; // type:object size:0xD data:string
lbl_100679F4 = .data:0x100679F4; // type:object size:0x9 data:string
lbl_10067A00 = .data:0x10067A00; // type:object size:0xD data:string
lbl_10067A10 = .data:0x10067A10; // type:object size:0xB data:string
lbl_10067A1C = .data:0x10067A1C; // type:object size:0xB data:string
lbl_10067A28 = .data:0x10067A28; // type:object size:0xB data:string
lbl_10067A34 = .data:0x10067A34; // type:object size:0x8 data:string
lbl_10067A3C = .data:0x10067A3C; // type:object size:0xB data:string
lbl_10067A48 = .data:0x10067A48; // type:object size:0xE data:string
lbl_10067A58 = .data:0x10067A58; // type:object size:0x18
lbl_10067A70 = .data:0x10067A70; // type:object size:0xF data:string
lbl_10067A80 = .data:0x10067A80; // type:object size:0xD data:string
lbl_10067A90 = .data:0x10067A90; // type:object size:0x9 data:string
lbl_10067A9C = .data:0x10067A9C; // type:object size:0xB data:string
lbl_10067AA8 = .data:0x10067AA8; // type:object size:0x4 data:string
lbl_10067AAC = .data:0x10067AAC; // type:object size:0x4 data:string
lbl_10067AB0 = .data:0x10067AB0; // type:object size:0x4 data:string
lbl_10067AB4 = .data:0x10067AB4; // type:object size:0x4 data:string
lbl_10067AB8 = .data:0x10067AB8; // type:object size:0x2 data:string
lbl_10067ABA = .data:0x10067ABA; // type:object size:0x2
lbl_10067ABC = .data:0x10067ABC; // type:object size:0x8 data:string
lbl_10067AC4 = .data:0x10067AC4; // type:object size:0xE data:string
lbl_10067AD4 = .data:0x10067AD4; // type:object size:0xE data:string
lbl_10067AE4 = .data:0x10067AE4; // type:object size:0xB data:string
lbl_10067AF0 = .data:0x10067AF0; // type:object size:0xE data:string
lbl_10067B00 = .data:0x10067B00; // type:object size:0xE data:string
lbl_10067B10 = .data:0x10067B10; // type:object size:0x9 data:string
lbl_10067B1C = .data:0x10067B1C; // type:object size:0x9 data:string
lbl_10067B28 = .data:0x10067B28; // type:object size:0x7 data:string
lbl_10067B30 = .data:0x10067B30; // type:object size:0xD data:string
lbl_10067B40 = .data:0x10067B40; // type:object size:0xF data:string
lbl_10067B50 = .data:0x10067B50; // type:object size:0xE data:string
lbl_10067B60 = .data:0x10067B60; // type:object size:0xE data:string
lbl_10067B70 = .data:0x10067B70; // type:object size:0xE data:string
lbl_10067B80 = .data:0x10067B80; // type:object size:0xE data:string
lbl_10067B90 = .data:0x10067B90; // type:object size:0x4 data:string
lbl_10067B94 = .data:0x10067B94; // type:object size:0x4 data:string
lbl_10067B98 = .data:0x10067B98; // type:object size:0x4 data:string
lbl_10067B9C = .data:0x10067B9C; // type:object size:0x4 data:string
lbl_10067BA0 = .data:0x10067BA0; // type:object size:0xB data:string
lbl_10067BAC = .data:0x10067BAC; // type:object size:0xC data:string
lbl_10067BB8 = .data:0x10067BB8; // type:object size:0x9 data:string
lbl_10067BC4 = .data:0x10067BC4; // type:object size:0x9 data:string
lbl_10067BD0 = .data:0x10067BD0; // type:object size:0xB data:string
lbl_10067BDC = .data:0x10067BDC; // type:object size:0x7 data:string
lbl_10067BE4 = .data:0x10067BE4; // type:object size:0xB data:string
lbl_10067BF0 = .data:0x10067BF0; // type:object size:0xB data:string
lbl_10067BFC = .data:0x10067BFC; // type:object size:0xB data:string
lbl_10067C08 = .data:0x10067C08; // type:object size:0xB data:string
lbl_10067C14 = .data:0x10067C14; // type:object size:0x8
lbl_10067C1C = .data:0x10067C1C; // type:object size:0x24
lbl_10067C40 = .data:0x10067C40; // type:object size:0xF0
lbl_10067D30 = .data:0x10067D30; // type:object size:0x4
lbl_10067D34 = .data:0x10067D34; // type:object size:0x13 data:string
lbl_10067D74 = .data:0x10067D74; // type:object size:0x7 data:string
lbl_10067D7C = .data:0x10067D7C; // type:object size:0x5 data:string
lbl_10067D84 = .data:0x10067D84; // type:object size:0x8 data:string
lbl_10067D8C = .data:0x10067D8C; // type:object size:0x7 data:string
lbl_10067D94 = .data:0x10067D94; // type:object size:0x8 data:string
lbl_10067D9C = .data:0x10067D9C; // type:object size:0x6 data:string
lbl_10067DA4 = .data:0x10067DA4; // type:object size:0x5 data:string
lbl_10067DAC = .data:0x10067DAC; // type:object size:0x6 data:string
lbl_10067DB4 = .data:0x10067DB4; // type:object size:0x10 data:string
lbl_10067DC4 = .data:0x10067DC4; // type:object size:0x2 data:string
lbl_10067DC8 = .data:0x10067DC8; // type:object size:0xF data:string
lbl_10067DD8 = .data:0x10067DD8; // type:object size:0x9 data:string
lbl_10067DE4 = .data:0x10067DE4; // type:object size:0x8 data:string
lbl_10067DEC = .data:0x10067DEC; // type:object size:0xD data:string
lbl_10067DFC = .data:0x10067DFC; // type:object size:0xF data:string
lbl_10067E0C = .data:0x10067E0C; // type:object size:0x1A data:string
lbl_10067E28 = .data:0x10067E28; // type:object size:0x4 data:string
lbl_10067E2C = .data:0x10067E2C; // type:object size:0x9 data:string
lbl_10067E38 = .data:0x10067E38; // type:object size:0x2 data:string
lbl_10067E3C = .data:0x10067E3C; // type:object size:0x2 data:string
lbl_10067E40 = .data:0x10067E40; // type:object size:0x2 data:string
lbl_10067E44 = .data:0x10067E44; // type:object size:0x2 data:string
lbl_10067E48 = .data:0x10067E48; // type:object size:0x4 data:string
lbl_10067E4C = .data:0x10067E4C; // type:object size:0x4 data:string
lbl_10067E50 = .data:0x10067E50; // type:object size:0x2 data:string
lbl_10067E54 = .data:0x10067E54; // type:object size:0x3 data:string
lbl_10067E58 = .data:0x10067E58; // type:object size:0x4 data:string
lbl_10067E5C = .data:0x10067E5C; // type:object size:0x3 data:string
lbl_10067E60 = .data:0x10067E60; // type:object size:0x9 data:string
lbl_10067E6C = .data:0x10067E6C; // type:object size:0x7 data:string
lbl_10067E74 = .data:0x10067E74; // type:object size:0xC data:string
lbl_10067E80 = .data:0x10067E80; // type:object size:0x9 data:string
lbl_10067E8C = .data:0x10067E8C; // type:object size:0x8 data:string
lbl_10067E94 = .data:0x10067E94; // type:object size:0xB data:string
lbl_10067EA0 = .data:0x10067EA0; // type:object size:0x5 data:string
lbl_10067EA8 = .data:0x10067EA8; // type:object size:0x7 data:string
lbl_10067EB0 = .data:0x10067EB0; // type:object size:0x6 data:string
lbl_10067EB8 = .data:0x10067EB8; // type:object size:0x4 data:string
lbl_10067EBC = .data:0x10067EBC; // type:object size:0x4 data:string
lbl_10067EC0 = .data:0x10067EC0; // type:object size:0x2 data:string
lbl_10067EC2 = .data:0x10067EC2; // type:object size:0x2
lbl_10067EC4 = .data:0x10067EC4; // type:object size:0x8 data:string
lbl_10067ECC = .data:0x10067ECC; // type:object size:0x8 data:string
lbl_10067ED4 = .data:0x10067ED4; // type:object size:0x8 data:string
lbl_10067EDC = .data:0x10067EDC; // type:object size:0xB data:string
lbl_10067EE8 = .data:0x10067EE8; // type:object size:0xC data:string
lbl_10067EF4 = .data:0x10067EF4; // type:object size:0xF data:string
lbl_10067F04 = .data:0x10067F04; // type:object size:0x6 data:string
lbl_10067F0C = .data:0x10067F0C; // type:object size:0x3 data:string
lbl_10067F10 = .data:0x10067F10; // type:object size:0x6 data:string
lbl_10067F18 = .data:0x10067F18; // type:object size:0x8 data:string
lbl_10067F20 = .data:0x10067F20; // type:object size:0x9 data:string
lbl_10067F2C = .data:0x10067F2C; // type:object size:0x40
lbl_10067F6C = .data:0x10067F6C; // type:object size:0x5 data:string
lbl_10067F74 = .data:0x10067F74; // type:object size:0x13 data:string
lbl_10067FB4 = .data:0x10067FB4; // type:object size:0x18
lbl_10067FCC = .data:0x10067FCC; // type:object size:0x9 data:string
lbl_10067FD8 = .data:0x10067FD8; // type:object size:0xE data:string
lbl_10067FE8 = .data:0x10067FE8; // type:object size:0xA data:string
lbl_10067FF4 = .data:0x10067FF4; // type:object size:0x8 data:string
lbl_10067FFC = .data:0x10067FFC; // type:object size:0x7 data:string
lbl_10068004 = .data:0x10068004; // type:object size:0x8 data:string
lbl_1006800C = .data:0x1006800C; // type:object size:0x1C data:string
lbl_10068028 = .data:0x10068028; // type:object size:0x25 data:string
lbl_10068050 = .data:0x10068050; // type:object size:0x4 data:string
lbl_10068054 = .data:0x10068054; // type:object size:0x6 data:string
lbl_1006805C = .data:0x1006805C; // type:object size:0x7 data:string
lbl_10068064 = .data:0x10068064; // type:object size:0x43 data:string
lbl_100680A8 = .data:0x100680A8; // type:object size:0x4 data:string
lbl_100680AC = .data:0x100680AC; // type:object size:0x9 data:string
lbl_100680B8 = .data:0x100680B8; // type:object size:0x13 data:string
lbl_100680CC = .data:0x100680CC; // type:object size:0x1F data:string
lbl_100680EC = .data:0x100680EC; // type:object size:0x14 data:string
lbl_10068100 = .data:0x10068100; // type:object size:0x1B data:string
lbl_1006811C = .data:0x1006811C; // type:object size:0x19 data:string
lbl_10068138 = .data:0x10068138; // type:object size:0x18 data:string
lbl_10068150 = .data:0x10068150; // type:object size:0x1E data:string
lbl_10068170 = .data:0x10068170; // type:object size:0x3 data:string
lbl_10068178 = .data:0x10068178; // type:object size:0x4
lbl_1006817C = .data:0x1006817C; // type:object size:0x144
lbl_100682C0 = .data:0x100682C0; // type:object size:0x2 data:string
lbl_100682C4 = .data:0x100682C4; // type:object size:0x4 data:string
lbl_100682C8 = .data:0x100682C8; // type:object size:0x4 data:string
lbl_100682CC = .data:0x100682CC; // type:object size:0x4 data:string
lbl_100682D0 = .data:0x100682D0; // type:object size:0x4 data:string
lbl_100682D4 = .data:0x100682D4; // type:object size:0x4 data:string
lbl_100682D8 = .data:0x100682D8; // type:object size:0x4 data:string
lbl_100682DC = .data:0x100682DC; // type:object size:0x4 data:string
lbl_100682E0 = .data:0x100682E0; // type:object size:0x4 data:string
lbl_100682E4 = .data:0x100682E4; // type:object size:0x4 data:string
lbl_100682E8 = .data:0x100682E8; // type:object size:0x4 data:string
lbl_100682EC = .data:0x100682EC; // type:object size:0x4 data:string
lbl_100682F0 = .data:0x100682F0; // type:object size:0x4 data:string
lbl_100682F4 = .data:0x100682F4; // type:object size:0x4 data:string
lbl_100682F8 = .data:0x100682F8; // type:object size:0x4 data:string
lbl_100682FC = .data:0x100682FC; // type:object size:0x4 data:string
lbl_10068300 = .data:0x10068300; // type:object size:0x4 data:string
lbl_10068304 = .data:0x10068304; // type:object size:0x4 data:string
lbl_10068308 = .data:0x10068308; // type:object size:0x4 data:string
lbl_1006830C = .data:0x1006830C; // type:object size:0x4 data:string
lbl_10068310 = .data:0x10068310; // type:object size:0x4 data:string
lbl_10068314 = .data:0x10068314; // type:object size:0x4 data:string
lbl_10068318 = .data:0x10068318; // type:object size:0x4 data:string
lbl_1006831C = .data:0x1006831C; // type:object size:0x4 data:string
lbl_10068320 = .data:0x10068320; // type:object size:0x4 data:string
lbl_10068324 = .data:0x10068324; // type:object size:0x4 data:string
lbl_10068328 = .data:0x10068328; // type:object size:0x4 data:string
lbl_1006832C = .data:0x1006832C; // type:object size:0x4 data:string
lbl_10068330 = .data:0x10068330; // type:object size:0x7 data:string
lbl_10068338 = .data:0x10068338; // type:object size:0x6 data:string
lbl_10068340 = .data:0x10068340; // type:object size:0x5 data:string
lbl_10068348 = .data:0x10068348; // type:object size:0x6 data:string
lbl_10068350 = .data:0x10068350; // type:object size:0x5 data:string
lbl_10068358 = .data:0x10068358; // type:object size:0x5 data:string
lbl_10068360 = .data:0x10068360; // type:object size:0x5 data:string
lbl_10068368 = .data:0x10068368; // type:object size:0x5 data:string
lbl_10068370 = .data:0x10068370; // type:object size:0x5 data:string
lbl_10068378 = .data:0x10068378; // type:object size:0x4 data:string
lbl_1006837C = .data:0x1006837C; // type:object size:0x7 data:string
lbl_10068384 = .data:0x10068384; // type:object size:0x8 data:string
lbl_1006838C = .data:0x1006838C; // type:object size:0x7 data:string
lbl_10068394 = .data:0x10068394; // type:object size:0x18
lbl_100683AC = .data:0x100683AC; // type:object size:0x8 data:string
lbl_100683B4 = .data:0x100683B4; // type:object size:0x2 data:string
lbl_100683B8 = .data:0x100683B8; // type:object size:0x12 data:string
lbl_100683CC = .data:0x100683CC; // type:object size:0x4
lbl_100683D0 = .data:0x100683D0; // type:object size:0x4
lbl_100683D4 = .data:0x100683D4; // type:object size:0x4
lbl_100683D8 = .data:0x100683D8; // type:object size:0x4
lbl_100683DC = .data:0x100683DC; // type:object size:0x4
lbl_100683E0 = .data:0x100683E0; // type:object size:0x4
lbl_100683E4 = .data:0x100683E4; // type:object size:0x4
lbl_100683E8 = .data:0x100683E8; // type:object size:0x4
lbl_100683EC = .data:0x100683EC; // type:object size:0x4
lbl_100683F0 = .data:0x100683F0; // type:object size:0x4
lbl_100683F4 = .data:0x100683F4; // type:object size:0x4
lbl_100683F8 = .data:0x100683F8; // type:object size:0x4
lbl_100683FC = .data:0x100683FC; // type:object size:0x4
lbl_10068400 = .data:0x10068400; // type:object size:0x4
lbl_10068404 = .data:0x10068404; // type:object size:0x4
lbl_10068408 = .data:0x10068408; // type:object size:0x4
lbl_1006840C = .data:0x1006840C; // type:object size:0x4
lbl_10068410 = .data:0x10068410; // type:object size:0x4
lbl_10068414 = .data:0x10068414; // type:object size:0x4
lbl_10068418 = .data:0x10068418; // type:object size:0x4
lbl_1006841C = .data:0x1006841C; // type:object size:0x4
lbl_10068420 = .data:0x10068420; // type:object size:0x4
lbl_10068424 = .data:0x10068424; // type:object size:0x4
lbl_10068428 = .data:0x10068428; // type:object size:0x4
lbl_1006842C = .data:0x1006842C; // type:object size:0x4
lbl_10068430 = .data:0x10068430; // type:object size:0x4
lbl_10068434 = .data:0x10068434; // type:object size:0x4
lbl_10068438 = .data:0x10068438; // type:object size:0x4
lbl_1006843C = .data:0x1006843C; // type:object size:0x4
lbl_10068440 = .data:0x10068440; // type:object size:0x4
lbl_10068444 = .data:0x10068444; // type:object size:0xC
lbl_10068450 = .data:0x10068450; // type:object size:0x8
lbl_10068458 = .data:0x10068458; // type:object size:0x1A0
?RegisteredGame@LHConnection@@1PADA = .data:0x100685F8; // type:object size:0x34
lbl_1006862C = .data:0x1006862C; // type:object size:0x4
lbl_10068630 = .data:0x10068630; // type:object size:0x4
lbl_10068634 = .data:0x10068634; // type:object size:0x4
lbl_10068638 = .data:0x10068638; // type:object size:0xFC
lbl_10068734 = .data:0x10068734; // type:object size:0x400
lbl_10068B34 = .data:0x10068B34; // type:object size:0x4
lbl_10068B38 = .data:0x10068B38; // type:object size:0x8
?GameRunning@LHLobby@@2_NA = .data:0x10068B40; // type:object size:0x4
?UserData@LHLobby@@2PAXA = .data:0x10068B44; // type:object size:0x4
?UserDataLen@LHLobby@@2KA = .data:0x10068B48; // type:object size:0x4
?MGJCallbackParam@LHLobby@@2PAXA = .data:0x10068B4C; // type:object size:0x4
?MGJCallback@LHLobby@@2P6A?AW4LH_MGJ_CALLBACK_RETURN@@PAX@ZA = .data:0x10068B50; // type:object size:0x4
?MessageServerMode@LHLobby@@2W4LH_OPERATING_MODE@@A = .data:0x10068B54; // type:object size:0x4
?SendFullChecksum@LHLobby@@2HA = .data:0x10068B58; // type:object size:0x4
?RunMessageServerOnThisHost@LHLobby@@2HA = .data:0x10068B5C; // type:object size:0x4
?GameFile@LHLobby@@2PADA = .data:0x10068B60; // type:object size:0x108
?UserFile@LHLobby@@2PADA = .data:0x10068C68; // type:object size:0x108
?LANPlayerList@LHLobby@@0V?$LHLinkedList@PAVLHPlayer@@@@A = .data:0x10068D70; // type:object size:0x4
lbl_10068D74 = .data:0x10068D74; // type:object size:0x4
lbl_10068D78 = .data:0x10068D78; // type:object size:0x4
?InternalLobbyServer@LHLobby@@0PAVLHLobbyServer@@A = .data:0x10068D7C; // type:object size:0x4
?InternalLobbyServerRunning@LHLobby@@0HA = .data:0x10068D80; // type:object size:0x4
?OpenLobbyCount@LHLobby@@2KA = .data:0x10068D84; // type:object size:0x4
lbl_10068D88 = .data:0x10068D88; // type:object size:0x4
?InternalLobbyServerConnection@LHLobby@@0PAV1@A = .data:0x10068D8C; // type:object size:0x4
?ConnectedLobbyName@LHLobby@@2PADA = .data:0x10068D90; // type:object size:0x48
?MSAcceptorInfo@LHLobby@@2VLHTransportInfo@@A = .data:0x10068DD8; // type:object size:0x4
lbl_10068DDC = .data:0x10068DDC; // type:object size:0x4
lbl_10068DE0 = .data:0x10068DE0; // type:object size:0x4
lbl_10068DE4 = .data:0x10068DE4; // type:object size:0x4
lbl_10068DE8 = .data:0x10068DE8; // type:object size:0x68
?LocalLobbyList@LHLobby@@0V?$LHLinkedList@PAVLHLocalLobbyInfo@@@@A = .data:0x10068E50; // type:object size:0x4
lbl_10068E54 = .data:0x10068E54; // type:object size:0x4
?LH_LIONHEAD_DEFAULT_LISTNER_ADDRESS@@3VLHTransportInfo@@A = .data:0x10068E58; // type:object size:0x4
lbl_10068E5C = .data:0x10068E5C; // type:object size:0x4
lbl_10068E60 = .data:0x10068E60; // type:object size:0x4
lbl_10068E64 = .data:0x10068E64; // type:object size:0x68
lbl_10068ECC = .data:0x10068ECC; // type:object size:0x4
lbl_10068ED0 = .data:0x10068ED0; // type:object size:0x130
lbl_10069070 = .data:0x10069070; // type:object size:0x4
lbl_10069074 = .data:0x10069074; // type:object size:0x98
lbl_1006910C = .data:0x1006910C; // type:object size:0x4
?SeedCounter@LHMail@@2KA = .data:0x10069110; // type:object size:0x8
lbl_10069118 = .data:0x10069118; // type:object size:0x1A0
lbl_100692B8 = .data:0x100692B8; // type:object size:0x8
lbl_100692C0 = .data:0x100692C0; // type:object size:0x180
lbl_10069440 = .data:0x10069440; // type:object size:0x4
lbl_10069444 = .data:0x10069444; // type:object size:0x4
lbl_10069448 = .data:0x10069448; // type:object size:0x4
lbl_1006944C = .data:0x1006944C; // type:object size:0x4
lbl_10069450 = .data:0x10069450; // type:object size:0x4
lbl_10069454 = .data:0x10069454; // type:object size:0x4
?UserFileDirectory@LHNetEvent@@2PADA = .data:0x10069458; // type:object size:0x4
lbl_1006945C = .data:0x1006945C; // type:object size:0x4
?Timer@LHLocalLobbyInfo@@2VLHTimer@@A = .data:0x10069460; // type:object size:0x100
lbl_10069560 = .data:0x10069560; // type:object size:0x4
lbl_10069564 = .data:0x10069564; // type:object size:0x4
lbl_10069568 = .data:0x10069568; // type:object size:0x4
lbl_1006956C = .data:0x1006956C; // type:object size:0x4
lbl_10069570 = .data:0x10069570; // type:object size:0x4
lbl_10069574 = .data:0x10069574; // type:object size:0x4
lbl_10069578 = .data:0x10069578; // type:object size:0x400
lbl_10069978 = .data:0x10069978; // type:object size:0x800
lbl_1006A178 = .data:0x1006A178; // type:object size:0xFE
lbl_1006A276 = .data:0x1006A276; // type:object size:0x1
lbl_1006A277 = .data:0x1006A277; // type:object size:0x1
lbl_1006A278 = .data:0x1006A278; // type:object size:0x100
lbl_1006A378 = .data:0x1006A378; // type:object size:0x64
lbl_1006A3DC = .data:0x1006A3DC; // type:object size:0x64
lbl_1006A440 = .data:0x1006A440; // type:object size:0xC4
lbl_1006A504 = .data:0x1006A504; // type:object size:0x64
lbl_1006A568 = .data:0x1006A568; // type:object size:0x4
lbl_1006A56C = .data:0x1006A56C; // type:object size:0x4
lbl_1006A570 = .data:0x1006A570; // type:object size:0x4
lbl_1006A574 = .data:0x1006A574; // type:object size:0x4
lbl_1006A578 = .data:0x1006A578; // type:object size:0x4
lbl_1006A57C = .data:0x1006A57C; // type:object size:0x4
lbl_1006A580 = .data:0x1006A580; // type:object size:0x8
?SuperPacketNGTQ@LHSession@@2V?$LHDynamicQueue@PAK@@A = .data:0x1006A588; // type:object size:0x4
lbl_1006A58C = .data:0x1006A58C; // type:object size:0x4
lbl_1006A590 = .data:0x1006A590; // type:object size:0x4
lbl_1006A594 = .data:0x1006A594; // type:object size:0x4
?SuperPacketQ@LHSession@@2V?$LHDynamicQueue@PAVLHNetEvent@@@@A = .data:0x1006A598; // type:object size:0x4
lbl_1006A59C = .data:0x1006A59C; // type:object size:0x4
lbl_1006A5A0 = .data:0x1006A5A0; // type:object size:0x4
lbl_1006A5A4 = .data:0x1006A5A4; // type:object size:0x4
lbl_1006A5A8 = .data:0x1006A5A8; // type:object size:0x4
?InitFlag@LHSocket@@2HA = .data:0x1006A5AC; // type:object size:0x4
lbl_1006A5B0 = .data:0x1006A5B0; // type:object size:0x4
lbl_1006A5B4 = .data:0x1006A5B4; // type:object size:0x4
lbl_1006A5B8 = .data:0x1006A5B8; // type:object size:0x4
lbl_1006A5BC = .data:0x1006A5BC; // type:object size:0x4
lbl_1006A5C0 = .data:0x1006A5C0; // type:object size:0x8
lbl_1006A5C8 = .data:0x1006A5C8; // type:object size:0x1A0
lbl_1006A768 = .data:0x1006A768; // type:object size:0x4
lbl_1006A76C = .data:0x1006A76C; // type:object size:0x4
lbl_1006A770 = .data:0x1006A770; // type:object size:0x4
lbl_1006A774 = .data:0x1006A774; // type:object size:0x4
lbl_1006A778 = .data:0x1006A778; // type:object size:0x4
lbl_1006A77C = .data:0x1006A77C; // type:object size:0x4
_dstflag_cache = .data:0x1006A780; // type:object scope:local
data_0x1006a788 = .data:0x1006A788; // type:object scope:local
data_0x1006a78a = .data:0x1006A78A; // type:object scope:local
data_0x1006a78e = .data:0x1006A78E; // type:object scope:local
data_0x1006a790 = .data:0x1006A790; // type:object scope:local
_gmt_cache = .data:0x1006A792; // type:object scope:local
lbl_1006A798 = .data:0x1006A798; // type:object size:0x28
_tzapiused = .data:0x1006A7C0; // type:object scope:local
_tzinfo = .data:0x1006A7C8; // type:object scope:local
data_0x1006a7cc = .data:0x1006A7CC; // type:object scope:local
data_0x1006a80c = .data:0x1006A80C; // type:object scope:local
data_0x1006a80e = .data:0x1006A80E; // type:object scope:local
data_0x1006a810 = .data:0x1006A810; // type:object scope:local
data_0x1006a812 = .data:0x1006A812; // type:object scope:local
data_0x1006a814 = .data:0x1006A814; // type:object scope:local
data_0x1006a816 = .data:0x1006A816; // type:object scope:local
data_0x1006a818 = .data:0x1006A818; // type:object scope:local
data_0x1006a81a = .data:0x1006A81A; // type:object scope:local
data_0x1006a81c = .data:0x1006A81C; // type:object scope:local
data_0x1006a820 = .data:0x1006A820; // type:object scope:local
data_0x1006a860 = .data:0x1006A860; // type:object scope:local
data_0x1006a862 = .data:0x1006A862; // type:object scope:local
data_0x1006a864 = .data:0x1006A864; // type:object scope:local
data_0x1006a866 = .data:0x1006A866; // type:object scope:local
data_0x1006a868 = .data:0x1006A868; // type:object scope:local
data_0x1006a86a = .data:0x1006A86A; // type:object scope:local
data_0x1006a86c = .data:0x1006A86C; // type:object scope:local
data_0x1006a86e = .data:0x1006A86E; // type:object scope:local
data_0x1006a870 = .data:0x1006A870; // type:object scope:local
_lastTZ = .data:0x1006A874; // type:object scope:local
_?first_time@?1??__tzset@@9@9 = .data:0x1006A878; // type:object scope:local
___proc_attached = .data:0x1006A87C; // type:object scope:local
__aenvptr = .data:0x1006A880; // type:object scope:global
___error_mode = .data:0x1006A888; // type:object scope:global
___app_type = .data:0x1006A88C; // type:object scope:global
___old_sbh_decommitable_pages = .data:0x1006A890; // type:object size:0x8 scope:local
lbl_1006A898 = .data:0x1006A898; // type:object size:0x18
lbl_1006A8B0 = .data:0x1006A8B0; // type:object size:0x18
lbl_1006A8C8 = .data:0x1006A8C8; // type:object size:0x18
lbl_1006A8E0 = .data:0x1006A8E0; // type:object size:0x18
__newmode = .data:0x1006A8F8; // type:object scope:global
?_pnhHeap@@3P6AHI@ZA = .data:0x1006A8FC; // type:object scope:global
__umaskval = .data:0x1006A900; // type:object scope:global
__osver = .data:0x1006A904; // type:object scope:global
data_0x1006a905 = .data:0x1006A905; // type:object scope:global
__winver = .data:0x1006A908; // type:object scope:global
__winmajor = .data:0x1006A90C; // type:object scope:global
__winminor = .data:0x1006A910; // type:object scope:global
___argc = .data:0x1006A914; // type:object scope:global
___argv = .data:0x1006A918; // type:object scope:global
__environ = .data:0x1006A920; // type:object scope:global
___initenv = .data:0x1006A924; // type:object scope:global
__wenviron = .data:0x1006A928; // type:object scope:global
lbl_1006A92C = .data:0x1006A92C; // type:object size:0x4
__pgmptr = .data:0x1006A930; // type:object scope:global
__exitflag = .data:0x1006A938; // type:object scope:global
__C_Termination_Done = .data:0x1006A93C; // type:object scope:global
__C_Exit_Done = .data:0x1006A940; // type:object scope:global
__cflush = .data:0x1006A944; // type:object scope:global
_?f_use@?1??__crtLCMapStringA@@9@9 = .data:0x1006A948; // type:object size:0x4 scope:local
lbl_1006A94C = .data:0x1006A94C; // type:object size:0x4
lbl_1006A950 = .data:0x1006A950; // type:object size:0x4
lbl_1006A954 = .data:0x1006A954; // type:object size:0x4
lbl_1006A958 = .data:0x1006A958; // type:object size:0x4
lbl_1006A95C = .data:0x1006A95C; // type:object size:0x4
___lc_handle = .data:0x1006A960; // type:object scope:global
data_0x1006a964 = .data:0x1006A964; // type:object scope:global
data_0x1006a968 = .data:0x1006A968; // type:object scope:global
data_0x1006a96c = .data:0x1006A96C; // type:object scope:global
___lc_codepage = .data:0x1006A970; // type:object scope:global
lbl_1006A974 = .data:0x1006A974; // type:object size:0x4
__stdbuf = .data:0x1006A978; // type:object scope:global
_?_pgmname@?1??_setargv@@9@9 = .data:0x1006A980; // type:object scope:local
_?f_use@?1??__crtGetEnvironmentStringsA@@9@9 = .data:0x1006AA84; // type:object scope:local
__adbgmsg = .data:0x1006AA88; // type:object scope:global
_pOldExceptFilter = .data:0x1006AA8C; // type:object scope:local
__commode = .data:0x1006AA90; // type:object scope:global
___lc_time_intl = .data:0x1006AA94; // type:object scope:global
_?dec_pnt@?1??__init_numeric@@9@9 = .data:0x1006AA98; // type:object scope:local
_?thous_sep@?1??__init_numeric@@9@9 = .data:0x1006AA9C; // type:object scope:local
_?grping@?1??__init_numeric@@9@9 = .data:0x1006AAA0; // type:object scope:local
___lconv_intl = .data:0x1006AAA4; // type:object scope:local
_?ctype1@?1??__init_ctype@@9@9 = .data:0x1006AAA8; // type:object scope:local
_?wctype1@?1??__init_ctype@@9@9 = .data:0x1006AAAC; // type:object scope:local
lbl_1006AAB0 = .data:0x1006AAB0; // type:object size:0xC
data_0x1006aabc = .data:0x1006AABC; // type:object scope:global
data_0x1006aac4 = .data:0x1006AAC4; // type:object scope:global
data_0x1006aaca = .data:0x1006AACA; // type:object scope:global
___lc_id = .data:0x1006AACE; // type:object scope:global
data_0x1006aad0 = .data:0x1006AAD0; // type:object scope:global
lbl_1006AAD4 = .data:0x1006AAD4; // type:object size:0x4
lbl_1006AAD8 = .data:0x1006AAD8; // type:object size:0x4
lbl_1006AADC = .data:0x1006AADC; // type:object size:0x4
lbl_1006AAE0 = .data:0x1006AAE0; // type:object size:0x4
lbl_1006AAE4 = .data:0x1006AAE4; // type:object size:0x4
lbl_1006AAE8 = .data:0x1006AAE8; // type:object size:0x4
lbl_1006AAEC = .data:0x1006AAEC; // type:object size:0x1
lbl_1006AAED = .data:0x1006AAED; // type:object size:0x3
lbl_1006AAF0 = .data:0x1006AAF0; // type:object size:0x4
lbl_1006AAF4 = .data:0x1006AAF4; // type:object size:0x4
_?f_use@?1??__crtGetStringTypeA@@9@9 = .data:0x1006AAF8; // type:object size:0x4 scope:local
_?f_use@?1??__crtGetStringTypeW@@9@9 = .data:0x1006AAFC; // type:object size:0x4 scope:local
lbl_1006AB00 = .data:0x1006AB00; // type:object size:0x4
_?pfnMessageBoxA@?1??__crtMessageBoxA@@9@9 = .data:0x1006AB04; // type:object scope:local
_?pfnGetActiveWindow@?1??__crtMessageBoxA@@9@9 = .data:0x1006AB08; // type:object scope:local
_?pfnGetLastActivePopup@?1??__crtMessageBoxA@@9@9 = .data:0x1006AB0C; // type:object scope:local
_ctrlc_action = .data:0x1006AB10; // type:object scope:local
_ctrlbreak_action = .data:0x1006AB14; // type:object scope:local
_abort_action = .data:0x1006AB18; // type:object scope:local
_term_action = .data:0x1006AB1C; // type:object scope:local
lbl_1006AB20 = .data:0x1006AB20; // type:object size:0x4
__fmode = .data:0x1006AB24; // type:object scope:global
data_0x1006ab28 = .data:0x1006AB28; // type:object scope:local
_?wcbuffer@?4??__getlocaleinfo@@9@9 = .data:0x1006AB30; // type:object scope:local
_?f_use@?1??__crtCompareStringA@@9@9 = .data:0x1006AB34; // type:object size:0x4 scope:local
lbl_1006AB38 = .data:0x1006AB38; // type:object size:0x4
_?f_use@?1??__crtGetLocaleInfoW@@9@9 = .data:0x1006AB3C; // type:object size:0x4 scope:local
_?f_use@?1??__crtGetLocaleInfoA@@9@9 = .data:0x1006AB40; // type:object size:0x4 scope:local
lbl_1006AB44 = .data:0x1006AB44; // type:object size:0x4
lbl_1006AB48 = .data:0x1006AB48; // type:object size:0x4
lbl_1006AB4C = .data:0x1006AB4C; // type:object size:0x1
lbl_1006AB4D = .data:0x1006AB4D; // type:object size:0x3
lbl_1006AB50 = .data:0x1006AB50; // type:object size:0x2
lbl_1006AB52 = .data:0x1006AB52; // type:object size:0x2
lbl_1006AB54 = .data:0x1006AB54; // type:object size:0x3
lbl_1006AB57 = .data:0x1006AB57; // type:object size:0x1
lbl_1006AB58 = .data:0x1006AB58; // type:object size:0xF8
lbl_1006AC50 = .data:0x1006AC50; // type:object size:0x100
lbl_1006AD50 = .data:0x1006AD50; // type:object size:0x4
lbl_1006AD54 = .data:0x1006AD54; // type:object size:0x204
lbl_1006AF58 = .data:0x1006AF58; // type:object size:0x10
lbl_1006AF68 = .data:0x1006AF68; // type:object size:0x10
lbl_1006AF78 = .data:0x1006AF78; // type:object size:0xB
lbl_1006AF83 = .data:0x1006AF83; // type:object size:0x1F5
lbl_1006B178 = .data:0x1006B178; // type:object size:0x8
lbl_1006B180 = .data:0x1006B180; // type:object size:0x4
lbl_1006B184 = .data:0x1006B184; // type:object size:0x4
lbl_1006B188 = .data:0x1006B188; // type:object size:0x2
lbl_1006B18A = .data:0x1006B18A; // type:object size:0x16
lbl_1006B1A0 = .data:0x1006B1A0; // type:object size:0x4
lbl_1006B1A4 = .data:0x1006B1A4; // type:object size:0x800
lbl_1006B9A4 = .data:0x1006B9A4; // type:object size:0x4
lbl_1006B9A8 = .data:0x1006B9A8; // type:object size:0x50
lbl_1006B9F8 = .data:0x1006B9F8; // type:object size:0x4
lbl_1006B9FC = .data:0x1006B9FC; // type:object size:0x1000
lbl_1006C9FC = .data:0x1006C9FC; // type:object size:0x100
lbl_1006CAFC = .data:0x1006CAFC; // type:object size:0x4
lbl_1006CB00 = .data:0x1006CB00; // type:object size:0x4
lbl_1006CB04 = .data:0x1006CB04; // type:object size:0x4
lbl_1006CB08 = .data:0x1006CB08; // type:object size:0x4
lbl_1006CB0C = .data:0x1006CB0C; // type:object size:0x4
lbl_1006CB10 = .data:0x1006CB10; // type:object size:0x4
lbl_1006CB14 = .data:0x1006CB14; // type:object size:0x4
lbl_1006CB18 = .data:0x1006CB18; // type:object size:0x4
lbl_1006CB1C = .data:0x1006CB1C; // type:object size:0x4
lbl_1006CB20 = .data:0x1006CB20; // type:object size:0x4
lbl_1006CB24 = .data:0x1006CB24; // type:object size:0x4
_start_tics = .data:0x1006CB28; // type:object scope:local
data_0x1006cb2c = .data:0x1006CB2C; // type:object scope:local
lbl_1006CB30 = .data:0x1006CB30; // type:object size:0x8
lbl_1006CB38 = .data:0x1006CB38; // type:object size:0x18
___mbcodepage = .data:0x1006CB50; // type:object scope:global
___mbulinfo = .data:0x1006CB60; // type:object scope:global
___ismbcodepage = .data:0x1006CB6C; // type:object scope:global
__mbcasemap = .data:0x1006CB80; // type:object scope:global
data_0x1006cc80 = .data:0x1006CC80; // type:object scope:global
__mbctype = .data:0x1006CC81; // type:object scope:global
___mblcid = .data:0x1006CD84; // type:object scope:global
___setlc_active = .data:0x1006CD88; // type:object scope:global
___unguarded_readlc_active = .data:0x1006CD8C; // type:object scope:global
___pioinfo = .data:0x1006CDA0; // type:object scope:global
data_0x1006cda4 = .data:0x1006CDA4; // type:object scope:global
data_0x1006cea0 = .data:0x1006CEA0; // type:object scope:global
___piob = .data:0x1006CEA4; // type:object scope:global
lbl_1006CEC0 = .data:0x1006CEC0; // type:object size:0x1000
__nstream = .data:0x1006DEC0; // type:object scope:global
___env_initialized = .data:0x1006DEC4; // type:object scope:global
___mbctype_initialized = .data:0x1006DEC8; // type:object scope:global
___onexitend = .data:0x1006DECC; // type:object scope:global
___onexitbegin = .data:0x1006DED0; // type:object scope:global
___sbh_sizeHeaderList = .data:0x1006DED4; // type:object scope:global
___sbh_indGroupDefer = .data:0x1006DED8; // type:object scope:global
___sbh_pHeaderScan = .data:0x1006DEDC; // type:object scope:global
___sbh_pHeaderDefer = .data:0x1006DEE4; // type:object scope:global
___sbh_cntHeaderList = .data:0x1006DEE8; // type:object scope:global
___sbh_pHeaderList = .data:0x1006DEEC; // type:object scope:global
___sbh_threshold = .data:0x1006DEF0; // type:object size:0x4 scope:global
__crtheap = .data:0x1006DEF4; // type:object scope:global
___active_heap = .data:0x1006DEF8; // type:object size:0x4 scope:global
__acmdln = .data:0x1006DEFC; // type:object scope:global
__pRawDllMain = .data:0x1006DF00; // type:object scope:global
lbl_1006DF04 = .data:0x1006DF04; // type:object size:0x4
lbl_1006DF08 = .data:0x1006DF08; // type:object size:0x4
lbl_1006DF0C = .data:0x1006DF0C; // type:object size:0x4
