??_V@YAXPAXKKP6EXXZ@Z = .text:0x00401000; // type:function size:0x40 scope:global
crt_xc_fn_00401040 = .text:0x00401040; // type:function size:0x30
crt_xc_fn_00401070 = .text:0x00401070; // type:function size:0x30
crt_xc_fn_00401120 = .text:0x00401120; // type:function size:0x1B
??0?$LHListNode@VGBaseInfo@@@@QAE@XZ = .text:0x00401140; // type:function size:0x2A
crt_xc_fn_00401170 = .text:0x00401170; // type:function size:0x10 scope:global
??__EAbodeInfos@@YAXXZ = .text:0x00401180; // type:function size:0x30 scope:global
?Serialise@Base@@UAEXAAVArchive@@@Z = .text:0x004011B0; // type:function size:0x10 scope:global
?Delete@Base@@UAEXXZ = .text:0x004011C0; // type:function size:0xC scope:global
?ToBeDeleted@Base@@UAEXH@Z = .text:0x004011D0; // type:function size:0x10 scope:global
?Get3DSoundPos@Base@@UAEHPAULHPoint@@@Z = .text:0x004011E0; // type:function size:0x10 scope:global
?CleanUpForSerialisation@Base@@UAEXXZ = .text:0x004011F0; // type:function size:0x10 scope:global
?Dump@Base@@UAEXXZ = .text:0x00401200; // type:function size:0x10 scope:global
??_GBase@@UAEPAXI@Z = .text:0x00401210; // type:function size:0x20 scope:global
?UpdateValue@GBaseInfo@@UAEXMII@Z = .text:0x00401230; // type:function size:0x10 scope:global
?GetMesh@GAbodeInfo@@UBE?AW4MESH_LIST@@XZ = .text:0x00401240; // type:function size:0x10 scope:global
?GetAbodeType@GAbodeInfo@@UBE?AW4ABODE_TYPE@@XZ = .text:0x00401250; // type:function size:0x10 scope:global
?GetAbodeNumber@GAbodeInfo@@UBE?AW4ABODE_NUMBER@@XZ = .text:0x00401260; // type:function size:0x10 scope:global
?GetBaseInfo@GAbodeInfo@@UAEAAVGBaseInfo@@AAI@Z = .text:0x00401270; // type:function size:0x20 scope:global
?GetMesh@GObjectInfo@@UBE?AW4MeshId@@W4TRIBE_TYPE@@@Z = .text:0x00401290; // type:function size:0x10 scope:global
?GetAlignmentType@GObjectInfo@@UBE?AW4ALIGNMENT_TYPE@@XZ = .text:0x004012A0; // type:function size:0x4 scope:global
?GetFoodType@GObjectInfo@@UBE?AW4FOOD_TYPE@@XZ = .text:0x004012B0; // type:function size:0x4 scope:global
?GetDebugText@GObjectInfo@@UAEPBDXZ = .text:0x004012C0; // type:function size:0x10 scope:global
??__FAbodeInfos@@YAXXZ = .text:0x004012E0; // type:function size:0x40 scope:global
??_GGAbodeInfo@@UAEPAXI@Z = .text:0x00401320; // type:function size:0x30 scope:global
??0Abode@@QAE@ABUMapCoords@@PBVGAbodeInfo@@PAVTown@@MMMH@Z = .text:0x00401350; // type:function size:0xB0 scope:global
?CanBeFrighteningToCreature@Fixed@@UAEIPAVCreature@@@Z = .text:0x00401400; // type:function size:0x10 scope:global
?CanBeSleptNextToByCreature@Fixed@@UAEIPAVCreature@@@Z = .text:0x00401410; // type:function size:0x10 scope:global
?CanBeDestroyedByStoning@Fixed@@UAEIPAVCreature@@@Z = .text:0x00401420; // type:function size:0x10 scope:global
?CanBeSetOnFire@Fixed@@UAEIPAVCreature@@@Z = .text:0x00401430; // type:function size:0x10 scope:global
?CanBePickedUpByCreature@Fixed@@UAEIPAVCreature@@@Z = .text:0x00401440; // type:function size:0x10 scope:global
?CanBeCrushed@Fixed@@UAEIXZ = .text:0x00401450; // type:function size:0x10 scope:global
?VillagerMustAvoid@Fixed@@UAEIPAVVillager@@@Z = .text:0x00401460; // type:function size:0x10 scope:global
?GetTownArtifact@Fixed@@UAEPAVGameThing@@XZ = .text:0x00401470; // type:function size:0x10 scope:global
?IsTownArtifact@Fixed@@UAEIXZ = .text:0x00401480; // type:function size:0xB scope:global
?AsMultiMapFixed@MultiMapFixed@@UAEPAV1@XZ = .text:0x00401490; // type:function size:0x10 scope:global
?IsPlaytimeStructure@MultiMapFixed@@UAEIXZ = .text:0x004014A0; // type:function size:0x10 scope:global
?IsPlaytimeStarted@MultiMapFixed@@UAEIXZ = .text:0x004014B0; // type:function size:0x10 scope:global
?AddPlaytimeVillager@MultiMapFixed@@UAE_NPAVVillager@@@Z = .text:0x004014C0; // type:function size:0x10 scope:global
?GetResourceDropPosForComputerPlayer@MultiMapFixed@@UAE?AUMapCoords@@W4RESOURCE_TYPE@@@Z = .text:0x004014D0; // type:function size:0x20 scope:global
?GetPercentBuilt@MultiMapFixed@@UAEMXZ = .text:0x004014F0; // type:function size:0x10 scope:global
?GetPercentRepaired@MultiMapFixed@@UAEMXZ = .text:0x00401500; // type:function size:0x20 scope:global
?GetBuildingSiteWood@MultiMapFixed@@UAEIPAI@Z = .text:0x00401510; // type:function scope:global
?GetBuildingObject@MultiMapFixed@@UAEPAXXZ = .text:0x00401520; // type:function size:0x10 scope:global
?IsSolidToNewAbode@MultiMapFixed@@UAEIXZ = .text:0x00401530; // type:function size:0x10 scope:global
?CastMultiMapFixed@MultiMapFixed@@UAEPAV1@XZ = .text:0x00401540; // type:function size:0x10 scope:global
?SetPower@MultiMapFixed@@UAEXM@Z = .text:0x00401550; // type:function size:0x10 scope:global
?GetResourcePos@MultiMapFixed@@UAE?AUMapCoords@@W4RESOURCE_TYPE@@H@Z = .text:0x00401560; // type:function size:0x20 scope:global
?IsPoisonedResource@MultiMapFixed@@UAE_NW4RESOURCE_TYPE@@@Z = .text:0x00401580; // type:function size:0x10 scope:global
?GetResourceNearestEdge@MultiMapFixed@@UAE?AUMapCoords@@W4RESOURCE_TYPE@@PAVObject@@H@Z = .text:0x00401590; // type:function size:0x1B scope:global
?AddToPlayer@MultiMapFixed@@UAEXXZ = .text:0x004015B0; // type:function size:0x10 scope:global
?RemoveFromPlayer@MultiMapFixed@@UAEXXZ = .text:0x004015C0; // type:function size:0x10 scope:global
?CalulateAmountOverMaximum@MultiMapFixed@@UAEHW4RESOURCE_TYPE@@@Z = .text:0x004015D0; // type:function size:0x10 scope:global
?IsBeingBuilt@MultiMapFixed@@UAEIPAVCreature@@@Z = .text:0x004015E0; // type:function size:0x20 scope:global
?NeedsRepair@MultiMapFixed@@UAEIPAVCreature@@@Z = .text:0x00401600; // type:function size:0x10 scope:global
?IsFootpathLink@MultiMapFixed@@UAEIXZ = .text:0x00401610; // type:function size:0x10 scope:global
?GetFootpathLink@MultiMapFixed@@UAEPAVGFootpathLink@@XZ = .text:0x00401620; // type:function size:0x10 scope:global
?GetCollideData@MultiMapFixed@@UAEPAUNewCollide@@XZ = .text:0x00401630; // type:function size:0x10 scope:global
?CastAbode@Abode@@UAEPAV1@XZ = .text:0x00401640; // type:function size:0x10 scope:global
?GetShouldNotBeAddedToPlanned@Abode@@UAEIXZ = .text:0x00401650; // type:function size:0x10 scope:global
?SetShouldNotBeAddedToPlanned@Abode@@UAEX_N@Z = .text:0x00401660; // type:function size:0x20 scope:global
?RestartBeingFunctional@Abode@@UAEXXZ = .text:0x00401680; // type:function size:0x10 scope:global
?SetTown@Abode@@UAEXPAVTown@@@Z = .text:0x00401690; // type:function size:0x10 scope:global
?IsRepaired@Abode@@UAEIXZ = .text:0x004016A0; // type:function size:0x20 scope:global
?IsBuilt@Abode@@UAEIXZ = .text:0x004016C0; // type:function size:0x30 scope:global
?CausesTownEmergencyIfDamaged@Abode@@UAEIXZ = .text:0x004016F0; // type:function size:0x10 scope:global
?GetDestructionMesh@Abode@@UAEPAULH3DMesh@@XZ = .text:0x00401700; // type:function size:0x10 scope:global
?IsAbode@Abode@@UAEIXZ = .text:0x00401710; // type:function size:0x10 scope:global
?IsCastShadowAtNight@Abode@@UAEIXZ = .text:0x00401720; // type:function size:0x10 scope:global
?GetTown@Abode@@UAEPAVTown@@XZ = .text:0x00401730; // type:function size:0x10 scope:global
?GetCreatureBeliefType@Abode@@UAEIXZ = .text:0x00401740; // type:function size:0x10 scope:global
?GetCreatureMimicType@Abode@@UAEIXZ = .text:0x00401750; // type:function size:0x10 scope:global
?GetOrigin@Abode@@UAEIXZ = .text:0x00401760; // type:function size:0x10 scope:global
?GetArrivePos@Abode@@UAE?AUMapCoords@@XZ = .text:0x00401770; // type:function size:0x20 scope:global
?IsHouse@Abode@@UAEIXZ = .text:0x00401790; // type:function size:0x10 scope:global
?GetSaveType@Abode@@UAEIXZ = .text:0x004017A0; // type:function size:0x10 scope:global
?GetDebugText@Abode@@UAEPADXZ = .text:0x004017B0; // type:function size:0x10 scope:global
??_GAbode@@UAEPAXI@Z = .text:0x004017C0; // type:function size:0x30 scope:global
?CalculateInfluence@GameThing@@UAEMABUMapCoords@@@Z = .text:0x004017F0; // type:function size:0x9 scope:global
?RemoveDance@GameThing@@UAEXXZ = .text:0x00401800; // type:function size:0x10 scope:global
?IsAvailable@GameThing@@UAEIXZ = .text:0x00401810; // type:function size:0xB scope:global
?IsCreature@GameThing@@UAEIXZ = .text:0x00401820; // type:function size:0x10 scope:global
?IsCreature@GameThing@@QAE_NPAVCreature@@@Z = .text:0x00401830; // type:function size:0x10 scope:global
?IsCreatureNotTooNear@GameThing@@UAEIPAVCreature@@@Z = .text:0x00401840; // type:function size:0x10 scope:global
?GetMaxAlignmentChangePerGameTurn@GameThing@@UAEMXZ = .text:0x00401850; // type:function size:0x10 scope:global
?GetComputerSeen@GameThing@@UAEIXZ = .text:0x00401860; // type:function size:0x10 scope:global
?GetVillagerActivityDesire@GameThing@@UAEMPAVVillager@@@Z = .text:0x00401870; // type:function size:0x9 scope:global
?SetVillagerActivity@GameThing@@UAEIPAVVillager@@@Z = .text:0x00401880; // type:function size:0x10 scope:global
?UpdateVillagerActivityEffect@GameThing@@UAEIPAVVillager@@@Z = .text:0x00401890; // type:function size:0x10 scope:global
?GetPlayerWhoLastPickedMeUp@GameThing@@UAEPAVGPlayer@@XZ = .text:0x004018A0; // type:function size:0x10 scope:global
?GetPlayerWhoLastDroppedMe@GameThing@@UAEPAVGPlayer@@XZ = .text:0x004018B0; // type:function size:0x10 scope:global
?AddFootpathLink@GameThing@@UAEIPAVGFootpath@@@Z = .text:0x004018C0; // type:function size:0x10 scope:global
?CastCreature@GameThing@@UAEPAVCreature@@XZ = .text:0x004018D0; // type:function size:0x10 scope:global
?CastPlayer@GameThing@@UAEPAVGPlayer@@XZ = .text:0x004018E0; // type:function size:0x10 scope:global
?CastOneOffSpellSeed@GameThing@@UAEPAVSpellSeed@@XZ = .text:0x004018F0; // type:function size:0x10 scope:global
?CastSpellIcon@GameThing@@UAEPAVSpellIcon@@XZ = .text:0x00401900; // type:function size:0x10 scope:global
?CastTree@GameThing@@UAEPAVTree@@XZ = .text:0x00401910; // type:function size:0x10 scope:global
?IsDeletedOnNewMap@GameThing@@UAEIXZ = .text:0x00401920; // type:function size:0x10 scope:global
?GetShowNeedsPos@GameThing@@UAEIIPAUMapCoords@@@Z = .text:0x00401930; // type:function size:0x10 scope:global
?SetPos@GameThingWithPos@@UAEXABUMapCoords@@@Z = .text:0x00401940; // type:function size:0x1A scope:global
?GetPos@GameThingWithPos@@QAEPAUMapCoords@@XZ = .text:0x00401960; // type:function size:0x20 scope:global
?PhysicsEditorCreate@GameThingWithPos@@UAEXH@Z = .text:0x00401980; // type:function size:0xA scope:global
?GetCreatureBeliefListType@GameThingWithPos@@UAEIXZ = .text:0x00401990; // type:function size:0x10 scope:global
?GetCitadel@GameThingWithPos@@UAEPAVCitadel@@XZ = .text:0x004019A0; // type:function size:0x10 scope:global
?SetHeight@GameThingWithPos@@UAEXM@Z = .text:0x004019B0; // type:function size:0x10 scope:global
?SetMaxHeight@GameThingWithPos@@UAEXM@Z = .text:0x004019C0; // type:function size:0x10 scope:global
?GetMaxHeight@GameThingWithPos@@UAEMXZ = .text:0x004019D0; // type:function size:0x10 scope:global
?IsAnimate@GameThingWithPos@@UAEIXZ = .text:0x004019E0; // type:function size:0x10 scope:global
?GetInteractPos@GameThingWithPos@@UAEXPAULHPoint@@@Z = .text:0x004019F0; // type:function size:0x20 scope:global
?IsCannotBePickedUp@GameThingWithPos@@UBEIXZ = .text:0x00401A10; // type:function size:0x10 scope:global
?IsStompable@GameThingWithPos@@UAEIXZ = .text:0x00401A20; // type:function size:0x10 scope:global
?IsAvailableForStateChange@GameThingWithPos@@UAEIXZ = .text:0x00401A30; // type:function size:0x10 scope:global
?GetImpressiveIntensity@GameThingWithPos@@UAEMW4IMPRESSIVE_TYPE@@@Z = .text:0x00401A40; // type:function size:0x10 scope:global
?IsTown@GameThingWithPos@@UAEIPAVCreature@@@Z = .text:0x00401A50; // type:function size:0x10 scope:global
?IsActivityObjectWhichAngerAppliesTo@GameThingWithPos@@UAEIPAVCreature@@@Z = .text:0x00401A60; // type:function size:0x10 scope:global
?IsActivityObjectWhichCompassionAppliesTo@GameThingWithPos@@UAEIPAVCreature@@@Z = .text:0x00401A70; // type:function size:0x10 scope:global
?IsActivityObjectWhichPlayfulnessAppliesTo@GameThingWithPos@@UAEIPAVCreature@@@Z = .text:0x00401A80; // type:function size:0x10 scope:global
?IsTownBelongingToAnotherPlayer@GameThingWithPos@@UAEIPAVCreature@@@Z = .text:0x00401A90; // type:function size:0x10 scope:global
?TrueFunction@GameThingWithPos@@UAEIXZ = .text:0x00401AA0; // type:function size:0x10 scope:global
?FalseFunction@GameThingWithPos@@UAEIXZ = .text:0x00401AB0; // type:function size:0x10 scope:global
?IsNotLiving@GameThingWithPos@@UAEIXZ = .text:0x00401AC0; // type:function size:0x10 scope:global
?IsSuitableForCreatureActivity@GameThingWithPos@@UAEIXZ = .text:0x00401AD0; // type:function size:0x10 scope:global
?IsTown@GameThingWithPos@@UAEIXZ = .text:0x00401AE0; // type:function size:0x10 scope:global
?IsTownCentre@GameThingWithPos@@UAEIXZ = .text:0x00401AF0; // type:function size:0x10 scope:global
?IsTotemStatue@GameThingWithPos@@UAEIXZ = .text:0x00401B00; // type:function size:0x10 scope:global
?IsTownDesireFlag@GameThingWithPos@@UAEIXZ = .text:0x00401B10; // type:function size:0x10 scope:global
?IsRock@GameThingWithPos@@UAEIXZ = .text:0x00401B20; // type:function size:0x10 scope:global
?IsSpellDispenser@GameThingWithPos@@UAEIXZ = .text:0x00401B30; // type:function size:0x10 scope:global
?IsMist@GameThingWithPos@@UAEIXZ = .text:0x00401B40; // type:function size:0x10 scope:global
?IsQueryIcon@GameThingWithPos@@UAEIXZ = .text:0x00401B50; // type:function size:0x10 scope:global
?IsStreetLight@GameThingWithPos@@UAEIXZ = .text:0x00401B60; // type:function size:0x10 scope:global
?IsStreetLantern@GameThingWithPos@@UAEIXZ = .text:0x00401B70; // type:function size:0x10 scope:global
?IsField@GameThingWithPos@@UAEIXZ = .text:0x00401B80; // type:function size:0x10 scope:global
?IsMagicFireBall@GameThingWithPos@@UAEIXZ = .text:0x00401B90; // type:function size:0x10 scope:global
?IsCitadelHeart@GameThingWithPos@@UAEIXZ = .text:0x00401BA0; // type:function size:0x10 scope:global
?IsDamaged@GameThingWithPos@@UAEIXZ = .text:0x00401BB0; // type:function size:0x20 scope:global
?CanBeHealedByCreature@GameThingWithPos@@UAEIPAVCreature@@@Z = .text:0x00401BD0; // type:function size:0x10 scope:global
?CanBeBefriendedByCreature@GameThingWithPos@@UAEIPAVCreature@@@Z = .text:0x00401BE0; // type:function size:0x10 scope:global
?CanBeKissedByCreature@GameThingWithPos@@UAEIPAVCreature@@@Z = .text:0x00401BF0; // type:function size:0x10 scope:global
?CanBeGivenToVillager@GameThingWithPos@@UAEIPAVCreature@@@Z = .text:0x00401C00; // type:function size:0x10 scope:global
?CanBeStonedAndEatenByCreature@GameThingWithPos@@UAEIPAVCreature@@@Z = .text:0x00401C10; // type:function size:0x40 scope:global
?CanBeFoughtByCreature@GameThingWithPos@@UAEIPAVCreature@@@Z = .text:0x00401C50; // type:function size:0x10 scope:global
?CanReceiveGifts@GameThingWithPos@@UAEIPAVCreature@@@Z = .text:0x00401C60; // type:function size:0x10 scope:global
?CanActAsAContainer@GameThingWithPos@@UAEIPAVCreature@@@Z = .text:0x00401C70; // type:function size:0x10 scope:global
?IsNotOnFire@GameThingWithPos@@UAEIPAVCreature@@@Z = .text:0x00401C80; // type:function size:0x20 scope:global
?CanBeUsedForBuilding@GameThingWithPos@@UAEIPAVCreature@@@Z = .text:0x00401CA0; // type:function size:0x10 scope:global
?IsMushroom@GameThingWithPos@@UAEIPAVCreature@@@Z = .text:0x00401CB0; // type:function size:0x10 scope:global
?CanBeUsedForRepair@GameThingWithPos@@UAEIPAVCreature@@@Z = .text:0x00401CC0; // type:function size:0x10 scope:global
?CanBeGivenToTown@GameThingWithPos@@UAEIPAVCreature@@@Z = .text:0x00401CD0; // type:function size:0x10 scope:global
?CanBeUsedToHoldWater@GameThingWithPos@@UAEIPAVCreature@@@Z = .text:0x00401CE0; // type:function size:0x10 scope:global
?CanHaveMagicFoodCastOnMe@GameThingWithPos@@UAEIPAVCreature@@@Z = .text:0x00401CF0; // type:function size:0x10 scope:global
?CanHaveMagicWoodCastOnMe@GameThingWithPos@@UAEIPAVCreature@@@Z = .text:0x00401D00; // type:function size:0x10 scope:global
?IsVillager@GameThingWithPos@@UAEIPAVCreature@@@Z = .text:0x00401D10; // type:function size:0x10 scope:global
?IsVillagerFarFromHome@GameThingWithPos@@UAEIPAVCreature@@@Z = .text:0x00401D20; // type:function size:0x10 scope:global
?IsVillagerInTownWithoutManyBreeders@GameThingWithPos@@UAEIPAVCreature@@@Z = .text:0x00401D30; // type:function size:0x10 scope:global
?IsVillagerNotWorshipping@GameThingWithPos@@UAEIPAVCreature@@@Z = .text:0x00401D40; // type:function size:0x10 scope:global
?IsVillagerBelongingToOtherPlayer@GameThingWithPos@@UAEIPAVCreature@@@Z = .text:0x00401D50; // type:function size:0x10 scope:global
?IsCow@GameThingWithPos@@UAEIPAVCreature@@@Z = .text:0x00401D60; // type:function size:0x10 scope:global
?IsVillagerWhoHasNotBeenImpressedRecently@GameThingWithPos@@UAEIPAVCreature@@@Z = .text:0x00401D70; // type:function size:0x10 scope:global
?IsVillagerWhoHasNotBeenDancedWithRecently@GameThingWithPos@@UAEIPAVCreature@@@Z = .text:0x00401D80; // type:function size:0x10 scope:global
?DoesVillagerBelongToATownWhichIsAlreadyImpressed@GameThingWithPos@@UAEIPAVCreature@@@Z = .text:0x00401D90; // type:function size:0x10 scope:global
?DoesTotemBelongToATownWhichIsVeryImpressedIndeed@GameThingWithPos@@UAEIPAVCreature@@@Z = .text:0x00401DA0; // type:function size:0x10 scope:global
?IsDominantCreature@GameThingWithPos@@UAEIPAVCreature@@@Z = .text:0x00401DB0; // type:function size:0x10 scope:global
?CanBeDancedWith@GameThingWithPos@@UAEIPAVCreature@@@Z = .text:0x00401DC0; // type:function size:0x10 scope:global
?IsAggressive@GameThingWithPos@@UAEIPAVCreature@@@Z = .text:0x00401DD0; // type:function size:0x10 scope:global
?IsStoragePit@GameThingWithPos@@UAEIPAVCreature@@@Z = .text:0x00401DE0; // type:function size:0x10 scope:global
?IsWorshipSite@GameThingWithPos@@UAEIPAVCreature@@@Z = .text:0x00401DF0; // type:function size:0x10 scope:global
?IsWorshipSite@GameThingWithPos@@UAEIXZ = .text:0x00401E00; // type:function size:0x10 scope:global
?GetWorshipSite@GameThingWithPos@@UAEPAVWorshipSite@@XZ = .text:0x00401E10; // type:function size:0x10 scope:global
?IsWorkshop@GameThingWithPos@@UAEIPAVCreature@@@Z = .text:0x00401E20; // type:function size:0x10 scope:global
?IsStoragePitWithFoodInIt@GameThingWithPos@@UAEIPAVCreature@@@Z = .text:0x00401E30; // type:function size:0x10 scope:global
?IsField@GameThingWithPos@@UAEIPAVCreature@@@Z = .text:0x00401E40; // type:function size:0x10 scope:global
?IsFieldWhichNeedsWatering@GameThingWithPos@@UAEIPAVCreature@@@Z = .text:0x00401E50; // type:function size:0x10 scope:global
?IsFieldWithFoodInIt@GameThingWithPos@@UAEIPAVCreature@@@Z = .text:0x00401E60; // type:function size:0x10 scope:global
?IsFieldBelongingToAnotherPlayer@GameThingWithPos@@UAEIPAVCreature@@@Z = .text:0x00401E70; // type:function size:0x10 scope:global
?IsStoragePitBelongingToAnotherPlayer@GameThingWithPos@@UAEIPAVCreature@@@Z = .text:0x00401E80; // type:function size:0x10 scope:global
?IsStoragePitBelongingToMyPlayer@GameThingWithPos@@UAEIPAVCreature@@@Z = .text:0x00401E90; // type:function size:0x10 scope:global
?BenefitsFromHavingWaterSprinkledOnIt@GameThingWithPos@@UAEIPAVCreature@@@Z = .text:0x00401EA0; // type:function size:0x10 scope:global
?IsTree@GameThingWithPos@@UAEIPAVCreature@@@Z = .text:0x00401EB0; // type:function size:0x10 scope:global
?IsTreeNotTooNearPlannedForest@GameThingWithPos@@UAEIPAVCreature@@@Z = .text:0x00401EC0; // type:function size:0x10 scope:global
?IsTreeBigEnoughForCreature@GameThingWithPos@@UAEIPAVCreature@@@Z = .text:0x00401ED0; // type:function size:0x10 scope:global
?IsAFoodPileOutsideStoragePit@GameThingWithPos@@UAEIPAVCreature@@@Z = .text:0x00401EE0; // type:function size:0x10 scope:global
?IsAWoodPileOutsideStoragePit@GameThingWithPos@@UAEIPAVCreature@@@Z = .text:0x00401EF0; // type:function size:0x10 scope:global
?IsDoingSomethingInteresting@GameThingWithPos@@UAEIPAVCreature@@@Z = .text:0x00401F00; // type:function size:0x10 scope:global
?CanBeUsedForBuildingHomeByCreature@GameThingWithPos@@UAEIPAVCreature@@@Z = .text:0x00401F10; // type:function size:0x40 scope:global
?IsRock@GameThingWithPos@@UAEIPAVCreature@@@Z = .text:0x00401F50; // type:function size:0xB scope:global
?IsPickupableRock@GameThingWithPos@@UAEIPAVCreature@@@Z = .text:0x00401F60; // type:function size:0x40 scope:global
?IsCitadelPart@GameThingWithPos@@UAEIPAVCreature@@@Z = .text:0x00401FA0; // type:function size:0x10 scope:global
?IsPlayingFootball@GameThingWithPos@@UAEIPAVCreature@@@Z = .text:0x00401FB0; // type:function size:0x10 scope:global
?IsPlayingFootballAndMySideHasJustScored@GameThingWithPos@@UAEIPAVCreature@@@Z = .text:0x00401FC0; // type:function size:0x10 scope:global
?IsPlayingFootballAndOtherSideHasJustScored@GameThingWithPos@@UAEIPAVCreature@@@Z = .text:0x00401FD0; // type:function size:0x10 scope:global
?IsAnimalBelongingToOtherPlayer@GameThingWithPos@@UAEIPAVCreature@@@Z = .text:0x00401FE0; // type:function size:0x10 scope:global
?IsOneOffSpellBelongingToOtherPlayer@GameThingWithPos@@UAEIPAVCreature@@@Z = .text:0x00401FF0; // type:function size:0x10 scope:global
?IsOneOffSpellAggressive@GameThingWithPos@@UAEIPAVCreature@@@Z = .text:0x00402000; // type:function size:0x10 scope:global
?IsOneOffSpellCompassionate@GameThingWithPos@@UAEIPAVCreature@@@Z = .text:0x00402010; // type:function size:0x10 scope:global
?IsOneOffSpellPlayful@GameThingWithPos@@UAEIPAVCreature@@@Z = .text:0x00402020; // type:function size:0x10 scope:global
?IsOneOffSpellToRestoreHealth@GameThingWithPos@@UAEIPAVCreature@@@Z = .text:0x00402030; // type:function size:0x10 scope:global
?CanBeStolenByCreature@GameThingWithPos@@UAEIPAVCreature@@@Z = .text:0x00402040; // type:function size:0x10 scope:global
?IsStealableSpell@GameThingWithPos@@UAEIPAVCreature@@@Z = .text:0x00402050; // type:function size:0x10 scope:global
?IsStealableScaffold@GameThingWithPos@@UAEIPAVCreature@@@Z = .text:0x00402060; // type:function size:0x10 scope:global
?IsTownBelongingToOtherPlayer@GameThingWithPos@@UAEIPAVCreature@@@Z = .text:0x00402070; // type:function size:0x10 scope:global
?IsTotemWithStealableSpell@GameThingWithPos@@UAEIPAVCreature@@@Z = .text:0x00402080; // type:function size:0x10 scope:global
?IsCreatureAvailableForJointActivity@GameThingWithPos@@UAEIPAVCreature@@@Z = .text:0x00402090; // type:function size:0x10 scope:global
?IsCreatureNotAvailableForJointActivity@GameThingWithPos@@UAEIPAVCreature@@@Z = .text:0x004020A0; // type:function size:0x10 scope:global
?IsToyAwayFromHome@GameThingWithPos@@UAEIPAVCreature@@@Z = .text:0x004020B0; // type:function size:0x10 scope:global
?IsToy@GameThingWithPos@@UAEIPAVCreature@@@Z = .text:0x004020C0; // type:function size:0x10 scope:global
?IsToyBall@GameThingWithPos@@UAEIPAVCreature@@@Z = .text:0x004020D0; // type:function size:0x10 scope:global
?IsToyDie@GameThingWithPos@@UAEIPAVCreature@@@Z = .text:0x004020E0; // type:function size:0x10 scope:global
?IsToyCuddly@GameThingWithPos@@UAEIPAVCreature@@@Z = .text:0x004020F0; // type:function size:0x10 scope:global
?IsLiving@GameThingWithPos@@UBEIPAVCreature@@@Z = .text:0x00402100; // type:function size:0xB scope:global
?IsFence@GameThingWithPos@@UAEIXZ = .text:0x00402110; // type:function size:0x10 scope:global
?IsSpellIcon@GameThingWithPos@@UAEIXZ = .text:0x00402120; // type:function size:0x10 scope:global
?CanBeUsedForThrowingDamageByCreature@GameThingWithPos@@UAEIPAVCreature@@@Z = .text:0x00402130; // type:function size:0x10 scope:global
?IsCreatureWhoSeemsFriendly@GameThingWithPos@@UAEIPAVCreature@@@Z = .text:0x00402140; // type:function size:0x10 scope:global
?CanBeThrownInTheSeaPlayfully@GameThingWithPos@@UAEIPAVCreature@@@Z = .text:0x00402150; // type:function size:0x10 scope:global
?IsFlock@GameThingWithPos@@UBEIXZ = .text:0x00402160; // type:function size:0x10 scope:global
?IsDance@GameThingWithPos@@UBEIXZ = .text:0x00402170; // type:function size:0x10 scope:global
?IsReward@GameThingWithPos@@UBEIXZ = .text:0x00402180; // type:function size:0x10 scope:global
?IsScriptContainer@GameThingWithPos@@UBEIXZ = .text:0x00402190; // type:function size:0x10 scope:global
?IsWeather@GameThingWithPos@@UBEIXZ = .text:0x004021A0; // type:function size:0x10 scope:global
?IsSpell@GameThingWithPos@@UBEIXZ = .text:0x004021B0; // type:function size:0x10 scope:global
?IsDeletedWhenReleasedFromScript@GameThingWithPos@@UAEIXZ = .text:0x004021C0; // type:function size:0x10 scope:global
?IsMobileWallHug@GameThingWithPos@@UBEIXZ = .text:0x004021D0; // type:function size:0x10 scope:global
?IsActive@GameThingWithPos@@UBEIXZ = .text:0x004021E0; // type:function size:0x10 scope:global
?IsObjectTurningTooFastForCameraToFollowSmoothly@GameThingWithPos@@UAEIXZ = .text:0x004021F0; // type:function size:0x10 scope:global
?CalculateDesireForFood@GameThingWithPos@@UAEMXZ = .text:0x00402200; // type:function size:0x10 scope:global
?CalculateDesireForRest@GameThingWithPos@@UAEMXZ = .text:0x00402210; // type:function size:0x10 scope:global
?CalculatePeopleHidingIndicator@GameThingWithPos@@UAEMXZ = .text:0x00402220; // type:function size:0x10 scope:global
?IsReadyForNewScriptAction@GameThingWithPos@@UAEIXZ = .text:0x00402230; // type:function size:0x10 scope:global
?SetControlledByScript@GameThingWithPos@@UAEXH@Z = .text:0x00402240; // type:function size:0x30 scope:global
?GetDeathReason@GameThingWithPos@@UAE?AW4DEATH_REASON@@XZ = .text:0x00402270; // type:function size:0x10 scope:global
?IsInScript@GameThingWithPos@@UAEIXZ = .text:0x00402280; // type:function size:0x10 scope:global
?IsMaleVillager@GameThingWithPos@@UAEIXZ = .text:0x00402290; // type:function size:0x10 scope:global
?IsFemaleVillager@GameThingWithPos@@UAEIXZ = .text:0x004022A0; // type:function size:0x10 scope:global
?IsAnimal@GameThingWithPos@@UAEIXZ = .text:0x004022B0; // type:function size:0x10 scope:global
?IsAChild@GameThingWithPos@@UAEIXZ = .text:0x004022C0; // type:function size:0x10 scope:global
?IsFootball@GameThingWithPos@@UAEIXZ = .text:0x004022D0; // type:function size:0x10 scope:global
?IsCitadel@GameThingWithPos@@UAEIXZ = .text:0x004022E0; // type:function size:0x10 scope:global
?IsForest@GameThingWithPos@@UAEIXZ = .text:0x004022F0; // type:function size:0x10 scope:global
?IsMobileObject@GameThingWithPos@@UAEIXZ = .text:0x00402300; // type:function size:0x10 scope:global
?IsMobileStatic@GameThingWithPos@@UAEIXZ = .text:0x00402310; // type:function size:0x10 scope:global
?IsTree@GameThingWithPos@@UAEIXZ = .text:0x00402320; // type:function size:0x10 scope:global
?IsAnyKindOfTree@GameThingWithPos@@UAEIXZ = .text:0x00402330; // type:function size:0x10 scope:global
?IsDeadTree@GameThingWithPos@@UAEIXZ = .text:0x00402340; // type:function size:0x10 scope:global
?IsLiving@GameThingWithPos@@UBEIXZ = .text:0x00402350; // type:function size:0x10 scope:global
?IsCitadelPart@GameThingWithPos@@UAEIXZ = .text:0x00402360; // type:function size:0x10 scope:global
?IsPileFood@GameThingWithPos@@UAEIXZ = .text:0x00402370; // type:function size:0x10 scope:global
?IsFeature@GameThingWithPos@@UAEIXZ = .text:0x00402380; // type:function size:0x10 scope:global
?IsScriptMarker@GameThingWithPos@@UAEIXZ = .text:0x00402390; // type:function size:0x10 scope:global
?IsScriptHighlight@GameThingWithPos@@UAEIXZ = .text:0x004023A0; // type:function size:0x10 scope:global
?IsWorkshop@GameThingWithPos@@UAEIXZ = .text:0x004023B0; // type:function size:0x10 scope:global
?IsInfluenceRing@GameThingWithPos@@UAEIXZ = .text:0x004023C0; // type:function size:0x10 scope:global
?IsPuzzleGame@GameThingWithPos@@UAEIXZ = .text:0x004023D0; // type:function size:0x10 scope:global
?IsScaffold@GameThingWithPos@@UAEIXZ = .text:0x004023E0; // type:function size:0x10 scope:global
?IsSkeleton@GameThingWithPos@@UBEIXZ = .text:0x004023F0; // type:function size:0x10 scope:global
?IsPoisoned@GameThingWithPos@@UAEIXZ = .text:0x00402400; // type:function size:0x10 scope:global
?IsSpeedUp@GameThingWithPos@@UAEIXZ = .text:0x00402410; // type:function size:0x10 scope:global
?IsParticleContainer@GameThingWithPos@@UAEIXZ = .text:0x00402420; // type:function size:0x10 scope:global
?IsSacrificeAltar@GameThingWithPos@@UAEIXZ = .text:0x00402430; // type:function size:0x10 scope:global
?IsPot@GameThingWithPos@@UAEIXZ = .text:0x00402440; // type:function size:0x10 scope:global
?IsComputerPlayer@GameThingWithPos@@UAEIXZ = .text:0x00402450; // type:function size:0x10 scope:global
?SetSkeleton@GameThingWithPos@@UAEXH@Z = .text:0x00402460; // type:function size:0x10 scope:global
?IsSpellSeed@GameThingWithPos@@UAEIXZ = .text:0x00402470; // type:function size:0x10 scope:global
?IsSpellShield@GameThingWithPos@@UAEIXZ = .text:0x00402480; // type:function size:0x10 scope:global
?IsPileResource@GameThingWithPos@@UAEIXZ = .text:0x00402490; // type:function size:0x10 scope:global
?IsScriptTimer@GameThingWithPos@@UAEIXZ = .text:0x004024A0; // type:function size:0x10 scope:global
?GetFacingDirection@GameThingWithPos@@UAEMXZ = .text:0x004024B0; // type:function size:0x10 scope:global
?SetAffectedByWind@GameThingWithPos@@UAEXH@Z = .text:0x004024C0; // type:function size:0x10 scope:global
?GetReactionPower@GameThingWithPos@@UAEMXZ = .text:0x004024D0; // type:function size:0x10 scope:global
?CleanUpBeforeReset@GameThingWithPos@@UAEXXZ = .text:0x004024E0; // type:function size:0x10 scope:global
?GetXAngle@Object@@UAEMXZ = .text:0x004024F0; // type:function size:0x10 scope:global
?GetYAngle@Object@@UAEMXZ = .text:0x00402500; // type:function size:0x10 scope:global
?GetZAngle@Object@@UAEMXZ = .text:0x00402510; // type:function size:0x10 scope:global
?GetScale@Object@@UAEMXZ = .text:0x00402520; // type:function size:0x10 scope:global
?SetJustScale@Object@@UAEXM@Z = .text:0x00402530; // type:function size:0xA scope:global
?UpdateFrom3DPosition@Object@@UAEXXZ = .text:0x00402540; // type:function size:0x10 scope:global
?MoveAlongPath@Object@@UAEIXZ = .text:0x00402550; // type:function size:0x10 scope:global
?IsReachable@Object@@UAEIXZ = .text:0x00402560; // type:function size:0x10 scope:global
?GetPtr@Object@@UAEPAV1@XZ = .text:0x00402570; // type:function scope:global
?Get3DObjectForPSys@Object@@UAEPAVGame3DObject@@XZ = .text:0x00402580; // type:function size:0x10 scope:global
?GetSpotEffectPower@Object@@UAEMXZ = .text:0x00402590; // type:function size:0x10 scope:global
?GetHoldYRotate@Object@@UAEMXZ = .text:0x004025A0; // type:function size:0x10 scope:global
?HandShouldFeelWithMeshIntersect@Object@@UAEIXZ = .text:0x004025B0; // type:function size:0x10 scope:global
?SetSpecularColor@Object@@UAEXULH3DColor@@@Z = .text:0x004025C0; // type:function size:0x10 scope:global
?GetSpecularColor@Object@@UAE?AULH3DColor@@XZ = .text:0x004025D0; // type:function size:0x10 scope:global
?SetBeliefSprite@Object@@UAEXPAULH3DSprite@@@Z = .text:0x004025E0; // type:function size:0x10 scope:global
?GetBeliefSprite@Object@@UAEPAULH3DSprite@@XZ = .text:0x004025F0; // type:function size:0x10 scope:global
?GetLife@Object@@UAEMXZ = .text:0x00402600; // type:function size:0x10 scope:global
?IsAlive@Object@@UAEIXZ = .text:0x00402610; // type:function size:0x30 scope:global
?ScaffoldMoved@Object@@UAEXPAVScaffold@@@Z = .text:0x00402640; // type:function size:0x10 scope:global
?ProcessBySpell@Object@@UAEIPAVSpell@@@Z = .text:0x00402650; // type:function size:0x10 scope:global
?GetDetailMesh@Object@@UBEHH@Z = .text:0x00402660; // type:function size:0xB scope:global
?IsG3DObjectDrawnInHand@Object@@UAEIXZ = .text:0x00402670; // type:function size:0x10 scope:global
?GetDrawRegion@Object@@UAEXPAULHRegion@@@Z = .text:0x00402680; // type:function size:0x10 scope:global
?ProcessState@Object@@UAEIXZ = .text:0x00402690; // type:function size:0x10 scope:global
?CanBePickedUp@Object@@UAEIXZ = .text:0x004026A0; // type:function size:0x10 scope:global
?GetVillagerHugRadius@Object@@UAEMXZ = .text:0x004026B0; // type:function size:0x20 scope:global
?GetFoodValue@Object@@UAEMW4FOOD_TYPE@@@Z = .text:0x004026D0; // type:function size:0x30 scope:global
?GetFoodType@Object@@QAE?AW4FOOD_TYPE@@XZ = .text:0x00402700; // type:function size:0x10 scope:global
?IsMoving@Object@@UBEIXZ = .text:0x00402710; // type:function scope:global
?IsSpellSeedReturnPoint@Object@@UBEIXZ = .text:0x00402730; // type:function size:0x10 scope:global
?IsABeliever@Object@@UAEIXZ = .text:0x00402740; // type:function size:0x10 scope:global
?GetResourceType@Object@@UAE?AW4RESOURCE_TYPE@@XZ = .text:0x00402750; // type:function size:0x10 scope:global
?GetDefaultResource@Object@@UAEHXZ = .text:0x00402760; // type:function size:0x10 scope:global
?SetPoisonedResource@Object@@UAEXW4RESOURCE_TYPE@@H@Z = .text:0x00402770; // type:function size:0x10 scope:global
?SetPoisoned@Object@@UAEXH@Z = .text:0x00402780; // type:function size:0x10 scope:global
?IsLockedInInteract@Object@@UAEIXZ = .text:0x00402790; // type:function size:0x10 scope:global
?SetDying@Object@@UAEIXZ = .text:0x004027A0; // type:function size:0x10 scope:global
?EndOnFire@Object@@UAEXXZ = .text:0x004027B0; // type:function size:0x10 scope:global
?GetDistanceFromObject@Object@@UAEMABUMapCoords@@@Z = .text:0x004027C0; // type:function size:0x10 scope:global
?NetworkUnfriendlyStartLockedSelect@Object@@UAEIXZ = .text:0x004027D0; // type:function size:0x10 scope:global
?IsReadyForNetworkUnfriendlyLockedSelect@Object@@UAEIXZ = .text:0x004027E0; // type:function size:0x10 scope:global
?NetworkUnfriendlyLockedSelect@Object@@UAEIPAUControlHandUpdateInfo@@@Z = .text:0x004027F0; // type:function size:0x10 scope:global
?GetReadyForNetworkUnfriendlyEndLockedSelect@Object@@UAEIXZ = .text:0x00402800; // type:function size:0x10 scope:global
?IsReadyForNetworkUnfriendlyEndLockedSelect@Object@@UAEIXZ = .text:0x00402810; // type:function size:0x10 scope:global
?NetworkUnfriendlyEndLockedSelect@Object@@UAEIXZ = .text:0x00402820; // type:function size:0x10 scope:global
?NetworkFriendlyEndLockedSelect@Object@@UAEIPAVGInterfaceStatus@@@Z = .text:0x00402830; // type:function size:0x10 scope:global
?ValidAsInterfaceTarget@Object@@UAEIXZ = .text:0x00402840; // type:function size:0x10 scope:global
?ValidAsInterfaceLeashTarget@Object@@UAEIXZ = .text:0x00402850; // type:function size:0x10 scope:global
?SelectOnlyAfterRecSystem@Object@@UAEIXZ = .text:0x00402860; // type:function size:0x10 scope:global
?ValidForPlaceInHand@Object@@UAEIPAVGInterfaceStatus@@@Z = .text:0x00402870; // type:function size:0x10 scope:global
?ValidToRemoveFromHand@Object@@UAEIPAVGInterfaceStatus@@ABUMapCoords@@@Z = .text:0x00402880; // type:function size:0x10 scope:global
?RemoveFromHand@Object@@UAEIPAVGInterfaceStatus@@ABUMapCoords@@@Z = .text:0x00402890; // type:function size:0x10 scope:global
?InterfaceMustBeInInfluenceForInteraction@Object@@UAEIXZ = .text:0x004028A0; // type:function size:0x10 scope:global
?ValidToApplyThisToObject@Object@@UAEIPAVGInterfaceStatus@@PAV1@@Z = .text:0x004028B0; // type:function size:0x10 scope:global
?ApplyThisToObject@Object@@UAEIPAVGInterfaceStatus@@PAV1@PAUGestureSystemPacketData@@@Z = .text:0x004028C0; // type:function size:0x10 scope:global
?ValidToApplyThisToMapCoord@Object@@UAEIPAVGInterfaceStatus@@ABUMapCoords@@@Z = .text:0x004028D0; // type:function size:0x10 scope:global
?ApplyThisToMapCoord@Object@@UAEIPAVGInterfaceStatus@@ABUMapCoords@@PAUGestureSystemPacketData@@@Z = .text:0x004028E0; // type:function size:0x10 scope:global
?ValidForLockedApplyProcess@Object@@UAEIPAVGInterfaceStatus@@@Z = .text:0x004028F0; // type:function size:0x10 scope:global
?ApplyUnlockProcess@Object@@UAEIPAVGInterfaceStatus@@@Z = .text:0x00402900; // type:function size:0x10 scope:global
?IsInterfacePowerUpWhenInHand@Object@@UBEIXZ = .text:0x00402910; // type:function size:0x10 scope:global
?ApplyOnlyAfterRecSystem@Object@@UAEIXZ = .text:0x00402920; // type:function size:0x10 scope:global
?ApplyOnlyAfterReleased@Object@@UAEIXZ = .text:0x00402930; // type:function size:0x10 scope:global
?InterfaceValidToGiveObject@Object@@UAEIPAVGInterfaceStatus@@PAV1@@Z = .text:0x00402940; // type:function size:0x10 scope:global
?InterfaceGiveObject@Object@@UAEIPAVGInterfaceStatus@@PAV1@@Z = .text:0x00402950; // type:function size:0x10 scope:global
?InterfaceValidToInteractAsMapCoordsObject@Object@@UAEIPAVGInterfaceStatus@@@Z = .text:0x00402960; // type:function size:0x10 scope:global
?InterfaceInteractAsMapCoordsObject@Object@@UAEIPAVGInterfaceStatus@@@Z = .text:0x00402970; // type:function size:0x10 scope:global
?ValidToSelectFightThisToMapCoord@Object@@UAEIPAVGInterfaceStatus@@ABUMapCoords@@@Z = .text:0x00402980; // type:function size:0x10 scope:global
?ValidToApplyFightThisToMapCoord@Object@@UAEIPAVGInterfaceStatus@@ABUMapCoords@@@Z = .text:0x00402990; // type:function size:0x10 scope:global
?SelectFightThisToMapCoord@Object@@UAEIPAVGInterfaceStatus@@ABUMapCoords@@@Z = .text:0x004029A0; // type:function size:0x10 scope:global
?ApplyFightThisToMapCoord@Object@@UAEIPAVGInterfaceStatus@@ABUMapCoords@@@Z = .text:0x004029B0; // type:function size:0x10 scope:global
?ValidToFightThisToObject@Object@@UAEIPAVGInterfaceStatus@@ABUMapCoords@@@Z = .text:0x004029C0; // type:function size:0x10 scope:global
?FightThisToObject@Object@@UAEIPAVGInterfaceStatus@@PAV1@@Z = .text:0x004029D0; // type:function size:0x10 scope:global
?IsEffectReceiver@Object@@UAEIPAVEffectValues@@@Z = .text:0x004029E0; // type:function size:0x10 scope:global
?IsObject@Object@@UBEIXZ = .text:0x004029F0; // type:function size:0x10 scope:global
?PhysicallyDestroysAbodes@Object@@UAEIXZ = .text:0x00402A00; // type:function size:0x10 scope:global
?GetAlwaysRemainsInPhysicsInternalSystem@Object@@UAEIXZ = .text:0x00402A10; // type:function size:0x10 scope:global
?IsSuitableForCreatureAction@Object@@UAEIXZ = .text:0x00402A20; // type:function size:0xA scope:global
?CanBePoodOn@Object@@UAEIPAVCreature@@@Z = .text:0x00402A30; // type:function size:0x10 scope:global
?CanBeAttackedByCreature@Object@@UAEIPAVCreature@@@Z = .text:0x00402A40; // type:function size:0x20 scope:global
?CanBePlayedWithByCreature@Object@@UAEIPAVCreature@@@Z = .text:0x00402A60; // type:function size:0x10 scope:global
?CanBeImpressedByCreature@Object@@UAEIPAVCreature@@@Z = .text:0x00402A70; // type:function size:0x10 scope:global
?CanBeHelpedByCreature@Object@@UAEIPAVCreature@@@Z = .text:0x00402A80; // type:function size:0x10 scope:global
?CanBeExaminedByCreature@Object@@UAEIPAVCreature@@@Z = .text:0x00402A90; // type:function size:0x10 scope:global
?IsOnFire@Object@@UAEIPAVCreature@@@Z = .text:0x00402AA0; // type:function size:0x10 scope:global
?GetTastiness@Object@@UAEIXZ = .text:0x00402AB0; // type:function size:0x10 scope:global
?IsScary@Object@@UAEIXZ = .text:0x00402AC0; // type:function size:0x10 scope:global
?GetObjectCollide@Object@@UAEIXZ = .text:0x00402AD0; // type:function size:0x10 scope:global
?IsPushable@Object@@UAEIXZ = .text:0x00402AE0; // type:function size:0x10 scope:global
?GetCarriedTreeType@Object@@UAEIXZ = .text:0x00402AF0; // type:function size:0x10 scope:global
?GetFacingPitch@Object@@UAEMXZ = .text:0x00402B00; // type:function size:0x10 scope:global
?SetHeadPos@Object@@UAEXPAUMapCoords@@@Z = .text:0x00402B10; // type:function size:0x1A scope:global
?IsAPotFromABuildingSite@Object@@UAEIXZ = .text:0x00402B30; // type:function size:0x10 scope:global
?GetText@Object@@UAEPBDXZ = .text:0x00402B40; // type:function size:0x10 scope:global
?StandAnimation@Object@@UAEIXZ = .text:0x00402B50; // type:function size:0x10 scope:global
??1Abode@@UAE@XZ = .text:0x00402B60; // type:function size:0x60 scope:global
?SetToZero@Abode@@QAEXXZ = .text:0x00402BC0; // type:function size:0x50 scope:global
?Delete@Abode@@UAEXXZ = .text:0x00402C10; // type:function size:0x50 scope:global
?ToBeDeleted@Abode@@UAEXH@Z = .text:0x00402C60; // type:function size:0x50 scope:global
?DestroyedByBeam@Abode@@UAEXXZ = .text:0x00402CB0; // type:function size:0x20 scope:global
?GetInspectObjectPos@Abode@@UAEIPAVVillager@@PAUMapCoords@@@Z = .text:0x00402CD0; // type:function size:0x20 scope:global
?GetPSysFireLocalRndFlamePos@Abode@@UAEIPAULHPoint@@PAH@Z = .text:0x00402CF0; // type:function size:0xD0 scope:global
?GetPhysicsConstantsType@Abode@@UAEIXZ = .text:0x00402DC0; // type:function size:0x10 scope:global
?SetUpPhysOb@Abode@@UAEXPAUPhysOb@@@Z = .text:0x00402DD0; // type:function size:0x50 scope:global
?Create@Abode@@SAPAV1@ABUMapCoords@@PBVGAbodeInfo@@PAVTown@@MMIIMHH@Z = .text:0x00402E20; // type:function size:0x278 scope:global
?Init@Abode@@QAEXHII@Z = .text:0x00403130; // type:function size:0x60 scope:global
?CreateWithoutSpecial@@YAPAVAbode@@ABUMapCoords@@PBVGAbodeInfo@@PAVTown@@MMMH@Z = .text:0x00403190; // type:function size:0x70 scope:global
?CallVirtualFunctionsForCreation@Abode@@UAEXABUMapCoords@@@Z = .text:0x00403200; // type:function size:0x300 scope:global
?SetIdentityMatrix@LHMatrix@@QAEXXZ = .text:0x00403500; // type:function size:0x2B scope:global
?Translation@LHMatrix@@QAEXABULHPoint@@@Z = .text:0x00403530; // type:function size:0x40 scope:global
?PostTranslation@LHMatrix@@QAEXABULHPoint@@@Z = .text:0x00403570; // type:function size:0x1B scope:global
?GetNewEp@Abode@@QAEIW4ABODE_EPP@@PAULHPoint@@@Z = .text:0x00403590; // type:function size:0x1A0 scope:global
?GetSizeFootprintData@LH3DMesh@@QAEIXZ = .text:0x00403730; // type:function size:0x10 scope:global
?GetSizeUV2Data@LH3DMesh@@QAEIXZ = .text:0x00403740; // type:function size:0x30 scope:global
?GetSizeNameData@LH3DMesh@@QAEIXZ = .text:0x00403770; // type:function size:0x70 scope:global
?GetSizeEMetricsData@LH3DMesh@@QAEIXZ = .text:0x004037E0; // type:function size:0x100 scope:global
?GetSizeEBone@LH3DMesh@@QAEIXZ = .text:0x004038E0; // type:function size:0x150 scope:global
?GetSizeTnLData@LH3DMesh@@QAEIXZ = .text:0x00403A30; // type:function size:0x160 scope:global
?GetSizeFootprintData_dup1@LH3DMesh@@QAEIXZ = .text:0x00403B90; // type:function size:0x20 scope:global
?GetSizeUV2Data_dup1@LH3DMesh@@QAEIXZ = .text:0x00403BB0; // type:function size:0x30 scope:global
?GetSizeNameData_dup1@LH3DMesh@@QAEIXZ = .text:0x00403BE0; // type:function size:0x70 scope:global
?GetSizeEMetricsData_dup1@LH3DMesh@@QAEIXZ = .text:0x00403C50; // type:function size:0xD0 scope:global
?DeleteAbodeSurroundingObjects@Abode@@QAEXXZ = .text:0x00403D20; // type:function size:0xE0 scope:global
?CreateAbodeSurroundingObjects@Abode@@QAEXXZ = .text:0x00403E00; // type:function size:0xE0 scope:global
?InsertMapObject@Abode@@UAEXXZ = .text:0x00403EE0; // type:function size:0x10 scope:global
?ShouldFootpathsGoRound@Abode@@UAEIXZ = .text:0x00403EF0; // type:function size:0x10 scope:global
?DeleteDependancys@Abode@@UAEXXZ = .text:0x00403F00; // type:function size:0x10 scope:global
?GetNumberOfInstanceForGlobalList@Abode@@UAEGXZ = .text:0x00403F10; // type:function size:0x10 scope:global
?GetRemainingFloat@Abode@@QAEXXZ = .text:0x00403F20; // type:function size:0x20
?RemoveDamage@Abode@@UAEXXZ = .text:0x00403F40; // type:function size:0x3A scope:global
?DestroyedByEffect@Abode@@UAEIPAVGPlayer@@M@Z = .text:0x00403F80; // type:function size:0xDA scope:global
fn_0040405A = .text:0x0040405A; // type:function size:0x6
?AddVillagerToAbode@Abode@@QAEXPAVVillager@@@Z = .text:0x00404060; // type:function size:0x1C0 scope:global
?RemoveDeletedVillagerFromAbode@Abode@@QAEXPAVVillager@@@Z = .text:0x00404220; // type:function size:0x120 scope:global
?RemoveAliveVillagerFromAbode@Abode@@QAEXPAVVillager@@@Z = .text:0x00404340; // type:function size:0x100 scope:global
?Process@Abode@@UAEIXZ = .text:0x00404440; // type:function size:0xE0 scope:global
?MoveAbodeToPlannedAbodes@Abode@@UAEXXZ = .text:0x00404520; // type:function size:0x40 scope:global
?RemoveAllVillagersFromAbode@Abode@@QAEXXZ = .text:0x00404560; // type:function size:0x20 scope:global
?NumVillagersOfSex@Abode@@QAEHXZ = .text:0x00404580; // type:function size:0x50 scope:global
?CalculateFoodNeededForDinner@Abode@@QAEHXZ = .text:0x004045D0; // type:function size:0x30 scope:global
?IsEnoughFoodForDinner@Abode@@QAEIXZ = .text:0x00404600; // type:function size:0x30 scope:global
?GetSpouse@Abode@@QAEPAVVillager@@PAV2@@Z = .text:0x00404630; // type:function size:0x30 scope:global
?GetRoomLeftForAdults@Abode@@QAEHXZ = .text:0x00404660; // type:function size:0x20 scope:global
?GetRoomLeftForChildren@Abode@@QAEHXZ = .text:0x00404680; // type:function size:0x20 scope:global
?FUN_004046a0@Abode@@QAEXH@Z = .text:0x004046A0; // type:function size:0x10 scope:global
?FUN_004046b0@Abode@@QAEHXZ = .text:0x004046B0; // type:function size:0xA scope:global
?IsTooCrowded@Abode@@QAEIXZ = .text:0x004046C0; // type:function size:0x60 scope:global
?Built@Abode@@UAEIXZ = .text:0x00404720; // type:function size:0x90 scope:global
?Repaired@Abode@@UAEIXZ = .text:0x004047B0; // type:function size:0x30 scope:global
?MakeFunctional@Abode@@UAEXXZ = .text:0x004047E0; // type:function size:0x17B scope:global
fn_00404960 = .text:0x00404960; // type:function size:0x140
?GetMesh@Abode@@UBEHXZ = .text:0x00404AA0; // type:function size:0x70 scope:global
?IsOkToCreateAtPos@GAbodeInfo@@QBEIABUMapCoords@@MMPAVTown@@@Z = .text:0x00404B10; // type:function size:0x30 scope:global
?CalculateScoreForAddingVillagerToAbode@Abode@@QAEMPAVVillager@@@Z = .text:0x00404B40; // type:function size:0x180 scope:global
?ChildToAdult@Abode@@QAEXPAVVillager@@@Z = .text:0x00404CC0; // type:function size:0x70 scope:global
?GetResource@Abode@@UAEIW4RESOURCE_TYPE@@@Z = .text:0x00404D30; // type:function size:0x10 scope:global
?JustAddResource@Abode@@UAEIW4RESOURCE_TYPE@@I_N@Z = .text:0x00404D40; // type:function size:0x20 scope:global
?JustRemoveResource@Abode@@UAEIW4RESOURCE_TYPE@@IPA_N@Z = .text:0x00404D60; // type:function size:0x30 scope:global
?AddResource@Abode@@UAEIW4RESOURCE_TYPE@@IPAVGInterfaceStatus@@_NPBUMapCoords@@H@Z = .text:0x00404D90; // type:function size:0x60 scope:global
?DoResourceAdding@Abode@@UAEIW4RESOURCE_TYPE@@PAVGInterfaceStatus@@_NPAUMapCoords@@H@Z = .text:0x00404DF0; // type:function size:0x120 scope:global
?RemoveResource@Abode@@UAEIW4RESOURCE_TYPE@@IPAVGInterfaceStatus@@PA_N@Z = .text:0x00404F10; // type:function size:0x50 scope:global
?DoResourceRemoving@Abode@@UAEIW4RESOURCE_TYPE@@IPAVGInterfaceStatus@@_N@Z = .text:0x00404F60; // type:function size:0xC0 scope:global
?ConvertToPlanned@Abode@@UAEPAVPlannedMultiMapFixed@@XZ = .text:0x00405050; // type:function size:0x30 scope:global
??0PlannedAbode@@QAE@ABUMapCoords@@PBVGAbodeInfo@@PAVTown@@MMMH@Z = .text:0x00405080; // type:function size:0x40 scope:global
?GetScale@PlannedMultiMapFixed@@UAEMXZ = .text:0x004050C0; // type:function size:0x10 scope:global
?SetScale@PlannedMultiMapFixed@@UAEXM@Z = .text:0x004050D0; // type:function size:0xA scope:global
?GetTown@PlannedAbode@@UAEPAVTown@@XZ = .text:0x004050E0; // type:function size:0x10 scope:global
?GetSaveType@PlannedAbode@@UAEIXZ = .text:0x004050F0; // type:function size:0x10 scope:global
?GetDebugText@PlannedAbode@@UAEPADXZ = .text:0x00405100; // type:function size:0x10 scope:global
??_GPlannedAbode@@UAEPAXI@Z = .text:0x00405110; // type:function size:0x20 scope:global
?GetDrawImportance@GameThing@@UAEMXZ = .text:0x00405130; // type:function size:0x10 scope:global
?GetRadius@GameThing@@UAEMXZ = .text:0x00405140; // type:function size:0x10 scope:global
?Get2DRadius@GameThing@@UAEMXZ = .text:0x00405150; // type:function size:0x10 scope:global
?IsFootpathLink@GameThing@@UAEIXZ = .text:0x00405160; // type:function size:0x10 scope:global
?GetFootpathLink@GameThing@@UAEPAVGFootpathLink@@XZ = .text:0x00405170; // type:function size:0x10 scope:global
?GetNearestPathTo@GameThing@@UAEIABUMapCoords@@MH@Z = .text:0x00405180; // type:function size:0x10 scope:global
?AddFootpath@GameThing@@UAEIPAVGFootpath@@@Z = .text:0x00405190; // type:function size:0x10 scope:global
?RemoveFootpath@GameThing@@UAEIPAVGFootpath@@@Z = .text:0x004051A0; // type:function size:0x10 scope:global
?GetResource@GameThing@@UAEIW4RESOURCE_TYPE@@@Z = .text:0x004051B0; // type:function size:0x10 scope:global
?AddResource@GameThing@@UAEIW4RESOURCE_TYPE@@IPAVGInterfaceStatus@@_NABUMapCoords@@H@Z = .text:0x004051C0; // type:function size:0x10 scope:global
?RemoveResource@GameThing@@UAEIW4RESOURCE_TYPE@@IPAVGInterfaceStatus@@PA_N@Z = .text:0x004051D0; // type:function size:0x10 scope:global
?CastAbode@GameThing@@UAEPAVAbode@@XZ = .text:0x004051E0; // type:function size:0x10 scope:global
?CastMultiMapFixed@GameThing@@UAEPAVMultiMapFixed@@XZ = .text:0x004051F0; // type:function size:0x10 scope:global
?GetNumberOfInstanceForGlobalList@GameThing@@UAEGXZ = .text:0x00405200; // type:function size:0x10 scope:global
?GetTownArtifactValue@GameThing@@UAEMXZ = .text:0x00405210; // type:function size:0x10 scope:global
?CanBecomeArtifact@GameThing@@UAE_NXZ = .text:0x00405220; // type:function size:0x10 scope:global
?DrawInHand@GameThing@@UAEXPAVGInterfaceStatus@@@Z = .text:0x00405230; // type:function size:0x10 scope:global
?IsFunctional@GameThing@@UAEIXZ = .text:0x00405240; // type:function size:0x10 scope:global
?ResolveLoad@GameThing@@UAEXXZ = .text:0x00405250; // type:function scope:global
?GetArrivePos@GameThingWithPos@@UAE?AUMapCoords@@XZ = .text:0x00405260; // type:function size:0x20 scope:global
?GetCreatureBeliefType@GameThingWithPos@@UAEIXZ = .text:0x00405280; // type:function size:0x10 scope:global
?GetOrigin@GameThingWithPos@@UAEIXZ = .text:0x00405290; // type:function size:0x10 scope:global
?GetLife@GameThingWithPos@@UAEMXZ = .text:0x004052A0; // type:function size:0x10 scope:global
?IsMoving@GameThingWithPos@@UBEIXZ = .text:0x004052B0; // type:function size:0x10 scope:global
?IsObjectInMap@GameThingWithPos@@UAEIXZ = .text:0x004052C0; // type:function size:0x10 scope:global
?IsDrowning@GameThingWithPos@@UAEIXZ = .text:0x004052D0; // type:function size:0x10 scope:global
?IsCastShadowAtNight@GameThingWithPos@@UAEIXZ = .text:0x004052E0; // type:function size:0x10 scope:global
?CleanupWhenDeleted@GameThingWithPos@@UAEXH@Z = .text:0x004052F0; // type:function size:0x10 scope:global
?GetImpressiveValue@GameThingWithPos@@UAEMPAVLiving@@PAVReaction@@@Z = .text:0x00405300; // type:function size:0x10 scope:global
?IsAbode@GameThingWithPos@@UAEIXZ = .text:0x00405310; // type:function size:0x10 scope:global
?IsBuildingMaterial@GameThingWithPos@@UAEIXZ = .text:0x00405320; // type:function size:0x10 scope:global
?IsSuitableForCreatureAction@GameThingWithPos@@UAEIXZ = .text:0x00405330; // type:function size:0x10 scope:global
?CanBeEatenByCreature@GameThingWithPos@@UAEIPAVCreature@@@Z = .text:0x00405340; // type:function size:0x10 scope:global
?CanBeAttackedByCreature@GameThingWithPos@@UAEIPAVCreature@@@Z = .text:0x00405350; // type:function size:0x10 scope:global
?CanBeFrighteningToCreature@GameThingWithPos@@UAEIPAVCreature@@@Z = .text:0x00405360; // type:function size:0x10 scope:global
?CanBeHelpedByCreature@GameThingWithPos@@UAEIPAVCreature@@@Z = .text:0x00405370; // type:function size:0x10 scope:global
?CanBePlayedWithByCreature@GameThingWithPos@@UAEIPAVCreature@@@Z = .text:0x00405380; // type:function size:0x10 scope:global
?CanBeImpressedByCreature@GameThingWithPos@@UAEIPAVCreature@@@Z = .text:0x00405390; // type:function size:0x10 scope:global
?CanBeInspectedByCreature@GameThingWithPos@@UAEIPAVCreature@@@Z = .text:0x004053A0; // type:function size:0x10 scope:global
?CanBePoodUponByCreature@GameThingWithPos@@UAEIPAVCreature@@@Z = .text:0x004053B0; // type:function size:0x10 scope:global
?CanBeSleptNextToByCreature@GameThingWithPos@@UAEIPAVCreature@@@Z = .text:0x004053C0; // type:function size:0x10 scope:global
?CanBePickedUpByCreature@GameThingWithPos@@UAEIPAVCreature@@@Z = .text:0x004053D0; // type:function size:0x10 scope:global
?CanBeStrokedByCreature@GameThingWithPos@@UAEIPAVCreature@@@Z = .text:0x004053E0; // type:function size:0x10 scope:global
?CanBeSetOnFire@GameThingWithPos@@UAEIPAVCreature@@@Z = .text:0x004053F0; // type:function size:0x10 scope:global
?CanBeStompedOnByCreature@GameThingWithPos@@UAEIPAVCreature@@@Z = .text:0x00405400; // type:function size:0x10 scope:global
?CanBeThrownByCreature@GameThingWithPos@@UAEIPAVCreature@@@Z = .text:0x00405410; // type:function size:0x10 scope:global
?CanBePutInAStoragePit@GameThingWithPos@@UAEIPAVCreature@@@Z = .text:0x00405420; // type:function size:0x10 scope:global
?CanBeDestroyedByStoning@GameThingWithPos@@UAEIPAVCreature@@@Z = .text:0x00405430; // type:function size:0x10 scope:global
?CanBeExaminedByCreature@GameThingWithPos@@UAEIPAVCreature@@@Z = .text:0x00405440; // type:function size:0x10 scope:global
?IsBeingBuilt@GameThingWithPos@@UAEIPAVCreature@@@Z = .text:0x00405450; // type:function size:0x10 scope:global
?NeedsRepair@GameThingWithPos@@UAEIPAVCreature@@@Z = .text:0x00405460; // type:function size:0x10 scope:global
?IsOnFire@GameThingWithPos@@UAEIPAVCreature@@@Z = .text:0x00405470; // type:function size:0x10 scope:global
?CanBePutInFoodPile@GameThingWithPos@@UAEIPAVCreature@@@Z = .text:0x00405480; // type:function size:0x10 scope:global
?CanBePutInWoodPile@GameThingWithPos@@UAEIPAVCreature@@@Z = .text:0x00405490; // type:function size:0x10 scope:global
?CanBeBroughtBackToCitadel@GameThingWithPos@@UAEIPAVCreature@@@Z = .text:0x004054A0; // type:function size:0x10 scope:global
?CanBePoodOn@GameThingWithPos@@UAEIPAVCreature@@@Z = .text:0x004054B0; // type:function size:0x10 scope:global
?IsBuildingWhichIsBeingBuilt@GameThingWithPos@@UAEIPAVCreature@@@Z = .text:0x004054C0; // type:function size:0x10 scope:global
?CanBeKickedByCreature@GameThingWithPos@@UAEIPAVCreature@@@Z = .text:0x004054D0; // type:function size:0x10 scope:global
?GetCreatureMimicType@GameThingWithPos@@UAEIXZ = .text:0x004054E0; // type:function size:0x10 scope:global
?GetHowMuchCreatureWantsToLookAtMe@GameThingWithPos@@UAEMXZ = .text:0x004054F0; // type:function size:0x10 scope:global
?GetHeight@GameThingWithPos@@UAEMXZ = .text:0x00405500; // type:function size:0x10 scope:global
?SetInScript@GameThingWithPos@@UAEXH@Z = .text:0x00405510; // type:function size:0x30 scope:global
?IsHouse@GameThingWithPos@@UAEIXZ = .text:0x00405540; // type:function size:0x10 scope:global
?IsObject@GameThingWithPos@@UBEIXZ = .text:0x00405550; // type:function size:0x10 scope:global
?GetQueryFirstEnumText@GameThingWithPos@@UAE?AW4HELP_TEXT@@XZ = .text:0x00405560; // type:function size:0x10 scope:global
?GetQueryLastEnumText@GameThingWithPos@@UAE?AW4HELP_TEXT@@XZ = .text:0x00405570; // type:function size:0x10 scope:global
??0PlannedAbode@@QAE@PAVAbode@@@Z = .text:0x00405580; // type:function size:0x20 scope:global
?Init@PlannedAbode@@QAEXPAVTown@@@Z = .text:0x004055A0; // type:function size:0x20 scope:global
?CreateNoInit@PlannedAbode@@SAPAV1@AAUMapCoords@@PAVGAbodeInfo@@PAVTown@@MM@Z = .text:0x004055C0; // type:function size:0x40 scope:global
?Create@PlannedAbode@@SAPAV1@AAUMapCoords@@PAVGAbodeInfo@@PAVTown@@MM@Z = .text:0x00405600; // type:function size:0x60 scope:global
?Create@PlannedAbode@@SAPAV1@PAVAbode@@@Z = .text:0x00405660; // type:function size:0x50 scope:global
?ToBeDeleted@PlannedAbode@@UAEXH@Z = .text:0x004056B0; // type:function size:0x20 scope:global
?GetInfo@PlannedAbode@@SAPAVGAbodeInfo@@XZ = .text:0x004056D0; // type:function size:0x10 scope:global
?FUN_004056f0@PlannedAbode@@QAEIH@Z = .text:0x004056F0; // type:function size:0x20 scope:global
?CreatePlanned@PlannedAbode@@UAEPAVMultiMapFixed@@M@Z = .text:0x00405710; // type:function size:0x60 scope:global
?CreatePlannedNoFixedCheck@PlannedAbode@@UAEPAVMultiMapFixed@@M@Z = .text:0x00405770; // type:function size:0x80 scope:global
?IsOkToBuild@PlannedAbode@@QAEIXZ = .text:0x004057F0; // type:function size:0x40 scope:global
?Save@PlannedAbode@@UAEIAAVGameOSFile@@@Z = .text:0x00405830; // type:function size:0x30 scope:global
?Load@PlannedAbode@@UAEIAAVGameOSFile@@@Z = .text:0x00405860; // type:function size:0x30 scope:global
?Create@Windmill@@SAPAV1@ABUMapCoords@@PBVGAbodeInfo@@PAVTown@@MMIIMHH@Z = .text:0x00405890; // type:function size:0x70 scope:global
?GetSaveType@Windmill@@UAEIXZ = .text:0x00405900; // type:function size:0x10 scope:global
?GetDebugText@Windmill@@UAEPADXZ = .text:0x00405910; // type:function size:0x10 scope:global
??_GWindmill@@UAEPAXI@Z = .text:0x00405920; // type:function size:0x30 scope:global
?CallVirtualFunctionsForCreation@Windmill@@UAEXABUMapCoords@@@Z = .text:0x00405950; // type:function size:0x30 scope:global
?Open@Windmill@@QAEXXZ = .text:0x00405980; // type:function size:0x50 scope:global
?Close@Windmill@@QAEXXZ = .text:0x004059D0; // type:function size:0x1A scope:global
?PreDraw@Windmill@@QAEXXZ = .text:0x004059F0; // type:function size:0x70 scope:global
?GetDescription@GAbodeInfo@@QAEPBDXZ = .text:0x00405A60; // type:function size:0x10 scope:global
?GetInfoFromText@GAbodeInfo@@SAHPBD@Z = .text:0x00405A70; // type:function size:0xC0 scope:global
?Find@GAbodeInfo@@SAPAU1@W4TRIBE_TYPE@@W4ABODE_NUMBER@@@Z = .text:0x00405B30; // type:function size:0x40 scope:global
?GetAbodeText@Abode@@QAEPADPAD@Z = .text:0x00405B70; // type:function size:0x40 scope:global
?SaveObject@Abode@@UAEIAAVLHOSFile@@ABUMapCoords@@@Z = .text:0x00405BB0; // type:function size:0x1D0 scope:global
?FUN_00405d80@Abode@@QAEHXZ = .text:0x00405D80; // type:function size:0x10 scope:global
?ReduceLife@Abode@@UAEXMPAVGPlayer@@@Z = .text:0x00405D90; // type:function size:0x140 scope:global
?IncreaseLife@Abode@@UAEXM@Z = .text:0x00405ED0; // type:function size:0x70 scope:global
?GetTribeType@Abode@@QBE?AW4TRIBE_TYPE@@XZ = .text:0x00405F40; // type:function size:0x10 scope:global
?GetTribe@Abode@@UAEPAVGTribeInfo@@XZ = .text:0x00405F50; // type:function size:0x20 scope:global
?GetPlayer@Abode@@UAEPAVGPlayer@@XZ = .text:0x00405F70; // type:function size:0x30 scope:global
?ArriveHome@Abode@@QAEXXZ = .text:0x00405FA0; // type:function size:0x10 scope:global
?LeaveHome@Abode@@QAEXXZ = .text:0x00405FB0; // type:function size:0x10 scope:global
?GetNearestWaterPos@@YA_NAAUMapCoords@@@Z = .text:0x00405FC0; // type:function size:0x30 scope:global
?IsCivic@Abode@@UAEIXZ = .text:0x00405FF0; // type:function size:0x54 scope:global
?IsCivic@PlannedAbode@@UAEIXZ = .text:0x004060C0; // type:function size:0x55 scope:global
?IsWonder@PlannedAbode@@UAEIXZ = .text:0x004061A0; // type:function size:0x20 scope:global
?IsWonder@Abode@@UAEIXZ = .text:0x004061C0; // type:function size:0x20 scope:global
?GetAbodeType@PlannedAbode@@UAE?AW4ABODE_TYPE@@XZ = .text:0x004061E0; // type:function size:0x10 scope:global
?GetAbodeType@Abode@@UAE?AW4ABODE_TYPE@@XZ = .text:0x004061F0; // type:function size:0xA scope:global
?IsFunctional@Abode@@UAEIXZ = .text:0x00406200; // type:function size:0x30 scope:global
?ChecksVerticesVObjects@Abode@@UAEIXZ = .text:0x00406230; // type:function size:0x10 scope:global
?ReactToPhysicsImpact@Abode@@UAEXPAVPhysicsObject@@_N@Z = .text:0x00406240; // type:function size:0x3E0 scope:global
?ApplyEffectsDueToPhysicalDestruction@Abode@@QAEXPAVObject@@PAVGPlayer@@@Z = .text:0x00406640; // type:function size:0x1C0 scope:global
?CanBecomeAPhysicsObject@Abode@@UAEIXZ = .text:0x00406800; // type:function size:0x10 scope:global
?GetScriptObjectType@Abode@@UAEIXZ = .text:0x00406810; // type:function size:0x10 scope:global
?InterfaceValidToTap@Abode@@UAEIPAVGInterfaceStatus@@@Z = .text:0x00406820; // type:function size:0x10 scope:global
?InterfaceTap@Abode@@UAEIPAVGInterfaceStatus@@@Z = .text:0x00406830; // type:function size:0x140 scope:global
?GetDesireToBeRepaired@Abode@@UAEMXZ = .text:0x00406970; // type:function size:0x50 scope:global
?FindVillager@Abode@@QAEPAVVillager@@P6AHPAVGameThingWithPos@@W4SCRIPT_OBJECT_TYPE@@I@Z1I@Z = .text:0x004069C0; // type:function size:0x50 scope:global
?Save@Abode@@UAEIAAVGameOSFile@@@Z = .text:0x00406A10; // type:function size:0x310 scope:global
?Load@Abode@@UAEIAAVGameOSFile@@@Z = .text:0x00406D20; // type:function size:0x300 scope:global
?FindNearestDrinkingWater@Abode@@QAEXM@Z = .text:0x00407020; // type:function size:0x30 scope:global
?GetPercentAbodeFullWithAdults@Abode@@UAEMXZ = .text:0x00407050; // type:function size:0x40 scope:global
?GetPercentAbodeFullWithChildren@Abode@@UAEMXZ = .text:0x00407090; // type:function size:0x40 scope:global
?GetNumAdultsInAbode@Abode@@QAEMXZ = .text:0x004070D0; // type:function size:0x20 scope:global
?DrawPercentFull@Abode@@QAEXI@Z = .text:0x004070F0; // type:function size:0x80 scope:global
?GetDiscipleStateIfInteractedWith@Abode@@UAEIPAVGInterfaceStatus@@PAVVillager@@@Z = .text:0x00407170; // type:function size:0x90 scope:global
?IsInteractable@Abode@@UAEIXZ = .text:0x00407200; // type:function size:0x30 scope:global
?FUN_00407230@Abode@@QAE?AUMapCoords@@II@Z = .text:0x00407230; // type:function size:0x50 scope:global
?CanBeHiddenIn@Abode@@UAEIXZ = .text:0x00407280; // type:function size:0x1A scope:global
?GetPercentRepairedForNonFunctional@Abode@@UAEMXZ = .text:0x00407290; // type:function scope:global
?GetInfluence@Abode@@UAEMXZ = .text:0x004072A0; // type:function size:0x40 scope:global
?GetPosOutside@Abode@@QAE?AUMapCoords@@MMM@Z = .text:0x004072E0; // type:function size:0xDA scope:global
?StopBeingFunctional@Abode@@UAEXPAVGPlayer@@@Z = .text:0x004073C0; // type:function size:0x30 scope:global
?FUN_004073f0@Abode@@QAEXPAVGPlayer@@@Z = .text:0x004073F0; // type:function size:0x30 scope:global
?DiscipleInHandNear@Abode@@UAEXAAVVillager@@AAVGInterfaceStatus@@@Z = .text:0x00407420; // type:function size:0x80 scope:global
?CalculateDesireToGainMale@Abode@@QAEMXZ = .text:0x004074A0; // type:function size:0xA0 scope:global
?CalculateDesireToGainVillager@Abode@@QAEMXZ = .text:0x00407540; // type:function size:0x70 scope:global
?TakeVillagerFrom@Abode@@QAEIAAV1@I@Z = .text:0x004075B0; // type:function size:0x70 scope:global
?SwapMaleForFemaleFrom@Abode@@QAEIAAV1@@Z = .text:0x00407620; // type:function size:0xA0 scope:global
?GetVillagerHealthTotal@Abode@@QAEMXZ = .text:0x004076C0; // type:function size:0x40 scope:global
?WriteIt@GameOSFile@@QAEXAAI@Z = .text:0x00407700; // type:function size:0x50 scope:global
?ReadIt@GameOSFile@@QAEXAAH@Z = .text:0x00407750; // type:function size:0x50 scope:global
?ReadIt@GameOSFile@@QAEXAAI@Z = .text:0x004077A0; // type:function size:0x50 scope:global
?AddToLast@?$LHListHead@VVillager@@@@QAEXPAVVillager@@@Z = .text:0x004077F0; // type:function size:0x50 scope:global
crt_xc_fn_00407840 = .text:0x00407840; // type:function size:0x30
crt_xc_fn_00407880 = .text:0x00407880; // type:function size:0x30
crt_xc_fn_004078B0 = .text:0x004078B0; // type:function size:0x1B
crt_xc_fn_004078D0 = .text:0x004078D0; // type:function size:0x1B
crt_xc_fn_004078F0 = .text:0x004078F0; // type:function size:0x1B
crt_xc_fn_00407910 = .text:0x00407910; // type:function size:0x1B
crt_xc_fn_00407930 = .text:0x00407930; // type:function size:0x1B
crt_xc_fn_00407950 = .text:0x00407950; // type:function size:0x1B
crt_xc_fn_00407970 = .text:0x00407970; // type:function size:0x30
crt_xc_fn_004079A0 = .text:0x004079A0; // type:function size:0x20
?NeedsBiggerText@@YAXXZ = .text:0x004079C0; // type:function size:0x40 scope:global
?GetMidTextSize@@YAXXZ = .text:0x00407A00; // type:function size:0x10 scope:global
?GetSmallTextSize@@YAXXZ = .text:0x00407A10; // type:function size:0x10 scope:global
?GetBigTextSize@@YAXXZ = .text:0x00407A20; // type:function size:0x10
?SetCurrentActiveBox@SetupBox@@QAEXPAV1@@Z = .text:0x00407A30; // type:function size:0x330
?SetDestinationWithSpeedAndTime@Zoomer@@QAEXMMM@Z = .text:0x00407D60; // type:function size:0x170 scope:global
?GetCurrentActiveBox@SetupBox@@SAPAV1@XZ = .text:0x00407ED0; // type:function size:0x10 scope:global
fn_00407EE0 = .text:0x00407EE0; // type:function size:0x10
fn_00407EF0 = .text:0x00407EF0; // type:function size:0x70
?DefaultCB@SetupBox@@QAEXHPAV1@PAVSetupControl@@HH@Z = .text:0x00407F60; // type:function size:0x19A
?FindControl@SetupBox@@QAEXHH@Z = .text:0x00408100; // type:function size:0x60
?FindControl@SetupBox@@QAEXH@Z = .text:0x00408160; // type:function size:0x40 scope:global
fn_004081A0 = .text:0x004081A0; // type:function size:0xA0
?SetOffHold@SetupBox@@QAEXXZ = .text:0x00408240; // type:function size:0xB0
fn_004082F0 = .text:0x004082F0; // type:function size:0x4A
fn_00408340 = .text:0x00408340; // type:function size:0xC40
fn_00408F80 = .text:0x00408F80; // type:function size:0xF0
fn_00409070 = .text:0x00409070; // type:function size:0xD0
?SetFocusControl@SetupBox@@QAEXPAVSetupControl@@@Z = .text:0x00409140; // type:function size:0x30 scope:global
SetupBox_vfunc0 = .text:0x00409170; // type:function size:0x10
?SetFocus@SetupControl@@UAEX_N@Z = .text:0x00409180; // type:function size:0x90 scope:global
?SetToolTip@SetupControl@@QAEXK@Z = .text:0x00409210; // type:function size:0x40 scope:global
??0SetupControl@@QAE@HHHHHPA_W@Z = .text:0x00409250; // type:function size:0xA0 scope:global
?SetToolTip@SetupControl@@QAEXPA_W@Z = .text:0x004092F0; // type:function size:0x10 scope:global
?Hide@SetupControl@@UAEX_N@Z = .text:0x00409300; // type:function size:0x10 scope:global
?HitTest@SetupControl@@UAE_NHH@Z = .text:0x00409310; // type:function size:0x30 scope:global
?Drag@SetupControl@@UAEXHH@Z = .text:0x00409340; // type:function size:0x10 scope:global
?MouseDown@SetupControl@@UAEXHH_N@Z = .text:0x00409350; // type:function size:0x10 scope:global
?MouseUp@SetupControl@@UAEXHH_N@Z = .text:0x00409360; // type:function size:0x10 scope:global
?Click@SetupControl@@UAEXHH@Z = .text:0x00409370; // type:function size:0x10 scope:global
?KeyDown@SetupControl@@UAEXW4LHKey@@W4LHKeyMod@@@Z = .text:0x00409380; // type:function size:0x10 scope:global
?Char@SetupControl@@UAEXH@Z = .text:0x00409390; // type:function size:0x10 scope:global
??_GSetupControl@@UAEPAXI@Z = .text:0x004093A0; // type:function size:0x20 scope:global
??1SetupControl@@UAE@XZ = .text:0x004093C0; // type:function size:0x70 scope:global
?Draw@SetupStaticText@@QAEX_N0@Z = .text:0x00409430; // type:function size:0x354 scope:global
?Draw@SetupButton@@QAEX_N0@Z = .text:0x004097A0; // type:function size:0x110 scope:global
@__ct__10SetupButtonFiiiiiPwi@36 = .text:0x004098B0; // type:function size:0x50 scope:global
_MouseDown__10SetupButtonFiib = .text:0x00409900; // type:function size:0x10 scope:global
_MouseUp__10SetupButtonFiib = .text:0x00409910; // type:function size:0x10 scope:global
?KeyDown@SetupButton@@QAEXHH@Z = .text:0x00409920; // type:function size:0x1B scope:global
??_GSetupButton@@UAEPAXI@Z = .text:0x00409940; // type:function size:0x20 scope:global
?KeyDown@SetupSlider@@QAEXHH@Z = .text:0x00409960; // type:function size:0xBA scope:global
?Draw@SetupSlider@@QAEX_N0@Z = .text:0x00409A40; // type:function size:0x1AA scope:global
??0SetupSlider@@QAE@HHHHHMPA_W@Z = .text:0x00409BF0; // type:function size:0x60 scope:global
??_GSetupSlider@@UAEPAXI@Z = .text:0x00409C50; // type:function size:0x20 scope:global
?Drag@SetupSlider@@QAEXHH@Z = .text:0x00409C70; // type:function size:0xF0 scope:global
?MouseDown@SetupSlider@@QAEXHH_N@Z = .text:0x00409D60; // type:function size:0x2B scope:global
?MouseUp@SetupSlider@@QAEXHH_N@Z = .text:0x00409D90; // type:function size:0x40 scope:global
?AutoScroll@SetupList@@QAEX_N@Z = .text:0x00409DD0; // type:function size:0xE0 scope:global
?KeyDown@SetupList@@QAEXHH@Z = .text:0x00409EB0; // type:function size:0x23C scope:global
?Drag@SetupList@@QAEXHH@Z = .text:0x0040A110; // type:function size:0x200 scope:global
?Click@SetupList@@QAEXHH@Z = .text:0x0040A360; // type:function size:0x10 scope:global
?MouseDown@SetupList@@QAEXHH_N@Z = .text:0x0040A370; // type:function size:0x7B scope:global
?MouseUp@SetupList@@QAEXHH_N@Z = .text:0x0040A3F0; // type:function size:0x60 scope:global
??0SetupList@@QAE@HHHHH@Z = .text:0x0040A450; // type:function size:0xD0 scope:global
?IsSelected@SetupList@@QAEXH@Z = .text:0x0040A520; // type:function size:0x20 scope:global
??_GSetupList@@UAEPAXI@Z = .text:0x0040A540; // type:function size:0x80 scope:global
?Draw@SetupList@@QAEX_N0@Z = .text:0x0040A5C0; // type:function size:0x530 scope:global
?UpdateHeights@SetupList@@QAEXXZ = .text:0x0040AAF0; // type:function size:0x270 scope:global
?DeleteString@SetupList@@QAEXH@Z = .text:0x0040AD60; // type:function size:0x110 scope:global
?InsertString@SetupList@@QAEXHPA_W@Z = .text:0x0040AE70; // type:function size:0x170 scope:global
fn_0040AFE0 = .text:0x0040AFE0; // type:function size:0x20
fn_0040B000 = .text:0x0040B000; // type:function size:0x50
?SetNum@SetupList@@QAEXH@Z = .text:0x0040B050; // type:function size:0x3D0 scope:global
??0SetupMultiList@@QAE@HHHHHH@Z = .text:0x0040B420; // type:function size:0x80 scope:global
??_GSetupMultiList@@UAEPAXI@Z = .text:0x0040B4A0; // type:function size:0x20 scope:global
fn_0040B4C0 = .text:0x0040B4C0; // type:function size:0x70
?IsSelected@SetupMultiList@@QAEXH@Z = .text:0x0040B530; // type:function size:0x30 scope:global
?Click@SetupMultiList@@QAEXHH@Z = .text:0x0040B560; // type:function size:0x90 scope:global
?Char@SetupEdit@@QAEXH@Z = .text:0x0040B5F0; // type:function size:0x500 scope:global
?KeyDown@SetupEdit@@QAEXHH@Z = .text:0x0040BAF0; // type:function size:0x4B4 scope:global
?CalcCharpos@SetupEdit@@QAEXH@Z = .text:0x0040C090; // type:function size:0xC0 scope:global
?Drag@SetupEdit@@QAEXHH@Z = .text:0x0040C150; // type:function size:0x20 scope:global
?MouseDown@SetupEdit@@QAEXHH_N@Z = .text:0x0040C170; // type:function size:0x2B scope:global
?MouseUp@SetupEdit@@QAEXHH_N@Z = .text:0x0040C1A0; // type:function size:0x80 scope:global
??0SetupEdit@@QAE@HHHHHPA_WH@Z = .text:0x0040C220; // type:function size:0x2E0 scope:global
?SetFocus@SetupEdit@@QAEX_N@Z = .text:0x0040C500; // type:function size:0x60 scope:global
??_GSetupEdit@@UAEPAXI@Z = .text:0x0040C560; // type:function size:0x20 scope:global
?Draw@SetupEdit@@QAEX_N0@Z = .text:0x0040C580; // type:function size:0x820 scope:global
?Draw@SetupMP3Button@@QAEX_N0@Z = .text:0x0040CDA0; // type:function size:0x110 scope:global
?Draw@SetupBigButton@@QAEX_N0@Z = .text:0x0040CEB0; // type:function size:0x3B0 scope:global
??0SetupBigButton@@QAE@HHHPA_WHHH@Z = .text:0x0040D260; // type:function size:0x90 scope:global
?KeyDown@SetupBigButton@@QAEXHH@Z = .text:0x0040D2F0; // type:function size:0x1B scope:global
?HitTest@SetupBigButton@@QAEXHH@Z = .text:0x0040D310; // type:function size:0x4B scope:global
??_GSetupBigButton@@UAEPAXI@Z = .text:0x0040D360; // type:function size:0x20 scope:global
fn_0040D380 = .text:0x0040D380; // type:function size:0xB
?Draw@SetupHSBarGraph@@QAEX_N0@Z = .text:0x0040D3C0; // type:function size:0x5E0 scope:global
?SetScale@SetupHSBarGraph@@QAEXM@Z = .text:0x0040D9A0; // type:function size:0x90 scope:global
?SetNum@HLineData@@QAEXH@Z = .text:0x0040DA30; // type:function size:0x80 scope:global
?Draw@SetupHLineGraph@@QAEX_N0@Z = .text:0x0040DAB0; // type:function size:0xA60 scope:global
??0SetupHLineGraph@@QAE@HHHHHPA_W_N@Z = .text:0x0040E510; // type:function size:0x70 scope:global
?KeyDown@SetupHLineGraph@@QAEXHH@Z = .text:0x0040E580; // type:function size:0x1B scope:global
?MouseUp@SetupHLineGraph@@QAEXHH_N@Z = .text:0x0040E5A0; // type:function size:0x20 scope:global
??_GSetupHLineGraph@@UAEPAXI@Z = .text:0x0040E5C0; // type:function size:0x20 scope:global
?Reset@SetupHLineGraph@@UAEXXZ = .text:0x0040E5E0; // type:function size:0x70 scope:global
?SetScale@SetupHLineGraph@@QAEXMM_N@Z = .text:0x0040E650; // type:function size:0xE0 scope:global
?AddLine@SetupHLineGraph@@QAEXAAVHLineData@@@Z = .text:0x0040E730; // type:function size:0xC0 scope:global
?SetLine@SetupHLineGraph@@QAEXHAAVHLineData@@@Z = .text:0x0040E7F0; // type:function size:0x60 scope:global
?GetLine@SetupHLineGraph@@QAEXHAAVHLineData@@@Z = .text:0x0040E850; // type:function size:0x60 scope:global
?Draw@SetupVBarGraph@@QAEX_N0@Z = .text:0x0040E8B0; // type:function size:0x650 scope:global
??0SetupVBarGraph@@QAE@HHHHHPA_W@Z = .text:0x0040EF00; // type:function size:0x70 scope:global
?KeyDown@SetupVBarGraph@@QAEXHH@Z = .text:0x0040EF70; // type:function size:0x1B scope:global
??_GSetupVBarGraph@@UAEPAXI@Z = .text:0x0040EF90; // type:function size:0x20 scope:global
?Reset@SetupVBarGraph@@UAEXXZ = .text:0x0040EFB0; // type:function size:0x200 scope:global
?SetScale@SetupVBarGraph@@QAEXM@Z = .text:0x0040F1B0; // type:function size:0xD0 scope:global
?AddBar@SetupVBarGraph@@QAEXABVVBarData@@@Z = .text:0x0040F280; // type:function size:0x80 scope:global
?SetBar@SetupVBarGraph@@QAEXHABVVBarData@@@Z = .text:0x0040F300; // type:function size:0x50 scope:global
?GetBar@SetupVBarGraph@@QAEXHAAVVBarData@@@Z = .text:0x0040F350; // type:function size:0x50 scope:global
?Draw@SetupTabButton@@QAEX_N0@Z = .text:0x0040F3A0; // type:function size:0x240 scope:global
??0SetupTabButton@@QAE@HHHHHPA_WHHH@Z = .text:0x0040F5E0; // type:function size:0x90 scope:global
?KeyDown@SetupTabButton@@QAEXHH@Z = .text:0x0040F670; // type:function size:0x1B scope:global
??_GSetupTabButton@@UAEPAXI@Z = .text:0x0040F690; // type:function size:0x20 scope:global
?MouseDown@SetupPicture@@QAEXHH_N@Z = .text:0x0040F6B0; // type:function size:0x190 scope:global
?MouseUp@SetupPicture@@QAEXHH_N@Z = .text:0x0040F840; // type:function size:0x1D0 scope:global
?Drag@SetupPicture@@QAEXHH@Z = .text:0x0040FA10; // type:function size:0x10 scope:global
?Draw@SetupPicture@@QAEX_N0@Z = .text:0x0040FA20; // type:function size:0xBB0 scope:global
??0SetupPicture@@QAE@HHHPAVLH3DMaterial@@HH_NH1@Z = .text:0x004105D0; // type:function size:0x120 scope:global
?KeyDown@SetupPicture@@QAEXHH@Z = .text:0x004106F0; // type:function size:0x1B scope:global
?Click@SetupPicture@@QAEXHH@Z = .text:0x00410710; // type:function size:0x10 scope:global
??_GSetupPicture@@UAEPAXI@Z = .text:0x00410720; // type:function size:0x20 scope:global
?SetFocus@SetupPicture@@QAEX_N@Z = .text:0x00410740; // type:function size:0xAB scope:global
?MouseDown@SetupColourPicker@@QAEXHH_N@Z = .text:0x004107F0; // type:function size:0x10 scope:global
?MouseUp@SetupColourPicker@@QAEXHH_N@Z = .text:0x00410800; // type:function size:0x10 scope:global
?Drag@SetupColourPicker@@QAEXHH@Z = .text:0x00410810; // type:function size:0x70 scope:global
?Draw@SetupColourPicker@@QAEX_N0@Z = .text:0x00410880; // type:function size:0x240 scope:global
??0SetupColourPicker@@QAE@HHHHHHPAVLH3DMaterial@@@Z = .text:0x00410AC0; // type:function size:0x70 scope:global
?KeyDown@SetupColourPicker@@QAEXHH@Z = .text:0x00410B30; // type:function size:0x1B scope:global
?Click@SetupColourPicker@@QAEXHH@Z = .text:0x00410B50; // type:function size:0x10 scope:global
??_GSetupColourPicker@@UAEPAXI@Z = .text:0x00410B60; // type:function size:0x20 scope:global
?Draw@SetupCheckBox@@QAEX_N0@Z = .text:0x00410B80; // type:function size:0x390 scope:global
??0SetupCheckBox@@QAE@HHH_NHPA_WH@Z = .text:0x00410F10; // type:function size:0x80 scope:global
?HitTest@SetupCheckBox@@QAEXHH@Z = .text:0x00410F90; // type:function size:0x90 scope:global
?Click@SetupCheckBox@@QAEXHH@Z = .text:0x00411020; // type:function size:0x30 scope:global
?KeyDown@SetupCheckBox@@QAEXHH@Z = .text:0x00411050; // type:function size:0x1B scope:global
??_GSetupCheckBox@@UAEPAXI@Z = .text:0x00411070; // type:function size:0x20 scope:global
?SetFocusNext@SetupBox@@QAEXXZ = .text:0x00411090; // type:function size:0x70 scope:global
?SetFocusPrev@SetupBox@@QAEXXZ = .text:0x00411100; // type:function size:0x50 scope:global
fn_00411150 = .text:0x00411150; // type:function size:0x40
?MessageBoxA@SetupBox@@QAEXPA_WVMSGBOXSTYLE@@I@Z = .text:0x00411190; // type:function size:0x4C4 scope:global
??_GSetupStaticText@@UAEPAXI@Z = .text:0x00411670; // type:function size:0x20 scope:global
?GetTextHeight@SetupThing@@SAMHHHHH_NPA_WH@Z = .text:0x00411690; // type:function size:0x90 scope:global
?GetTextWidth@SetupThing@@SAMPA_WMHM@Z = .text:0x00411720; // type:function size:0x30 scope:global
?DrawTextWrap@SetupThing@@SAMHHHHH_NPA_WHPAULH3DColor@@00@Z = .text:0x00411750; // type:function size:0x260 scope:global
?DrawText@SetupThing@@SAMHHHW4TEXTJUSTIFY@@PA_WHPAULH3DColor@@H@Z = .text:0x004119B0; // type:function size:0x190 scope:global
?adjust@SetupThing@@SAMAAH0@Z = .text:0x00411B40; // type:function size:0xF0 scope:global
?unadjust@SetupThing@@SAMAAH0@Z = .text:0x00411C30; // type:function size:0x100 scope:global
?unadjustx@SetupThing@@QAEXH@Z = .text:0x00411DD0; // type:function size:0xA0
?adjusty@SetupThing@@SAHH@Z = .text:0x00411E70; // type:function size:0xA0 scope:global
?unadjusty@SetupThing@@QAEXH@Z = .text:0x00411F10; // type:function size:0xB0
?unadjustsize@SetupThing@@QAEXH@Z = .text:0x00411FC0; // type:function size:0x70
?unadjustsize@SetupThing@@SAMM@Z = .text:0x00412030; // type:function size:0x70 scope:global
?Init@SetupThing@@QAEXXZ = .text:0x004120A0; // type:function size:0x4A
fn_004120F0 = .text:0x004120F0; // type:function size:0x60
?DrawBigButton@SetupThing@@SAXHH_N0HW4BBSTYLE@@0HH@Z = .text:0x00412150; // type:function size:0x410 scope:global
?DrawLine@SetupThing@@SAXHHHHKHMM@Z = .text:0x004125A0; // type:function size:0x3A0 scope:global
?SetRenderState@LH3DRender@@QAEXVD3DRENDERSTATETYPE@@I@Z = .text:0x00412940; // type:function size:0x40 scope:global
?DrawBox@SetupThing@@SAXHHHHMMMMPAULH3DMaterial@@PAULH3DColor@@HHH_NM@Z = .text:0x00412980; // type:function size:0x530 scope:global
?DrawQuad@SetupThing@@SAXHHHHHHHHKKKKKK@Z = .text:0x00412EB0; // type:function size:0x410 scope:global
?DrawBox@SetupThing@@SAXHHHHKKKKKK@Z = .text:0x004132C0; // type:function size:0xA0 scope:global
?DrawTab@SetupThing@@SAXHHHHHHHPA_WHH@Z = .text:0x00413360; // type:function size:0x600 scope:global
fn_00413960 = .text:0x00413960; // type:function size:0x2C0
?DrawBevBox@SetupThing@@SAXHHHHHHHK@Z = .text:0x00413C20; // type:function size:0x3D0 scope:global
crt_xc_fn_00413FF0 = .text:0x00413FF0; // type:function size:0x30
crt_xc_fn_00414020 = .text:0x00414020; // type:function size:0x30
crt_xc_fn_00414050 = .text:0x00414050; // type:function size:0x1B
crt_xc_fn_00414070 = .text:0x00414070; // type:function size:0x10
fn_00414080 = .text:0x00414080; // type:function size:0x30
?GetDebugText@GBaseInfo@@UBEPBDXZ = .text:0x004140B0; // type:function size:0x10 scope:global
?GetBaseInfo@GAlignmentInfo@@UAEPAVGBaseInfo@@AAI@Z = .text:0x004140C0; // type:function size:0x20 scope:global
??_GGAlignmentInfo@@UAEPAXI@Z = .text:0x00414120; // type:function size:0x20 scope:global
?Process@GAlignment@@QAEXPAVGameThing@@@Z = .text:0x00414140; // type:function size:0x5A
?ProcessForPlayer@GAlignment@@QAEXPAVGPlayer@@@Z = .text:0x004141A0; // type:function size:0x50
fn_004141F0 = .text:0x004141F0; // type:function size:0x30
fn_00414220 = .text:0x00414220; // type:function size:0x100
?Update@GAlignment@@QAEXPAVGPlayer@@PAVObject@@VDEATH_REASON@@@Z = .text:0x004143B0; // type:function size:0x5A
fn_00414410 = .text:0x00414410; // type:function size:0x110
fn_00414520 = .text:0x00414520; // type:function size:0x80
?Update@GAlignment@@QAEXPAVGPlayer@@PAVTree@@_N@Z = .text:0x004145A0; // type:function size:0x60
fn_00414600 = .text:0x00414600; // type:function size:0x5A
fn_00414660 = .text:0x00414660; // type:function size:0x50
fn_004146B0 = .text:0x004146B0; // type:function size:0x3A
?CrudeSet@GAlignment@@QAEXM@Z = .text:0x004146F0; // type:function size:0x40
?GetDiscreteAlignmentValue@GAlignment@@QAEXM@Z = .text:0x00414730; // type:function size:0x40
crt_xc_fn_00414770 = .text:0x00414770; // type:function size:0x10
fn_00414780 = .text:0x00414780; // type:function size:0xA0
fn_00414B30 = .text:0x00414B30; // type:function size:0x60
fn_00414B90 = .text:0x00414B90; // type:function size:0x1A
?GetPDMRegion@EditorIconBase@@UAIPAULHRegion@@XZ = .text:0x00414BB0; // type:function size:0x10 scope:global
?GetTextRegion@EditorIconBase@@UAIPAULHRegion@@XZ = .text:0x00414BC0; // type:function scope:global
?GetTextHandle@EditorIconBase@@UAIIXZ = .text:0x00414BD0; // type:function scope:global
?GetTextHeight@EditorIconBase@@UAIMXZ = .text:0x00414BE0; // type:function size:0x10 scope:global
?GetHiliteColor@EditorIconBase@@UAIPAULH3DColor@@XZ = .text:0x00414BF0; // type:function size:0x10 scope:global
?IsScrollable@EditorIconBase@@UAI_NXZ = .text:0x00414C00; // type:function size:0x10 scope:global
?IsActive@EditorIconShow@@QAEXXZ = .text:0x00414C10; // type:function size:0x10
?GetRegion@EditorIconShow@@QAEXXZ = .text:0x00414C20; // type:function size:0x10
?GetTextColor@EditorIconShow@@QAEXXZ = .text:0x00414C30; // type:function size:0x10
?GetActiveColor@EditorIconShow@@QAEXXZ = .text:0x00414C40; // type:function size:0x10
?GetInactiveColor@EditorIconShow@@QAEXXZ = .text:0x00414C50; // type:function size:0x10
?Add@CAlignmentHistory@@QAEXPAVTown@@VTOWN_DESIRE_INFO@@M@Z = .text:0x00414D40; // type:function size:0xD0
fn_00414E10 = .text:0x00414E10; // type:function size:0x35
fn_00414E45 = .text:0x00414E45; // type:label size:0x25
fn_00414FA0 = .text:0x00414FA0; // type:function size:0xC0
fn_00415245 = .text:0x00415245; // type:function size:0x7
?Add@CAlignmentHistory@@QAEXPAVGPlayer@@PAVTree@@M@Z = .text:0x00415260; // type:function size:0xB0
fn_00415310 = .text:0x00415310; // type:function size:0x35
fn_00415345 = .text:0x00415345; // type:label size:0x7B
fn_004153C0 = .text:0x004153C0; // type:function size:0xBB
fn_00415480 = .text:0x00415480; // type:function size:0x80
fn_00415500 = .text:0x00415500; // type:function size:0x50
fn_00415550 = .text:0x00415550; // type:function size:0x60
fn_00415600 = .text:0x00415600; // type:function size:0x50
fn_004156F0 = .text:0x004156F0; // type:function size:0x50
fn_00415740 = .text:0x00415740; // type:function size:0x50
fn_00415840 = .text:0x00415840; // type:function size:0x70
fn_00415A40 = .text:0x00415A40; // type:function size:0x5F2
?$EditorIconSlider_M_vfunc2 = .text:0x00416060; // type:function size:0x60
?$EditorIconSlider_M_vfunc1 = .text:0x004160C0; // type:function size:0x350
?$EditorIconSlider_M_vfunc20 = .text:0x00416410; // type:function size:0x2F0
?$EditorIconNumber_MM_vfunc19 = .text:0x00416700; // type:function size:0x10
?$EditorIconNumber_MM_vfunc13 = .text:0x00416710; // type:function size:0x40
fn_00416750 = .text:0x00416750; // type:function size:0x290
?$EditorIconNumber_MM_vfunc20 = .text:0x00416A70; // type:function size:0x90
?$EditorIconNumber_MM_vfunc1 = .text:0x00416B00; // type:function size:0x7A
fn_00416B80 = .text:0x00416B80; // type:function size:0x3B
fn_00416BC0 = .text:0x00416BC0; // type:function size:0x60
fn_00416C20 = .text:0x00416C20; // type:function size:0x2B
crt_xc_fn_00416C50 = .text:0x00416C50; // type:function size:0x30
crt_xc_fn_00416C80 = .text:0x00416C80; // type:function size:0x30
crt_xc_fn_00416CB0 = .text:0x00416CB0; // type:function size:0x1B
crt_xc_fn_00416CD0 = .text:0x00416CD0; // type:function size:0x10
fn_00416CE0 = .text:0x00416CE0; // type:function size:0x40
?GetMesh@GAnimalInfo@@UBEIXZ = .text:0x00416D20; // type:function size:0x10 scope:global
?GetBaseInfo@GAnimalInfo@@UAEPAVGBaseInfo@@AAI@Z = .text:0x00416D30; // type:function size:0x20 scope:global
??_GGAnimalInfo@@UAEPAXI@Z = .text:0x00416DA0; // type:function size:0x30 scope:global
crt_xc_fn_00416DD0 = .text:0x00416DD0; // type:function size:0x10
fn_00416DE0 = .text:0x00416DE0; // type:function size:0x30
?GetBaseInfo@GAnimalStateTableInfo@@UAEPAVGBaseInfo@@AAI@Z = .text:0x00416E10; // type:function size:0x20 scope:global
??_GGAnimalStateTableInfo@@UAEPAXI@Z = .text:0x00416E80; // type:function size:0x30 scope:global
fn_00416EB0 = .text:0x00416EB0; // type:function size:0xA0
?ValidToApplyThisToMapCoord@Mobile@@UAEIPAVGInterfaceStatus@@ABUMapCoords@@@Z = .text:0x00416F50; // type:function size:0x10 scope:global
?ApplyOnlyAfterReleased@Mobile@@UAEIXZ = .text:0x00416F60; // type:function size:0x6 scope:global
fn_00416F66 = .text:0x00416F66; // type:function size:0xA
?GetDestPos@MobileWallHug@@UAEPAUMapCoords@@XZ = .text:0x00416F70; // type:function size:0x10 scope:global
?IsMobileWallHug@MobileWallHug@@UBEIXZ = .text:0x00416F80; // type:function size:0x10 scope:global
?IsPoisoned@Living@@UAEIXZ = .text:0x00416F90; // type:function size:0x10 scope:global
?SetPoisoned@Living@@UAEXH@Z = .text:0x00416FA0; // type:function size:0x30 scope:global
?SetFoodSpeedup@PuzzleHorse@@UAEX_N@Z = .text:0x00416FD0; // type:function size:0x10 scope:global
?IsFoodSpeedUp@PuzzleHorse@@UAEIXZ = .text:0x00416FE0; // type:function size:0x10 scope:global
?IsSkeleton@Living@@UBEIXZ = .text:0x00416FF0; // type:function size:0x10 scope:global
?SetSkeleton@Living@@UAEXH@Z = .text:0x00417000; // type:function size:0x30 scope:global
?ArrivesAtWoodReaction@PuzzleHorse@@UAEIXZ = .text:0x00417030; // type:function size:0x10 scope:global
?StorePreviousState@Living@@QAEXXZ = .text:0x00417040; // type:function size:0x1B scope:global
?EnterInHand@Living@@UAEIW4VILLAGER_STATES@@0@Z = .text:0x00417060; // type:function size:0x10 scope:global
?IsStateForInterface@Living@@UBE_NW4VILLAGER_STATES@@@Z = .text:0x00417070; // type:function size:0x10 scope:global
?IsInterestedInWoodObject@Living@@UAE_NPAVObject@@@Z = .text:0x00417080; // type:function size:0x10 scope:global
?IsAvailableForBeliefButNotReaction@Living@@UAE_NW4REACTION@@@Z = .text:0x00417090; // type:function size:0x10 scope:global
?UpdateHowImpressed@Living@@UAEXPAVReaction@@H@Z = .text:0x004170A0; // type:function size:0x10 scope:global
?SetupReactToWood@Living@@UAEXPAVGameThingWithPos@@PAVReaction@@@Z = .text:0x004170B0; // type:function size:0x10 scope:global
?SetupReactToMagicShield@Living@@UAEXPAVGameThingWithPos@@PAVReaction@@@Z = .text:0x004170C0; // type:function size:0x10 scope:global
?SetupReactToHandPickUp@Living@@UAEXPAVGameThingWithPos@@PAVReaction@@@Z = .text:0x004170D0; // type:function size:0x10 scope:global
?SetupReactToHandUsingTotem@Living@@UAEXPAVGameThingWithPos@@PAVReaction@@@Z = .text:0x004170E0; // type:function size:0x10 scope:global
?SetupReactToObjectCrushed@Living@@UAEXPAVGameThingWithPos@@PAVReaction@@@Z = .text:0x004170F0; // type:function size:0x10 scope:global
?SetupReactToFight@Living@@UAEXPAVGameThingWithPos@@PAVReaction@@@Z = .text:0x00417100; // type:function size:0x10 scope:global
?SetupReactToTeleport@Living@@UAEXPAVGameThingWithPos@@PAVReaction@@@Z = .text:0x00417110; // type:function size:0x10 scope:global
?SetupReactToHandPuttingStuffInStoragePit@Living@@UAEXPAVGameThingWithPos@@PAVReaction@@@Z = .text:0x00417120; // type:function size:0x10 scope:global
?SetupReactToDeath@Living@@UAEXPAVGameThingWithPos@@PAVReaction@@@Z = .text:0x00417130; // type:function size:0x10 scope:global
?SetupReactToDroppedByHand@Living@@UAEXPAVGameThingWithPos@@PAVReaction@@@Z = .text:0x00417140; // type:function size:0x10 scope:global
?SetupReactToFainting@Living@@UAEXPAVGameThingWithPos@@PAVReaction@@@Z = .text:0x00417150; // type:function size:0x10 scope:global
?SetupReactToConfused@Living@@UAEXPAVGameThingWithPos@@PAVReaction@@@Z = .text:0x00417160; // type:function size:0x10 scope:global
?SetupReactToCrowd@Living@@UAEXPAVGameThingWithPos@@PAVReaction@@@Z = .text:0x00417170; // type:function size:0x10 scope:global
?SetupReactToBreeder@Living@@UAEXPAVGameThingWithPos@@PAVReaction@@@Z = .text:0x00417180; // type:function size:0x10 scope:global
?SetupReactToTownCelebration@Living@@UAEXPAVGameThingWithPos@@PAVReaction@@@Z = .text:0x00417190; // type:function size:0x10 scope:global
?SetupReactToVillagerInHand@Living@@UAEXPAVGameThingWithPos@@PAVReaction@@@Z = .text:0x004171A0; // type:function size:0x10 scope:global
?SetupReactToBurningObjectInHand@Living@@UAEXPAVGameThingWithPos@@PAVReaction@@@Z = .text:0x004171B0; // type:function size:0x10 scope:global
?SetupReactToMagicShieldStruck@Living@@UAEXPAVGameThingWithPos@@PAVReaction@@@Z = .text:0x004171C0; // type:function size:0x10 scope:global
?SetupReactToMagicShieldDestroyed@Living@@UAEXPAVGameThingWithPos@@PAVReaction@@@Z = .text:0x004171D0; // type:function size:0x10 scope:global
?ReactToCrowdPriority@Living@@UAEEPAVReaction@@0@Z = .text:0x004171E0; // type:function size:0x10 scope:global
?ReactToBreederPriority@Living@@UAEEPAVReaction@@0@Z = .text:0x004171F0; // type:function size:0x10 scope:global
?ReactToTownCelebrationPriority@Living@@UAEEPAVReaction@@0@Z = .text:0x00417200; // type:function size:0x10 scope:global
?ReactToVillagerInHandPriority@Living@@UAEEPAVReaction@@0@Z = .text:0x00417210; // type:function size:0x10 scope:global
?ReactToBurningObjectInHandPriority@Living@@UAEEPAVReaction@@0@Z = .text:0x00417220; // type:function size:0x10 scope:global
?ReactToMagicShieldStruckPriority@Living@@UAEEPAVReaction@@0@Z = .text:0x00417230; // type:function size:0x10 scope:global
?ReactToMagicShieldDestroyedPriority@Living@@UAEEPAVReaction@@0@Z = .text:0x00417240; // type:function size:0x10 scope:global
?ReactToScaffoldPriority@Living@@UAEEPAVReaction@@0@Z = .text:0x00417250; // type:function size:0x10 scope:global
?IsPosValidForMapCellExistance@Living@@UAEIABUMapCoords@@@Z = .text:0x00417260; // type:function size:0x10 scope:global
?IsDead@Living@@UAEIXZ = .text:0x00417270; // type:function size:0x2B scope:global
?CanBePickedUp@Living@@UAEIXZ = .text:0x004172A0; // type:function size:0x10 scope:global
?CanBeCrushed@Living@@UAEIXZ = .text:0x004172B0; // type:function size:0x10 scope:global
?IsStompable@Living@@UAEIXZ = .text:0x004172C0; // type:function size:0x10 scope:global
?IsFunctional@Living@@UAEIXZ = .text:0x004172D0; // type:function size:0x30 scope:global
?SetStateAfterFinishingDance@Living@@UAEXXZ = .text:0x00417300; // type:function size:0x10 scope:global
?CalculateLifeDesire@Living@@UAEMXZ = .text:0x00417310; // type:function size:0x10 scope:global
?DanceType@Living@@UAEIXZ = .text:0x00417320; // type:function size:0x10 scope:global
?IsSuitableForCreatureAction@Living@@UAEIXZ = .text:0x00417330; // type:function size:0x10 scope:global
?CanBeThrownByCreature@Living@@UAEIPAVCreature@@@Z = .text:0x00417340; // type:function size:0x10 scope:global
?CanBeAttackedByCreature@Living@@UAEIPAVCreature@@@Z = .text:0x00417350; // type:function size:0x40 scope:global
?CanBePlayedWithByCreature@Living@@UAEIPAVCreature@@@Z = .text:0x00417390; // type:function size:0x2B scope:global
?IsAnimate@Living@@UAEIXZ = .text:0x004173C0; // type:function size:0x10 scope:global
?CanBeFrighteningToCreature@Living@@UAEIPAVCreature@@@Z = .text:0x004173D0; // type:function size:0x10 scope:global
?CanBeInspectedByCreature@Living@@UAEIPAVCreature@@@Z = .text:0x004173E0; // type:function size:0x30 scope:global
?CanBePoodUponByCreature@Living@@UAEIPAVCreature@@@Z = .text:0x00417410; // type:function size:0x10 scope:global
?CanBeDestroyedByStoning@Living@@UAEIPAVCreature@@@Z = .text:0x00417420; // type:function size:0x10 scope:global
?CanBeStompedOnByCreature@Living@@UAEIPAVCreature@@@Z = .text:0x00417430; // type:function size:0x10 scope:global
?CanBeDancedWith@Living@@UAEIPAVCreature@@@Z = .text:0x00417440; // type:function size:0x10 scope:global
?IsAggressive@Living@@UAEIPAVCreature@@@Z = .text:0x00417450; // type:function size:0x10 scope:global
?IsLiving@Living@@UBEIXZ = .text:0x00417460; // type:function size:0x10 scope:global
?IsNotLiving@Living@@UAEIXZ = .text:0x00417470; // type:function size:0x10 scope:global
?SetSpecularColor@Living@@UAEXULH3DColor@@@Z = .text:0x00417480; // type:function size:0x10 scope:global
?GetSpecularColor@Living@@UAE?AULH3DColor@@XZ = .text:0x00417490; // type:function size:0x10 scope:global
?MoveAllowedForChessGame@Villager@@UAEIXZ = .text:0x004174A0; // type:function size:0x10 scope:global
?AttackAllowedForChessGame@Villager@@UAEIXZ = .text:0x004174B0; // type:function size:0x10 scope:global
?AddToBoxPositionForChessGame@Villager@@UAEXHH@Z = .text:0x004174C0; // type:function size:0x10 scope:global
?GetBoxXForChessGame@Villager@@UAEHXZ = .text:0x004174D0; // type:function size:0x10 scope:global
?GetBoxZForChessGame@Villager@@UAEHXZ = .text:0x004174E0; // type:function size:0x10 scope:global
?SetBoxXForChessGame@Villager@@UAEXH@Z = .text:0x004174F0; // type:function size:0x10 scope:global
?SetBoxZForChessGame@Villager@@UAEXH@Z = .text:0x00417500; // type:function size:0x10 scope:global
?GetTeamForChessGame@Villager@@UAEIXZ = .text:0x00417510; // type:function size:0x10 scope:global
?IsOkToBeShepherd@Animal@@QAEXXZ = .text:0x00417520; // type:function size:0x10
?GetResourceType@Animal@@UAE?AW4RESOURCE_TYPE@@XZ = .text:0x00417530; // type:function size:0x10 scope:global
?GetMesh@Animal@@UBEHXZ = .text:0x00417540; // type:function size:0xA scope:global
?GetDetailMesh@Animal@@UAEHH@Z = .text:0x00417550; // type:function size:0x20 scope:global
?IsScriptState@Animal@@UBE_NW4VILLAGER_STATES@@@Z = .text:0x00417570; // type:function size:0x20 scope:global
?IsScriptInterruptableState@Animal@@UBE_NW4VILLAGER_STATES@@@Z = .text:0x00417590; // type:function size:0x20 scope:global
?IAmABird@Animal@@QAEXXZ = .text:0x004175B0; // type:function size:0x10
?FollowObjectPriority@Animal@@UAEEPAVReaction@@0@Z = .text:0x004175C0; // type:function size:0x10 scope:global
?LookAtSpellPriority@Animal@@UAEEPAVReaction@@0@Z = .text:0x004175D0; // type:function size:0x10 scope:global
?LookAtNiceSpellPriority@Animal@@UAEEPAVReaction@@0@Z = .text:0x004175E0; // type:function size:0x10 scope:global
?FollowSpellPriority@Animal@@UAEEPAVReaction@@0@Z = .text:0x004175F0; // type:function size:0x10 scope:global
?ReactToWoodPriority@Animal@@UAEEPAVReaction@@0@Z = .text:0x00417600; // type:function size:0x10 scope:global
?ReactToMagicTreePriority@Animal@@UAEEPAVReaction@@0@Z = .text:0x00417610; // type:function size:0x10 scope:global
?ReactToBallPriority@Animal@@UAEEPAVReaction@@0@Z = .text:0x00417620; // type:function size:0x10 scope:global
?ReactToMagicShieldPriority@Animal@@UAEEPAVReaction@@0@Z = .text:0x00417630; // type:function size:0x10 scope:global
?ReactToCreatureGiftPriority@Animal@@UAEEPAVReaction@@0@Z = .text:0x00417640; // type:function size:0x10 scope:global
?ReactToNewBuildingPriority@Animal@@UAEEPAVReaction@@0@Z = .text:0x00417650; // type:function size:0x10 scope:global
?ReactToHandPickUpPriority@Animal@@UAEEPAVReaction@@0@Z = .text:0x00417660; // type:function size:0x10 scope:global
?ReactToHandUsingTotemPriority@Animal@@UAEEPAVReaction@@0@Z = .text:0x00417670; // type:function size:0x10 scope:global
?ReactToObjectCrushedPriority@Animal@@UAEEPAVReaction@@0@Z = .text:0x00417680; // type:function size:0x10 scope:global
?ReactToFightPriority@Animal@@UAEEPAVReaction@@0@Z = .text:0x00417690; // type:function size:0x10 scope:global
?ReactToTeleportPriority@Animal@@UAEEPAVReaction@@0@Z = .text:0x004176A0; // type:function size:0x10 scope:global
?ReactToHandPuttingStuffInStoragePitPriority@Animal@@UAEEPAVReaction@@0@Z = .text:0x004176B0; // type:function size:0x10 scope:global
?ReactToDeathPriority@Animal@@UAEEPAVReaction@@0@Z = .text:0x004176C0; // type:function size:0x10 scope:global
?ReactToDroppedByHandPriority@Animal@@UAEEPAVReaction@@0@Z = .text:0x004176D0; // type:function size:0x10 scope:global
?ReactToFaintingPriority@Animal@@UAEEPAVReaction@@0@Z = .text:0x004176E0; // type:function size:0x10 scope:global
?ReactToConfusedPriority@Animal@@UAEEPAVReaction@@0@Z = .text:0x004176F0; // type:function size:0x10 scope:global
?ProcessBySpell@Animal@@UAEIPAVSpell@@@Z = .text:0x00417700; // type:function size:0xB scope:global
?MoveAnimation@Animal@@QAEXXZ = .text:0x00417710; // type:function size:0x10
?DyingAnimation@Animal@@QAEXXZ = .text:0x00417720; // type:function size:0x10
?DeadAnimation@Animal@@QAEXXZ = .text:0x00417730; // type:function size:0x10
?EatAnimation@Animal@@QAEXXZ = .text:0x00417740; // type:function size:0x10
?StartToEatAnimation@Animal@@QAEXXZ = .text:0x00417750; // type:function size:0x10
?FinishEatingAnimation@Animal@@QAEXXZ = .text:0x00417760; // type:function size:0x10
?SleepAnimation@Animal@@QAEXXZ = .text:0x00417770; // type:function size:0x10
?StandAnimation@Animal@@UAEIXZ = .text:0x00417780; // type:function size:0x10 scope:global
?LayDownAnimation@Animal@@QAEXXZ = .text:0x00417790; // type:function size:0x10
?PounceAnimation@Animal@@QAEXXZ = .text:0x004177A0; // type:function size:0x10
?HideAnimation@Animal@@QAEXXZ = .text:0x004177B0; // type:function size:0x10
?StalkAnimation@Animal@@QAEXXZ = .text:0x004177C0; // type:function size:0x10
?StandardAnimation@Animal@@QAEXXZ = .text:0x004177D0; // type:function size:0x10
?InHandAnimation@Animal@@QAEXXZ = .text:0x004177E0; // type:function size:0x10
?LandedAnimation@Animal@@QAEXXZ = .text:0x004177F0; // type:function size:0x10
?ThrownAnimation@Animal@@QAEXXZ = .text:0x00417800; // type:function size:0x10
?DecideAnimation@Animal@@QAEXXZ = .text:0x00417810; // type:function size:0x10
?CallIntoAnimationFunction@PuzzleHorse@@UAEHW4VILLAGER_STATES@@@Z = .text:0x00417820; // type:function scope:global
?CallOutofAnimationFunction@PuzzleHorse@@UAEHW4VILLAGER_STATES@@@Z = .text:0x00417830; // type:function size:0x10 scope:global
?GetCreatureBeliefType@Animal@@UAEIXZ = .text:0x00417840; // type:function size:0x10 scope:global
?CheckSuitableEnvironment@Animal@@QAEXABVMapCoords@@@Z = .text:0x00417850; // type:function size:0x10
?GetTastiness@Animal@@UAEIXZ = .text:0x00417860; // type:function size:0xF scope:global
fn_0041786F = .text:0x0041786F; // type:function size:0x1
?CanBeGivenToTown@Animal@@UAEIPAVCreature@@@Z = .text:0x00417870; // type:function scope:global
?IsAnimal@Animal@@UAEIXZ = .text:0x00417880; // type:function size:0x10 scope:global
?GetDeathReason@Animal@@UAE?AW4DEATH_REASON@@XZ = .text:0x00417890; // type:function size:0x10 scope:global
??_GAnimal@@UAEPAXI@Z = .text:0x004178A0; // type:function size:0x30 scope:global
?IsWonder@GameThingWithPos@@UAEIXZ = .text:0x004178D0; // type:function size:0x10 scope:global
?CreateBuildingSite@GameThingWithPos@@UBE_NXZ = .text:0x004178E0; // type:function size:0x10 scope:global
?GetDebugText@GameThingWithPos@@QAEPADXZ = .text:0x004178F0; // type:function size:0x10 scope:global
fn_00417900 = .text:0x00417900; // type:function size:0xC0
?SetAge@PuzzleHorse@@UAEXI@Z = .text:0x004179C0; // type:function size:0x30 scope:global
fn_004179F0 = .text:0x004179F0; // type:function size:0x50
?SetScaleForAge@Animal@@QAEXI@Z = .text:0x00417A40; // type:function size:0xE0
?InitialiseScale@Animal@@QAEXI@Z = .text:0x00417B20; // type:function size:0x40
?ToBeDeleted@Animal@@UAEXH@Z = .text:0x00417B60; // type:function size:0x20 scope:global
fn_00417B80 = .text:0x00417B80; // type:function size:0x20
?DeleteDependancys@Animal@@QAEXXZ = .text:0x00417BA0; // type:function size:0x80
fn_00417C50 = .text:0x00417C50; // type:function size:0x40
?StartWander@Animal@@QAEXXZ = .text:0x00417C90; // type:function size:0xB0
?MoveToPosAndLookAround@Animal@@QAEXXZ = .text:0x00417D40; // type:function size:0x10
?Landed@Animal@@QAEXXZ = .text:0x00417D50; // type:function size:0x30
?InteractDecideWhatToDo@Animal@@QAEXXZ = .text:0x00417D80; // type:function size:0x40
?ProcessNeeds@Animal@@QAEXXZ = .text:0x00417DC0; // type:function size:0xD0
fn_00417E90 = .text:0x00417E90; // type:function size:0x50
?ProcessState@Animal@@UAEIXZ = .text:0x00417EE0; // type:function size:0xC0 scope:global
?GetAnimId@Animal@@UAE?AW4ANIM_LIST@@XZ = .text:0x00417FA0; // type:function size:0x40 scope:global
?SetSpeed@Animal@@UAEXH@Z = .text:0x00417FE0; // type:function size:0x30 scope:global
?Wander@Animal@@QAEXXZ = .text:0x00418010; // type:function size:0x90
?SeekFood@Animal@@QAEXXZ = .text:0x004180A0; // type:function size:0x2B
?SeekSleep@Animal@@QAEXXZ = .text:0x004180D0; // type:function size:0xD0
?SeekEnvironment@Animal@@QAEXXZ = .text:0x004181B0; // type:function size:0x60
fn_00418220 = .text:0x00418220; // type:function size:0x10
?GivesBirth@Animal@@QAEXXZ = .text:0x00418230; // type:function size:0x50
?StartToEat@Animal@@QAEXXZ = .text:0x00418280; // type:function size:0x50
?Eat@Animal@@QAEXXZ = .text:0x004182D0; // type:function size:0x50
?FinishEating@Animal@@QAEXXZ = .text:0x00418320; // type:function size:0x10
?Sleeps@Animal@@QAEXXZ = .text:0x00418330; // type:function size:0x40
?StandardAction@Animal@@QAEXXZ = .text:0x00418370; // type:function size:0x50
?ReactToAnimalNeeds@Animal@@QAEXXZ = .text:0x004183C0; // type:function size:0x90
?CheckNeeds@Animal@@QAEXXZ = .text:0x00418450; // type:function size:0x7A
?ReactToAnimalFoodNeeds@Animal@@QAEXXZ = .text:0x004184D0; // type:function size:0x90
?SetTowardsAngle@Animal@@UAEXG@Z = .text:0x00418560; // type:function size:0x4F0 scope:global
fn_00418A50 = .text:0x00418A50; // type:function size:0x50
?MoveTo3D@Animal@@UAEXXZ = .text:0x00418AA0; // type:function size:0x1F0 scope:global
?GetMapChild@Object@@UAEPAV1@PBUMapCell@@@Z = .text:0x00418C90; // type:function size:0x30 scope:global
?SetMapChild@Object@@UAEXPAV1@PAUMapCell@@@Z = .text:0x00418CC0; // type:function size:0xA scope:global
fn_00418CD0 = .text:0x00418CD0; // type:function size:0x50
?SetupMoveToTarget@Animal@@QAEXPAVObject@@@Z = .text:0x00418D20; // type:function size:0x80
?IsHuntingTargetValid@Animal@@QAEXPAVObject@@@Z = .text:0x00418DA0; // type:function size:0x10
?HuntingMoveToPos@Animal@@QAEXXZ = .text:0x00418DB0; // type:function size:0x210
?Process@Object@@UAEIXZ = .text:0x00418FC0; // type:function size:0x10 scope:global
?HuntingMoveToPosAbaondon@Animal@@QAEXXZ = .text:0x00418FD0; // type:function size:0x3B
?TargetPounce@Animal@@QAEXXZ = .text:0x00419010; // type:function size:0x110
?FinishPouncing@Animal@@QAEXPAVLiving@@@Z = .text:0x00419120; // type:function size:0x1A0
?AsMultiMapFixed@Object@@UAEPAVMultiMapFixed@@XZ = .text:0x004192C0; // type:function size:0x10 scope:global
?IsResourceStore@Object@@UAE_NW4RESOURCE_TYPE@@@Z = .text:0x004192D0; // type:function size:0x10 scope:global
_pef_101720e0 = .text:0x004192E0; // type:function size:0x10
?ProcessFadeOut@Animal@@QAEXXZ = .text:0x004192F0; // type:function size:0x10
?StartOnFire@Object@@UAEXXZ = .text:0x00419300; // type:function size:0x10 scope:global
?GetHoldType@Animal@@UAE?AW4HOLD_TYPE@@XZ = .text:0x00419310; // type:function size:0x10 scope:global
?GetHoldLoweringMultiplier@Animal@@UAEMXZ = .text:0x00419320; // type:function size:0x10 scope:global
?ValidForLockedSelectProcess@Object@@UAE_NPAVGInterfaceStatus@@@Z = .text:0x00419330; // type:function size:0x10 scope:global
fn_00419340 = .text:0x00419340; // type:function size:0x8B
?NetworkFriendlyStartLockedSelect@Object@@UAE_NPAVGInterfaceStatus@@@Z = .text:0x004193D0; // type:function size:0x10 scope:global
?CheckForNeedsInSpiral@Animal@@QAEXABVMapCoords@@G@Z = .text:0x004193E0; // type:function size:0xB0
fn_00419490 = .text:0x00419490; // type:function size:0xF0
fn_00419580 = .text:0x00419580; // type:function size:0x130
?InterfaceValidToTap@Object@@UAEIPAVGInterfaceStatus@@@Z = .text:0x004196B0; // type:function size:0x10 scope:global
?InterfaceTap@Object@@UAEIPAVGInterfaceStatus@@@Z = .text:0x004196C0; // type:function size:0x10 scope:global
fn_004196D0 = .text:0x004196D0; // type:function size:0x1C0
?ChecksVerticesVObjects@Object@@UAEIXZ = .text:0x00419890; // type:function size:0x10 scope:global
?IsSolidToNewAbode@Object@@UAEIXZ = .text:0x004198A0; // type:function size:0x10 scope:global
fn_004198B0 = .text:0x004198B0; // type:function size:0x9A
?GetTown@Object@@UAEPAVTown@@XZ = .text:0x00419950; // type:function size:0x10 scope:global
?GetTownArtifact@Object@@UAEPAVGameThing@@XZ = .text:0x00419960; // type:function size:0x10 scope:global
?IsTownArtifact@Object@@UAEIXZ = .text:0x00419970; // type:function size:0x10 scope:global
fn_00419980 = .text:0x00419980; // type:function size:0xD0
?ShouldFootpathsGoRound@Object@@UAEIXZ = .text:0x00419A50; // type:function size:0x10 scope:global
?GetCollideData@Object@@UAEPAVNewCollide@@XZ = .text:0x00419B30; // type:function size:0x10 scope:global
?ValidForPlaceInHand@Animal@@UAEIPAVGInterfaceStatus@@@Z = .text:0x00419B40; // type:function size:0x20 scope:global
?InterfaceSetInMagicHand@Animal@@UAEIPAVGInterfaceStatus@@@Z = .text:0x00419B60; // type:function size:0x60 scope:global
?IsInterestedInFoodObject@Animal@@UAE_NPAVObject@@@Z = .text:0x00419BC0; // type:function size:0x60 scope:global
fn_00419C20 = .text:0x00419C20; // type:function size:0xF0
fn_00419D10 = .text:0x00419D10; // type:function size:0xF0
fn_00419E00 = .text:0x00419E00; // type:function size:0x1D0
?CallVirtualFunctionsForCreation@Animal@@UAEXABUMapCoords@@@Z = .text:0x0041A040; // type:function size:0x60 scope:global
?ArrivesAtFoodReaction@PuzzleHorse@@UAEIXZ = .text:0x0041A0A0; // type:function size:0x90 scope:global
?SaveObject@Animal@@UAEIAAULHOSFile@@ABUMapCoords@@@Z = .text:0x0041A130; // type:function size:0x110 scope:global
?GetFinalState@Animal@@UBE?AW4VILLAGER_STATES@@XZ = .text:0x0041A240; // type:function size:0x40 scope:global
?ResetStateAfterReacting@Animal@@UAEXXZ = .text:0x0041A280; // type:function size:0x30 scope:global
?SetStateSpeed@Animal@@UAEXXZ = .text:0x0041A2B0; // type:function size:0x10 scope:global
?CallExitStateFunction@Animal@@UAEIW4VILLAGER_STATES@@@Z = .text:0x0041A2C0; // type:function size:0x50 scope:global
?CallEntryStateFunctionUc@Animal@@UAEIW4VILLAGER_STATES@@@Z = .text:0x0041A310; // type:function size:0x60 scope:global
?CallEntryStateFunctionUcUc@Animal@@UAEIW4VILLAGER_STATES@@0@Z = .text:0x0041A370; // type:function size:0x70 scope:global
?AddToFlock@Animal@@QAEXPAVFlocking@@@Z = .text:0x0041A3E0; // type:function size:0x10
?SetNewWander@Animal@@UAEXABUMapCoords@@HH@Z = .text:0x0041A3F0; // type:function size:0x1A0 scope:global
fn_0041A590 = .text:0x0041A590; // type:function size:0x20
fn_0041A5B0 = .text:0x0041A5B0; // type:function size:0xAB
fn_0041A660 = .text:0x0041A660; // type:function size:0x2A
?LookForFlocksInSpiral@Animal@@QAEXABVMapCoords@@PBVGAnimalInfo@@HH@Z = .text:0x0041A690; // type:function size:0x100
?LookForFlocksAtPos@Animal@@QAEXABVMapCoords@@PBVGAnimalInfo@@@Z = .text:0x0041A790; // type:function size:0x120
fn_0041A8B0 = .text:0x0041A8B0; // type:function size:0xD0
fn_0041A980 = .text:0x0041A980; // type:function size:0x6B
?MoveInFlock@PuzzleHorse@@UAEIXZ = .text:0x0041A9F0; // type:function size:0xE0 scope:global
?KeepLeaderWithinDomain@Animal@@QAEXXZ = .text:0x0041AAD0; // type:function size:0xE0
?KeepFlockMemberWithinFlockArea@Animal@@QAEIXZ = .text:0x0041ABB0; // type:function size:0x110 scope:global
?DecideWhatToDo@Animal@@UAEIXZ = .text:0x0041ACC0; // type:function size:0x40 scope:global
?FollowFlock@Animal@@QAEXXZ = .text:0x0041AD00; // type:function size:0x10
?SpecialMoveToPos@Animal@@QAEXXZ = .text:0x0041AD10; // type:function size:0x10
?LandOnObject@Animal@@QAEXXZ = .text:0x0041AD20; // type:function size:0x10
?LandAtPos@Animal@@QAEXXZ = .text:0x0041AD30; // type:function size:0x10
?LookForFoodPos@Animal@@QAEXPAVMapCoords@@@Z = .text:0x0041AD50; // type:function size:0x10
?LookForSleepPos@Animal@@QAEXPAVMapCoords@@@Z = .text:0x0041AD60; // type:function size:0x10
fn_0041AD70 = .text:0x0041AD70; // type:function size:0x37B
?GetPositionInFlock@Animal@@QAEXXZ = .text:0x0041B0F0; // type:function size:0x10
?IsStateExitFunctionSameAs@Animal@@UBE_NW4VILLAGER_STATES@@@Z = .text:0x0041B100; // type:function size:0x70 scope:global
?ExitReaction@Animal@@UAEHW4VILLAGER_STATES@@@Z = .text:0x0041B170; // type:function size:0x40 scope:global
?DestroyedByEffect@Animal@@UAEIPAVGPlayer@@M@Z = .text:0x0041B1B0; // type:function size:0x10 scope:global
?DebugShowTime@Animal@@UAEIIEE@Z = .text:0x0041B1C0; // type:function size:0xB scope:global
?GetTimeToBank@Animal@@QAEXXZ = .text:0x0041B1D0; // type:function size:0x10
?GetBankAngle@Animal@@QAEXMM@Z = .text:0x0041B1E0; // type:function size:0x10
fn_0041B1F0 = .text:0x0041B1F0; // type:function size:0x10
?GetScriptObjectType@Animal@@UAEIXZ = .text:0x0041B200; // type:function size:0x10 scope:global
?IsPosValidForTurnAngle@Animal@@UAE_NABUMapCoords@@@Z = .text:0x0041B210; // type:function size:0x110 scope:global
?ValidToApplyThisToObject@Animal@@UAEIPAVGInterfaceStatus@@PAVObject@@@Z = .text:0x0041B320; // type:function size:0x40 scope:global
?ApplyThisToObject@Animal@@UAEIPAVGInterfaceStatus@@PAVObject@@PAUGestureSystemPacketData@@@Z = .text:0x0041B360; // type:function size:0xC0 scope:global
?CalculeLairPos@Animal@@QAEXXZ = .text:0x0041B420; // type:function size:0x10
?IsFinalState@Animal@@UAE_NW4VILLAGER_STATES@@@Z = .text:0x0041B430; // type:function size:0x1B scope:global
?HideInLair@Animal@@QAEXXZ = .text:0x0041B450; // type:function size:0x10
?Save@Animal@@UAEIAAVGameOSFile@@@Z = .text:0x0041B460; // type:function size:0x2B0 scope:global
?Load@Animal@@UAEIAAVGameOSFile@@@Z = .text:0x0041B710; // type:function size:0x28A scope:global
?ResolveLoad@Animal@@UAEXXZ = .text:0x0041B9A0; // type:function size:0x10 scope:global
?CallSaveStateFunction@Animal@@QAEXAAVGameOSFile@@VSTATE_TYPE@@@Z = .text:0x0041B9B0; // type:function size:0x70
?CallLoadStateFunction@Animal@@QAEXAAVGameOSFile@@VSTATE_TYPE@@@Z = .text:0x0041BA20; // type:function size:0x70
?SaveStateFunction@Animal@@QAEXAAVGameOSFile@@@Z = .text:0x0041BA90; // type:function size:0x10
?LoadStateFunction@Animal@@QAEXAAVGameOSFile@@@Z = .text:0x0041BAA0; // type:function size:0x10
?MoveToPos@Animal@@QAEXXZ = .text:0x0041BAF0; // type:function size:0xB
?IsChild@Animal@@UAEIXZ = .text:0x0041BB00; // type:function size:0x20 scope:global
fn_0041BB20 = .text:0x0041BB20; // type:function size:0x60
?ProcessNeeds@PieceVillager@@QAEXXZ = .text:0x0041BB80; // type:function size:0x10
?CheckNeeds@PieceVillager@@QAEXXZ = .text:0x0041BB90; // type:function size:0x10
?GetSaveType@PieceVillager@@UAEIXZ = .text:0x0041BBA0; // type:function size:0x10 scope:global
?GetDebugText@PieceVillager@@UAEPADXZ = .text:0x0041BBB0; // type:function size:0x10 scope:global
?CanBeFrighteningToCreature@PieceVillager@@UAEIPAVCreature@@@Z = .text:0x0041BBC0; // type:function size:0x10 scope:global
??_GPieceVillager@@UAEPAXI@Z = .text:0x0041BBD0; // type:function size:0x30 scope:global
?DecideWhatToDo@PieceVillager@@QAEXXZ = .text:0x0041BC00; // type:function size:0x10
?ReactToPhysicsImpact@Animal@@UAEXPAVPhysicsObject@@_N@Z = .text:0x0041BC10; // type:function size:0x70 scope:global
?GetDefaultResource@Animal@@UAEHXZ = .text:0x0041BC80; // type:function size:0x10 scope:global
fn_0041BC90 = .text:0x0041BC90; // type:function size:0x50
fn_0041BCE0 = .text:0x0041BCE0; // type:function size:0x10
crt_xc_fn_0041BCF0 = .text:0x0041BCF0; // type:function size:0x30
?DecideAnimation@Dove@@QAEXXZ = .text:0x0041BD20; // type:function size:0x2B
?DeadAnimation@Dove@@QAEXXZ = .text:0x0041BD50; // type:function size:0x10
?EatAnimation@Dove@@QAEXXZ = .text:0x0041BD60; // type:function size:0x10
?SleepAnimation@Dove@@QAEXXZ = .text:0x0041BD70; // type:function size:0x10
?StandAnimation@Dove@@UAEIXZ = .text:0x0041BD80; // type:function size:0x10 scope:global
?ThrownAnimation@Dove@@QAEXXZ = .text:0x0041BD90; // type:function size:0x10
?MoveAnimation@SpellDove@@QAEXXZ = .text:0x0041BDA0; // type:function size:0x10
?DeadAnimation@SpellDove@@QAEXXZ = .text:0x0041BDB0; // type:function size:0x10
?EatAnimation@SpellDove@@QAEXXZ = .text:0x0041BDC0; // type:function size:0x10
?SleepAnimation@SpellDove@@QAEXXZ = .text:0x0041BDD0; // type:function size:0x10
?StandAnimation@SpellDove@@UAEIXZ = .text:0x0041BDE0; // type:function size:0x10 scope:global
?ThrownAnimation@SpellDove@@QAEXXZ = .text:0x0041BDF0; // type:function size:0x10
?MoveAnimation@Bat@@QAEXXZ = .text:0x0041BE00; // type:function size:0x10
?DeadAnimation@Bat@@QAEXXZ = .text:0x0041BE10; // type:function size:0x10
?EatAnimation@Bat@@QAEXXZ = .text:0x0041BE20; // type:function size:0x10
?SleepAnimation@Bat@@QAEXXZ = .text:0x0041BE30; // type:function size:0x10
?StandAnimation@Bat@@UAEIXZ = .text:0x0041BE40; // type:function size:0x10 scope:global
?ThrownAnimation@Bat@@QAEXXZ = .text:0x0041BE50; // type:function size:0x10
?MoveAnimation@SpellBat@@QAEXXZ = .text:0x0041BE60; // type:function size:0x10
?DeadAnimation@SpellBat@@QAEXXZ = .text:0x0041BE70; // type:function size:0x10
?EatAnimation@SpellBat@@QAEXXZ = .text:0x0041BE80; // type:function size:0x10
?SleepAnimation@SpellBat@@QAEXXZ = .text:0x0041BE90; // type:function size:0x10
?StandAnimation@SpellBat@@UAEIXZ = .text:0x0041BEA0; // type:function size:0x10 scope:global
?ThrownAnimation@SpellBat@@QAEXXZ = .text:0x0041BEB0; // type:function size:0x10
?MoveAnimation@Crow@@QAEXXZ = .text:0x0041BEC0; // type:function size:0x1B
?DeadAnimation@Crow@@QAEXXZ = .text:0x0041BEE0; // type:function size:0x10
?EatAnimation@Crow@@QAEXXZ = .text:0x0041BEF0; // type:function size:0x10
?SleepAnimation@Crow@@QAEXXZ = .text:0x0041BF00; // type:function size:0x10
?StandAnimation@Crow@@UAEIXZ = .text:0x0041BF10; // type:function size:0x10 scope:global
?ThrownAnimation@Crow@@QAEXXZ = .text:0x0041BF20; // type:function size:0x10
?MoveAnimation@Pigeon@@QAEXXZ = .text:0x0041BF30; // type:function size:0x1B
?DeadAnimation@Pigeon@@QAEXXZ = .text:0x0041BF50; // type:function size:0x10
?EatAnimation@Pigeon@@QAEXXZ = .text:0x0041BF60; // type:function size:0x10
?SleepAnimation@Pigeon@@QAEXXZ = .text:0x0041BF70; // type:function size:0x10
?StandAnimation@Pigeon@@UAEIXZ = .text:0x0041BF80; // type:function size:0x10 scope:global
?ThrownAnimation@Pigeon@@QAEXXZ = .text:0x0041BF90; // type:function size:0x10
?MoveAnimation@Seagull@@QAEXXZ = .text:0x0041BFA0; // type:function size:0x20
?DeadAnimation@Seagull@@QAEXXZ = .text:0x0041BFC0; // type:function size:0x10
?EatAnimation@Seagull@@QAEXXZ = .text:0x0041BFD0; // type:function size:0x10
?SleepAnimation@Seagull@@QAEXXZ = .text:0x0041BFE0; // type:function size:0x10
?StandAnimation@Seagull@@UAEIXZ = .text:0x0041BFF0; // type:function size:0x10 scope:global
?ThrownAnimation@Seagull@@QAEXXZ = .text:0x0041C000; // type:function size:0x10
?MoveAnimation@Swallow@@QAEXXZ = .text:0x0041C010; // type:function size:0x2A
?DeadAnimation@Swallow@@QAEXXZ = .text:0x0041C040; // type:function size:0x10
?EatAnimation@Swallow@@QAEXXZ = .text:0x0041C050; // type:function size:0x10
?SleepAnimation@Swallow@@QAEXXZ = .text:0x0041C060; // type:function size:0x10
?StandAnimation@Swallow@@UAEIXZ = .text:0x0041C070; // type:function size:0x10 scope:global
?ThrownAnimation@Swallow@@QAEXXZ = .text:0x0041C080; // type:function size:0x10
?MoveAnimation@Vulture@@QAEXXZ = .text:0x0041C090; // type:function size:0x10
?DeadAnimation@Vulture@@QAEXXZ = .text:0x0041C0A0; // type:function size:0x10
?EatAnimation@Vulture@@QAEXXZ = .text:0x0041C0B0; // type:function size:0x10
?SleepAnimation@Vulture@@QAEXXZ = .text:0x0041C0C0; // type:function size:0x10
?StandAnimation@Vulture@@QAEXXZ = .text:0x0041C0D0; // type:function size:0x10
?MoveAnimation@Lion@@QAEXXZ = .text:0x0041C0E0; // type:function size:0x30
?LandedAnimation@Lion@@QAEXXZ = .text:0x0041C110; // type:function size:0x10
?DyingAnimation@Lion@@QAEXXZ = .text:0x0041C120; // type:function size:0x10
?DeadAnimation@Lion@@QAEXXZ = .text:0x0041C130; // type:function size:0x10
?EatAnimation@Lion@@QAEXXZ = .text:0x0041C140; // type:function size:0x10
?StartToEatAnimation@Lion@@QAEXXZ = .text:0x0041C150; // type:function size:0x10
?FinishEatingAnimation@Lion@@QAEXXZ = .text:0x0041C160; // type:function size:0x10
?SleepAnimation@Lion@@QAEXXZ = .text:0x0041C170; // type:function size:0x10
?PounceAnimation@Lion@@QAEXXZ = .text:0x0041C180; // type:function size:0x10
?HideAnimation@Lion@@QAEXXZ = .text:0x0041C190; // type:function size:0x10
?StandAnimation@Lion@@UAEIXZ = .text:0x0041C1A0; // type:function size:0x10 scope:global
?InHandAnimation@Lion@@QAEXXZ = .text:0x0041C200; // type:function size:0x10
?ThrownAnimation@Lion@@QAEXXZ = .text:0x0041C210; // type:function size:0x10
?MoveAnimation@Leopard@@QAEXXZ = .text:0x0041C220; // type:function size:0x30
?LandedAnimation@Leopard@@QAEXXZ = .text:0x0041C250; // type:function size:0x10
?DyingAnimation@Leopard@@QAEXXZ = .text:0x0041C260; // type:function size:0x10
?DeadAnimation@Leopard@@QAEXXZ = .text:0x0041C270; // type:function size:0x10
?EatAnimation@Leopard@@QAEXXZ = .text:0x0041C280; // type:function size:0x10
?StartToEatAnimation@Leopard@@QAEXXZ = .text:0x0041C290; // type:function size:0x10
?FinishEatingAnimation@Leopard@@QAEXXZ = .text:0x0041C2A0; // type:function size:0x10
?SleepAnimation@Leopard@@QAEXXZ = .text:0x0041C2B0; // type:function size:0x10
?PounceAnimation@Leopard@@QAEXXZ = .text:0x0041C2C0; // type:function size:0x10
?HideAnimation@Leopard@@QAEXXZ = .text:0x0041C2D0; // type:function size:0x10
?StandAnimation@Leopard@@UAEIXZ = .text:0x0041C2E0; // type:function size:0x10 scope:global
?InHandAnimation@Leopard@@QAEXXZ = .text:0x0041C340; // type:function size:0x10
?ThrownAnimation@Leopard@@QAEXXZ = .text:0x0041C350; // type:function size:0x10
?MoveAnimation@Tiger@@QAEXXZ = .text:0x0041C360; // type:function size:0x40
?LandedAnimation@Tiger@@QAEXXZ = .text:0x0041C3A0; // type:function size:0x10
?DyingAnimation@Tiger@@QAEXXZ = .text:0x0041C3B0; // type:function size:0x10
?DeadAnimation@Tiger@@QAEXXZ = .text:0x0041C3C0; // type:function size:0x10
?EatAnimation@Tiger@@QAEXXZ = .text:0x0041C3D0; // type:function size:0x10
?StartToEatAnimation@Tiger@@QAEXXZ = .text:0x0041C3E0; // type:function size:0x10
?FinishEatingAnimation@Tiger@@QAEXXZ = .text:0x0041C3F0; // type:function size:0x10
?SleepAnimation@Tiger@@QAEXXZ = .text:0x0041C400; // type:function size:0x10
?PounceAnimation@Tiger@@QAEXXZ = .text:0x0041C410; // type:function size:0x10
?HideAnimation@Tiger@@QAEXXZ = .text:0x0041C420; // type:function size:0x10
?StandAnimation@Tiger@@UAEIXZ = .text:0x0041C430; // type:function size:0x10 scope:global
?InHandAnimation@Tiger@@QAEXXZ = .text:0x0041C490; // type:function size:0x10
?ThrownAnimation@Tiger@@QAEXXZ = .text:0x0041C4A0; // type:function size:0x10
?MoveAnimation@Wolf@@QAEXXZ = .text:0x0041C4B0; // type:function size:0x40
?LandedAnimation@Wolf@@QAEXXZ = .text:0x0041C4F0; // type:function size:0x10
?DyingAnimation@Wolf@@QAEXXZ = .text:0x0041C500; // type:function size:0x10
?DeadAnimation@Wolf@@QAEXXZ = .text:0x0041C510; // type:function size:0x10
?EatAnimation@Wolf@@QAEXXZ = .text:0x0041C520; // type:function size:0x10
?StartToEatAnimation@Wolf@@QAEXXZ = .text:0x0041C530; // type:function size:0x10
?FinishEatingAnimation@Wolf@@QAEXXZ = .text:0x0041C540; // type:function size:0x10
?SleepAnimation@Wolf@@QAEXXZ = .text:0x0041C550; // type:function size:0x10
?PounceAnimation@Wolf@@QAEXXZ = .text:0x0041C560; // type:function size:0x10
?HideAnimation@Wolf@@QAEXXZ = .text:0x0041C570; // type:function size:0x10
?StandAnimation@Wolf@@UAEIXZ = .text:0x0041C580; // type:function size:0x10 scope:global
?InHandAnimation@Wolf@@QAEXXZ = .text:0x0041C5E0; // type:function size:0x10
?ThrownAnimation@Wolf@@QAEXXZ = .text:0x0041C5F0; // type:function size:0x10
?MoveAnimation@SpellWolf@@QAEXXZ = .text:0x0041C600; // type:function size:0x10
?LandedAnimation@SpellWolf@@QAEXXZ = .text:0x0041C610; // type:function size:0x10
?DyingAnimation@SpellWolf@@QAEXXZ = .text:0x0041C620; // type:function size:0x10
?DeadAnimation@SpellWolf@@QAEXXZ = .text:0x0041C630; // type:function size:0x10
?EatAnimation@SpellWolf@@QAEXXZ = .text:0x0041C640; // type:function size:0x10
?StartToEatAnimation@SpellWolf@@QAEXXZ = .text:0x0041C650; // type:function size:0x10
?FinishEatingAnimation@SpellWolf@@QAEXXZ = .text:0x0041C660; // type:function size:0x10
?SleepAnimation@SpellWolf@@QAEXXZ = .text:0x0041C670; // type:function size:0x10
?PounceAnimation@SpellWolf@@QAEXXZ = .text:0x0041C680; // type:function size:0x10
?HideAnimation@SpellWolf@@QAEXXZ = .text:0x0041C690; // type:function size:0x10
?StandAnimation@SpellWolf@@UAEIXZ = .text:0x0041C6A0; // type:function size:0x10 scope:global
?InHandAnimation@SpellWolf@@QAEXXZ = .text:0x0041C700; // type:function size:0x10
?ThrownAnimation@SpellWolf@@QAEXXZ = .text:0x0041C710; // type:function size:0x10
?MoveAnimation@Cow@@QAEXXZ = .text:0x0041C720; // type:function size:0x20
?EatAnimation@Cow@@QAEXXZ = .text:0x0041C740; // type:function size:0x20
?LandedAnimation@Cow@@QAEXXZ = .text:0x0041C760; // type:function size:0x30
?DeadAnimation@Cow@@QAEXXZ = .text:0x0041C790; // type:function size:0x20
?SleepAnimation@Cow@@QAEXXZ = .text:0x0041C7B0; // type:function size:0x10
?StartToEatAnimation@Cow@@QAEXXZ = .text:0x0041C7C0; // type:function size:0x10
?FinishEatingAnimation@Cow@@QAEXXZ = .text:0x0041C7D0; // type:function size:0x10
?StandAnimation@PuzzleCow@@UAEIXZ = .text:0x0041C7E0; // type:function size:0x10 scope:global
?DyingAnimation@Cow@@QAEXXZ = .text:0x0041C7F0; // type:function size:0x10
?InHandAnimation@Cow@@QAEXXZ = .text:0x0041C800; // type:function size:0x10
?ThrownAnimation@Cow@@QAEXXZ = .text:0x0041C810; // type:function size:0x10
?MoveAnimation@Sheep@@QAEXXZ = .text:0x0041C820; // type:function size:0x20
?EatAnimation@Sheep@@QAEXXZ = .text:0x0041C840; // type:function size:0x20
?LandedAnimation@Sheep@@QAEXXZ = .text:0x0041C860; // type:function size:0x30
?DeadAnimation@Sheep@@QAEXXZ = .text:0x0041C890; // type:function size:0x20
?SleepAnimation@Sheep@@QAEXXZ = .text:0x0041C8B0; // type:function size:0x10
?StartToEatAnimation@Sheep@@QAEXXZ = .text:0x0041C8C0; // type:function size:0x10
?FinishEatingAnimation@Sheep@@QAEXXZ = .text:0x0041C8D0; // type:function size:0x10
?StandAnimation@Sheep@@UAEIXZ = .text:0x0041C8E0; // type:function size:0x10 scope:global
?DyingAnimation@Sheep@@QAEXXZ = .text:0x0041C8F0; // type:function size:0x10
?InHandAnimation@Sheep@@QAEXXZ = .text:0x0041C950; // type:function size:0x10
?ThrownAnimation@Sheep@@QAEXXZ = .text:0x0041C960; // type:function size:0x10
?MoveAnimation@Goat@@QAEXXZ = .text:0x0041C970; // type:function size:0x10
?DeadAnimation@Goat@@QAEXXZ = .text:0x0041C980; // type:function size:0x10
?EatAnimation@Goat@@QAEXXZ = .text:0x0041C990; // type:function size:0x10
?SleepAnimation@Goat@@QAEXXZ = .text:0x0041C9A0; // type:function size:0x10
?StartToEatAnimation@Goat@@QAEXXZ = .text:0x0041C9B0; // type:function size:0x10
?FinishEatingAnimation@Goat@@QAEXXZ = .text:0x0041C9C0; // type:function size:0x10
?StandAnimation@Goat@@UAEIXZ = .text:0x0041C9D0; // type:function size:0x10 scope:global
?LandedAnimation@Goat@@QAEXXZ = .text:0x0041C9E0; // type:function size:0x10
?DyingAnimation@Goat@@QAEXXZ = .text:0x0041C9F0; // type:function size:0x10
?InHandAnimation@Goat@@QAEXXZ = .text:0x0041CA50; // type:function size:0x10
?ThrownAnimation@Goat@@QAEXXZ = .text:0x0041CA60; // type:function size:0x10
?MoveAnimation@Horse@@QAEXXZ = .text:0x0041CA70; // type:function size:0x2B
?EatAnimation@Horse@@QAEXXZ = .text:0x0041CAA0; // type:function size:0x20
?LandedAnimation@Horse@@QAEXXZ = .text:0x0041CAC0; // type:function size:0x30
?DeadAnimation@Horse@@QAEXXZ = .text:0x0041CAF0; // type:function size:0x20
?SleepAnimation@Horse@@QAEXXZ = .text:0x0041CB10; // type:function size:0x10
?StartToEatAnimation@Horse@@QAEXXZ = .text:0x0041CB20; // type:function size:0x10
?FinishEatingAnimation@Horse@@QAEXXZ = .text:0x0041CB30; // type:function size:0x10
?StandAnimation@Horse@@UAEIXZ = .text:0x0041CB40; // type:function size:0x10 scope:global
?DyingAnimation@Horse@@QAEXXZ = .text:0x0041CB50; // type:function size:0x10
?InHandAnimation@Horse@@QAEXXZ = .text:0x0041CBB0; // type:function size:0x10
?ThrownAnimation@Horse@@QAEXXZ = .text:0x0041CBC0; // type:function size:0x10
?MoveAnimation@Zebra@@QAEXXZ = .text:0x0041CBD0; // type:function size:0x10
?DeadAnimation@Zebra@@QAEXXZ = .text:0x0041CBE0; // type:function size:0x10
?EatAnimation@Zebra@@QAEXXZ = .text:0x0041CBF0; // type:function size:0x10
?SleepAnimation@Zebra@@QAEXXZ = .text:0x0041CC00; // type:function size:0x10
?StartToEatAnimation@Zebra@@QAEXXZ = .text:0x0041CC10; // type:function size:0x10
?FinishEatingAnimation@Zebra@@QAEXXZ = .text:0x0041CC20; // type:function size:0x10
?StandAnimation@Zebra@@UAEIXZ = .text:0x0041CC30; // type:function size:0x10 scope:global
?LandedAnimation@Zebra@@QAEXXZ = .text:0x0041CC40; // type:function size:0x10
?DyingAnimation@Zebra@@QAEXXZ = .text:0x0041CC50; // type:function size:0x10
?InHandAnimation@Zebra@@QAEXXZ = .text:0x0041CCB0; // type:function size:0x10
?ThrownAnimation@Zebra@@QAEXXZ = .text:0x0041CCC0; // type:function size:0x10
?MoveAnimation@Pig@@QAEXXZ = .text:0x0041CCD0; // type:function size:0x20
?EatAnimation@Pig@@QAEXXZ = .text:0x0041CCF0; // type:function size:0x20
?LandedAnimation@Pig@@QAEXXZ = .text:0x0041CD10; // type:function size:0x30
?DeadAnimation@Pig@@QAEXXZ = .text:0x0041CD40; // type:function size:0x20
?SleepAnimation@Pig@@QAEXXZ = .text:0x0041CD60; // type:function size:0x10
?StartToEatAnimation@Pig@@QAEXXZ = .text:0x0041CD70; // type:function size:0x10
?FinishEatingAnimation@Pig@@QAEXXZ = .text:0x0041CD80; // type:function size:0x10
?StandAnimation@Pig@@UAEIXZ = .text:0x0041CD90; // type:function size:0x10 scope:global
?DyingAnimation@Pig@@QAEXXZ = .text:0x0041CDA0; // type:function size:0x10
?InHandAnimation@Pig@@QAEXXZ = .text:0x0041CE00; // type:function size:0x10
?ThrownAnimation@Pig@@QAEXXZ = .text:0x0041CE10; // type:function size:0x10
?MoveAnimation@Tortoise@@QAEXXZ = .text:0x0041CE20; // type:function size:0x10
?DeadAnimation@Tortoise@@QAEXXZ = .text:0x0041CE30; // type:function size:0x10
?EatAnimation@Tortoise@@QAEXXZ = .text:0x0041CE40; // type:function size:0x10
?SleepAnimation@Tortoise@@QAEXXZ = .text:0x0041CE50; // type:function size:0x10
?StartToEatAnimation@Tortoise@@QAEXXZ = .text:0x0041CE60; // type:function size:0x10
?FinishEatingAnimation@Tortoise@@QAEXXZ = .text:0x0041CE70; // type:function size:0x10
?StandAnimation@Tortoise@@UAEIXZ = .text:0x0041CE80; // type:function size:0x10 scope:global
?LandedAnimation@Tortoise@@QAEXXZ = .text:0x0041CE90; // type:function size:0x10
?DyingAnimation@Tortoise@@QAEXXZ = .text:0x0041CEA0; // type:function size:0x10
?InHandAnimation@Tortoise@@QAEXXZ = .text:0x0041CF00; // type:function size:0x10
?ThrownAnimation@Tortoise@@QAEXXZ = .text:0x0041CF10; // type:function size:0x10
?MoveAnimation@PieceVillager@@QAEXXZ = .text:0x0041CF20; // type:function size:0x20
?LandedAnimation@PieceVillager@@QAEXXZ = .text:0x0041CF40; // type:function size:0x10
?DyingAnimation@PieceVillager@@QAEXXZ = .text:0x0041CF50; // type:function size:0x10
?DeadAnimation@PieceVillager@@QAEXXZ = .text:0x0041CF60; // type:function size:0x10
?EatAnimation@PieceVillager@@QAEXXZ = .text:0x0041CF70; // type:function size:0x10
?StartToEatAnimation@PieceVillager@@QAEXXZ = .text:0x0041CF80; // type:function size:0x10
?FinishEatingAnimation@PieceVillager@@QAEXXZ = .text:0x0041CF90; // type:function size:0x10
?SleepAnimation@PieceVillager@@QAEXXZ = .text:0x0041CFA0; // type:function size:0x10
?PounceAnimation@PieceVillager@@QAEXXZ = .text:0x0041CFB0; // type:function size:0x10
?HideAnimation@PieceVillager@@QAEXXZ = .text:0x0041CFC0; // type:function size:0x10
?StandAnimation@PieceVillager@@UAEIXZ = .text:0x0041CFD0; // type:function size:0x10 scope:global
?InHandAnimation@PieceVillager@@QAEXXZ = .text:0x0041D030; // type:function size:0x10
?ThrownAnimation@PieceVillager@@QAEXXZ = .text:0x0041D040; // type:function size:0x10
crt_xc_fn_0041D050 = .text:0x0041D050; // type:function size:0x30
crt_xc_fn_0041D080 = .text:0x0041D080; // type:function size:0x30
fn_0041D0B0 = .text:0x0041D0B0; // type:function size:0x30
?IsOkToBeShepherd@Cow@@QAEXXZ = .text:0x0041D0E0; // type:function size:0x10
?GetSaveType@Cow@@UAEIXZ = .text:0x0041D0F0; // type:function size:0x10 scope:global
?GetDebugText@Cow@@UAEPADXZ = .text:0x0041D100; // type:function size:0x10 scope:global
?IsCow@Cow@@UAEIPAVCreature@@@Z = .text:0x0041D110; // type:function size:0x10 scope:global
??_GCow@@UAEPAXI@Z = .text:0x0041D120; // type:function size:0x30 scope:global
?DecideWhatToDo@Cow@@UAEIXZ = .text:0x0041D1B0; // type:function size:0xD0 scope:global
?Wander@Cow@@QAEXXZ = .text:0x0041D280; // type:function size:0x90
?ReactToAnimalNeeds@Cow@@QAEXXZ = .text:0x0041D310; // type:function size:0x130
?LookForFoodPos@Cow@@QAEXPAVMapCoords@@@Z = .text:0x0041D440; // type:function size:0x60
?StartToEat@Cow@@QAEXXZ = .text:0x0041D4A0; // type:function size:0x2A
?GetSaveType@Sheep@@UAEIXZ = .text:0x0041D530; // type:function size:0x10 scope:global
?GetDebugText@Sheep@@UAEPADXZ = .text:0x0041D540; // type:function size:0x10 scope:global
??_GSheep@@UAEPAXI@Z = .text:0x0041D550; // type:function size:0x30 scope:global
?DecideWhatToDo@PieceSheep@@QAEXXZ = .text:0x0041D5E0; // type:function size:0x10
?ProcessNeeds@PieceSheep@@QAEXXZ = .text:0x0041D5F0; // type:function size:0x10
?CheckNeeds@PieceSheep@@QAEXXZ = .text:0x0041D600; // type:function size:0x10
?GetSaveType@PieceSheep@@UAEIXZ = .text:0x0041D610; // type:function size:0x10 scope:global
?GetDebugText@PieceSheep@@UAEPADXZ = .text:0x0041D620; // type:function size:0x10 scope:global
??_GPieceSheep@@UAEPAXI@Z = .text:0x0041D630; // type:function size:0x30 scope:global
?GetSaveType@Goat@@UAEIXZ = .text:0x0041D6C0; // type:function size:0x10 scope:global
?GetDebugText@Goat@@UAEPADXZ = .text:0x0041D6D0; // type:function size:0x10 scope:global
??_GGoat@@UAEPAXI@Z = .text:0x0041D6E0; // type:function size:0x30 scope:global
?GetSaveType@Horse@@UAEIXZ = .text:0x0041D770; // type:function size:0x10 scope:global
?GetDebugText@Horse@@UAEPADXZ = .text:0x0041D780; // type:function size:0x10 scope:global
??_GHorse@@UAEPAXI@Z = .text:0x0041D790; // type:function size:0x30 scope:global
?DecideWhatToDo@PieceHorse@@QAEXXZ = .text:0x0041D820; // type:function size:0x10
?ProcessNeeds@PieceHorse@@QAEXXZ = .text:0x0041D830; // type:function size:0x10
?CheckNeeds@PieceHorse@@QAEXXZ = .text:0x0041D840; // type:function size:0x10
?GetSaveType@PieceHorse@@UAEIXZ = .text:0x0041D850; // type:function size:0x10 scope:global
?GetDebugText@PieceHorse@@UAEPADXZ = .text:0x0041D860; // type:function size:0x10 scope:global
??_GPieceHorse@@UAEPAXI@Z = .text:0x0041D870; // type:function size:0x30 scope:global
?GetSaveType@Zebra@@UAEIXZ = .text:0x0041D900; // type:function size:0x10 scope:global
?GetDebugText@Zebra@@UAEPADXZ = .text:0x0041D910; // type:function size:0x10 scope:global
??_GZebra@@UAEPAXI@Z = .text:0x0041D920; // type:function size:0x30 scope:global
?GetSaveType@Pig@@UAEIXZ = .text:0x0041D9B0; // type:function size:0x10 scope:global
?GetDebugText@Pig@@UAEPADXZ = .text:0x0041D9C0; // type:function size:0x10 scope:global
??_GPig@@UAEPAXI@Z = .text:0x0041D9D0; // type:function size:0x30 scope:global
?ProcessNeeds@PiecePig@@QAEXXZ = .text:0x0041DA60; // type:function size:0x10
?DecideWhatToDo@PiecePig@@UAEIXZ = .text:0x0041DA70; // type:function size:0x10 scope:global
?CheckNeeds@PiecePig@@QAEXXZ = .text:0x0041DA80; // type:function size:0x10
?GetSaveType@PiecePig@@UAEIXZ = .text:0x0041DA90; // type:function size:0x10 scope:global
?GetDebugText@PiecePig@@UAEPADXZ = .text:0x0041DAA0; // type:function size:0x10 scope:global
??_GPiecePig@@UAEPAXI@Z = .text:0x0041DAB0; // type:function size:0x30 scope:global
?GetSaveType@Tortoise@@UAEIXZ = .text:0x0041DB40; // type:function size:0x10 scope:global
?GetDebugText@Tortoise@@UAEPADXZ = .text:0x0041DB50; // type:function size:0x10 scope:global
??_GTortoise@@UAEPAXI@Z = .text:0x0041DB60; // type:function size:0x30 scope:global
?DecideWhatToDo@PieceTortoise@@QAEXXZ = .text:0x0041DBF0; // type:function size:0x10
?ProcessNeeds@PieceTortoise@@QAEXXZ = .text:0x0041DC00; // type:function size:0x10
?CheckNeeds@PieceTortoise@@QAEXXZ = .text:0x0041DC10; // type:function size:0x10
?GetSaveType@PieceTortoise@@UAEIXZ = .text:0x0041DC20; // type:function size:0x10 scope:global
?GetDebugText@PieceTortoise@@UAEPADXZ = .text:0x0041DC30; // type:function size:0x10 scope:global
??_GPieceTortoise@@UAEPAXI@Z = .text:0x0041DC40; // type:function size:0x30 scope:global
crt_xc_fn_0041DC70 = .text:0x0041DC70; // type:function size:0x30
crt_xc_fn_0041DCA0 = .text:0x0041DCA0; // type:function size:0x30
crt_xc_fn_0041DCD0 = .text:0x0041DCD0; // type:function size:0x1B
?IsSelfColored@Dove@@QAEXXZ = .text:0x0041DD40; // type:function size:0x10
_pef_1017a530 = .text:0x0041DD50; // type:function size:0x10
?IAmABird@Dove@@QAEXXZ = .text:0x0041DD60; // type:function size:0x10
?CanBePoodOn@Dove@@UAEIPAVCreature@@@Z = .text:0x0041DD70; // type:function size:0x10 scope:global
?GetSaveType@Dove@@UAEIXZ = .text:0x0041DD80; // type:function size:0x10 scope:global
?GetDebugText@Dove@@UAEPADXZ = .text:0x0041DD90; // type:function size:0x10 scope:global
??_GDove@@UAEPAXI@Z = .text:0x0041DDA0; // type:function size:0x30 scope:global
?DecideWhatToDo@Dove@@QAEXXZ = .text:0x0041DE40; // type:function size:0xE0
fn_0041DF20 = .text:0x0041DF20; // type:function size:0x30
?StartWander@Dove@@QAEXXZ = .text:0x0041DF50; // type:function size:0x160
?FollowFlock@Dove@@QAEXXZ = .text:0x0041E0B0; // type:function size:0x80
fn_0041E130 = .text:0x0041E130; // type:function size:0x30
?SpecialMoveToPos@Dove@@QAEXXZ = .text:0x0041E160; // type:function size:0xAB
?LandAtPos@Dove@@QAEXXZ = .text:0x0041E250; // type:function size:0x280
?Sleeps@Dove@@QAEXXZ = .text:0x0041E4D0; // type:function size:0x130
?ReactToAnimalNeeds@Dove@@QAEXXZ = .text:0x0041E600; // type:function size:0xB0
?ReactToAnimalNeeds@SpellDove@@QAEXXZ = .text:0x0041E6B0; // type:function size:0x10
?LookForFoodPos@Dove@@QAEXPAVMapCoords@@@Z = .text:0x0041E6C0; // type:function size:0x60
?LookForSleepPos@Dove@@QAEXPAVMapCoords@@@Z = .text:0x0041E720; // type:function size:0x70
fn_0041E790 = .text:0x0041E790; // type:function size:0x50
fn_0041E7E0 = .text:0x0041E7E0; // type:function size:0xA
fn_0041E7F0 = .text:0x0041E7F0; // type:function size:0xA0
fn_0041E890 = .text:0x0041E890; // type:function size:0x1B0
?SetCurrentAndDestinationState@Dove@@QAEXEE@Z = .text:0x0041EA40; // type:function size:0x60
?GetScriptObjectType@Dove@@UAEIXZ = .text:0x0041EAA0; // type:function size:0x10 scope:global
?CanBeHealedByHealSpell@Dove@@QAEXXZ = .text:0x0041EAB0; // type:function size:0x10
?IsSelfColored@SpellDove@@QAEXXZ = .text:0x0041EB30; // type:function size:0x10
?GetSaveType@SpellDove@@UAEIXZ = .text:0x0041EB40; // type:function size:0x10 scope:global
?GetDebugText@SpellDove@@UAEPADXZ = .text:0x0041EB50; // type:function size:0x10 scope:global
??_GSpellDove@@UAEPAXI@Z = .text:0x0041EB60; // type:function size:0x30 scope:global
?GetSaveType@Crow@@UAEIXZ = .text:0x0041EC00; // type:function size:0x10 scope:global
?GetDebugText@Crow@@UAEPADXZ = .text:0x0041EC10; // type:function size:0x10 scope:global
??_GCrow@@UAEPAXI@Z = .text:0x0041EC20; // type:function size:0x30 scope:global
?GetSaveType@Swallow@@UAEIXZ = .text:0x0041ECC0; // type:function size:0x10 scope:global
?GetDebugText@Swallow@@UAEPADXZ = .text:0x0041ECD0; // type:function size:0x10 scope:global
??_GSwallow@@UAEPAXI@Z = .text:0x0041ECE0; // type:function size:0x30 scope:global
?GetSaveType@Pigeon@@UAEIXZ = .text:0x0041ED80; // type:function size:0x10 scope:global
?GetDebugText@Pigeon@@UAEPADXZ = .text:0x0041ED90; // type:function size:0x10 scope:global
??_GPigeon@@UAEPAXI@Z = .text:0x0041EDA0; // type:function size:0x30 scope:global
?GetSaveType@Seagull@@UAEIXZ = .text:0x0041EE40; // type:function size:0x10 scope:global
?GetDebugText@Seagull@@UAEPADXZ = .text:0x0041EE50; // type:function size:0x10 scope:global
??_GSeagull@@UAEPAXI@Z = .text:0x0041EE60; // type:function size:0x30 scope:global
?GetSaveType@Bat@@UAEIXZ = .text:0x0041EF00; // type:function size:0x10 scope:global
?GetDebugText@Bat@@UAEPADXZ = .text:0x0041EF10; // type:function size:0x10 scope:global
?CanBeFrighteningToCreature@Bat@@UAEIPAVCreature@@@Z = .text:0x0041EF20; // type:function size:0x10 scope:global
??_GBat@@UAEPAXI@Z = .text:0x0041EF30; // type:function size:0x30 scope:global
?GetSaveType@SpellBat@@UAEIXZ = .text:0x0041EFE0; // type:function size:0x10 scope:global
?GetDebugText@SpellBat@@UAEPADXZ = .text:0x0041EFF0; // type:function size:0x10 scope:global
?CanBeFrighteningToCreature@SpellBat@@UAEIPAVCreature@@@Z = .text:0x0041F000; // type:function size:0x10 scope:global
??_GSpellBat@@UAEPAXI@Z = .text:0x0041F010; // type:function size:0x30 scope:global
?GetSaveType@Vulture@@UAEIXZ = .text:0x0041F0B0; // type:function size:0x10 scope:global
?GetDebugText@Vulture@@UAEPADXZ = .text:0x0041F0C0; // type:function size:0x10 scope:global
?CanBeFrighteningToCreature@Vulture@@UAEIPAVCreature@@@Z = .text:0x0041F0D0; // type:function size:0x10 scope:global
??_GVulture@@UAEPAXI@Z = .text:0x0041F0E0; // type:function size:0x30 scope:global
?Save@Dove@@UAEIAAVGameOSFile@@@Z = .text:0x0041F110; // type:function size:0x20 scope:global
?Load@Dove@@UAEIAAVGameOSFile@@@Z = .text:0x0041F130; // type:function size:0x20 scope:global
?CanBeStompedOnByCreature@Dove@@UAEIPAVCreature@@@Z = .text:0x0041F150; // type:function size:0x40 scope:global
?CanBePickedUpByCreature@Dove@@UAEIPAVCreature@@@Z = .text:0x0041F190; // type:function size:0x20 scope:global
?Dying@Dove@@QAEXXZ = .text:0x0041F1B0; // type:function size:0x90
?CallVirtualFunctionsForCreation@Dove@@UAEXABUMapCoords@@@Z = .text:0x0041F240; // type:function size:0x20 scope:global
?GetTimeToBank@Dove@@QAEXXZ = .text:0x0041F260; // type:function size:0x10
?GetBankAngle@Dove@@QAEXMM@Z = .text:0x0041F270; // type:function size:0x10
?GetTimeToBank@SpellDove@@QAEXXZ = .text:0x0041F2D0; // type:function size:0x10
?GetBankAngle@SpellDove@@QAEXMM@Z = .text:0x0041F2E0; // type:function size:0x10
fn_0041F2F0 = .text:0x0041F2F0; // type:function size:0x1D0
?ProcessFadeOut@SpellDove@@QAEXXZ = .text:0x0041F4C0; // type:function size:0x100
?SetDying@SpellDove@@UAEIXZ = .text:0x0041F5C0; // type:function size:0x60 scope:global
?GetNumTurnsToDieOver@SpellDove@@UAEIXZ = .text:0x0041F620; // type:function size:0x10 scope:global
?SetColor@SpellDove@@QAEXXZ = .text:0x0041F630; // type:function size:0x50
?Draw@Dove@@UAEXXZ = .text:0x0041F680; // type:function size:0x1C0 scope:global
?IsPosValidForMapCellExistance@Dove@@QAEXABVMapCoords@@@Z = .text:0x0041F840; // type:function size:0x290
?Load@SpellDove@@UAEIAAVGameOSFile@@@Z = .text:0x0041FAD0; // type:function size:0x70 scope:global
?Save@SpellDove@@UAEIAAVGameOSFile@@@Z = .text:0x0041FB40; // type:function size:0x70 scope:global
crt_xc_fn_0041FBB0 = .text:0x0041FBB0; // type:function size:0x30
crt_xc_fn_0041FBE0 = .text:0x0041FBE0; // type:function size:0x30
?CanBeFrighteningToCreature@Lion@@UAEIPAVCreature@@@Z = .text:0x0041FC70; // type:function size:0x10 scope:global
?GetSaveType@Leopard@@UAEIXZ = .text:0x0041FC80; // type:function size:0x10 scope:global
?GetDebugText@Leopard@@UAEPADXZ = .text:0x0041FC90; // type:function size:0x10 scope:global
??_GLeopard@@UAEPAXI@Z = .text:0x0041FCA0; // type:function size:0x30 scope:global
crt_xc_fn_0041FCD0 = .text:0x0041FCD0; // type:function size:0x30
crt_xc_fn_0041FD00 = .text:0x0041FD00; // type:function size:0x30
fn_0041FD30 = .text:0x0041FD30; // type:function size:0x3A
?GetSaveType@Lion@@UAEIXZ = .text:0x0041FD70; // type:function size:0x10 scope:global
?GetDebugText@Lion@@UAEPADXZ = .text:0x0041FD80; // type:function size:0x10 scope:global
??_GLion@@UAEPAXI@Z = .text:0x0041FD90; // type:function size:0x30 scope:global
fn_0041FDC0 = .text:0x0041FDC0; // type:function size:0x1B
?Eat@Lion@@QAEXXZ = .text:0x0041FE40; // type:function size:0x30
?DecideWhatToDo@Lion@@QAEXXZ = .text:0x0041FE70; // type:function size:0xD0
?ReactToAnimalFoodNeeds@Lion@@QAEXXZ = .text:0x0041FF40; // type:function size:0xD0
?CalculeLairPos@Lion@@QAEXXZ = .text:0x00420010; // type:function size:0x2C
fn_0042003C = .text:0x0042003C; // type:function size:0x64
?ProcessNeeds@PieceLion@@QAEXXZ = .text:0x004200A0; // type:function size:0x10
?CheckNeeds@PieceLion@@QAEXXZ = .text:0x004200B0; // type:function size:0x10
?GetSaveType@PieceLion@@UAEIXZ = .text:0x004200C0; // type:function size:0x10 scope:global
?GetDebugText@PieceLion@@UAEPADXZ = .text:0x004200D0; // type:function size:0x10 scope:global
?CanBeFrighteningToCreature@PieceLion@@UAEIPAVCreature@@@Z = .text:0x004200E0; // type:function size:0x10 scope:global
??_GPieceLion@@UAEPAXI@Z = .text:0x004200F0; // type:function size:0x30 scope:global
?DecideWhatToDo@PieceLion@@QAEXXZ = .text:0x00420120; // type:function size:0x10
crt_xc_fn_00420130 = .text:0x00420130; // type:function size:0x30
crt_xc_fn_00420160 = .text:0x00420160; // type:function size:0x30
crt_xc_fn_00420190 = .text:0x00420190; // type:function size:0x30
crt_xc_fn_004201C0 = .text:0x004201C0; // type:function size:0x30
?FleeingFromPredatorReaction@Animal@@QAEXXZ = .text:0x004201F0; // type:function size:0x1B0
?ReactToFirePriority@Animal@@UAEEPAVReaction@@0@Z = .text:0x004203A0; // type:function size:0x10 scope:global
?ReactToFallingTreePriority@Animal@@UAEEPAVReaction@@0@Z = .text:0x004203B0; // type:function size:0x10 scope:global
?FleeFromPredatorPriority@Lion@@QAEXPAVReaction@@PAV2@@Z = .text:0x004203C0; // type:function size:0x50
?SetupFleeFromPredator@Animal@@UAEXPAVGameThingWithPos@@PAVReaction@@@Z = .text:0x00420410; // type:function size:0x30 scope:global
?SetupReactToCreature@Animal@@UAEXPAVGameThingWithPos@@PAVReaction@@@Z = .text:0x00420440; // type:function size:0x20 scope:global
?SetupReactToFire@Animal@@UAEXPAVGameThingWithPos@@PAVReaction@@@Z = .text:0x00420460; // type:function size:0x20 scope:global
?SetupReactToFallingTree@Animal@@UAEXPAVGameThingWithPos@@PAVReaction@@@Z = .text:0x00420480; // type:function size:0x20 scope:global
?SetupReactToFlyingObject@Animal@@UAEXPAVGameThingWithPos@@PAVReaction@@@Z = .text:0x004204A0; // type:function size:0xB0 scope:global
?GetFleeingPositionFromMovingObject@Animal@@UAEXPAUMapCoords@@PAVGameThingWithPos@@M@Z = .text:0x00420550; // type:function size:0x23A scope:global
crt_xc_fn_00420790 = .text:0x00420790; // type:function size:0x30
crt_xc_fn_004207C0 = .text:0x004207C0; // type:function size:0x30
?GetPlayer@SpellWolf@@UAEPAVGPlayer@@XZ = .text:0x004208A0; // type:function size:0x10 scope:global
?SetPlayer@SpellWolf@@UAEXPAVGPlayer@@@Z = .text:0x004208B0; // type:function size:0x10 scope:global
?GetSaveType@SpellWolf@@UAEIXZ = .text:0x004208C0; // type:function size:0x10 scope:global
?GetDebugText@SpellWolf@@UAEPADXZ = .text:0x004208D0; // type:function size:0x10 scope:global
??_GSpellWolf@@UAEPAXI@Z = .text:0x004208E0; // type:function size:0x30 scope:global
?CallVirtualFunctionsForCreation@SpellWolf@@UAEXABUMapCoords@@@Z = .text:0x00420910; // type:function size:0x20 scope:global
?FinishPouncing@SpellWolf@@QAEXPAVLiving@@@Z = .text:0x004209A0; // type:function size:0x10
?SetSpeed@SpellWolf@@UAEXH@Z = .text:0x004209B0; // type:function size:0x10 scope:global
?SetRunToFinalDest@SpellWolf@@QAEXXZ = .text:0x004209C0; // type:function size:0x40
?DecideWhatToDo@SpellWolf@@QAEXXZ = .text:0x00420A00; // type:function size:0xB
?Wander@SpellWolf@@QAEXXZ = .text:0x00420A10; // type:function size:0xB
fn_00420A20 = .text:0x00420A20; // type:function size:0x1D0
?ProcessFadeOut@SpellWolf@@QAEXXZ = .text:0x00420BF0; // type:function size:0x100
?SetDying@SpellWolf@@UAEIXZ = .text:0x00420CF0; // type:function size:0x60 scope:global
?GetNumTurnsToDieOver@SpellWolf@@UAEIXZ = .text:0x00420D50; // type:function size:0x10 scope:global
?IsHuntingTargetValid@SpellWolf@@QAEXPAVObject@@@Z = .text:0x00420D60; // type:function size:0xB0
?IsPosOnCorridor@SpellWolf@@QAEXABVMapCoords@@@Z = .text:0x00420E10; // type:function size:0xE0
?GetTimeToBank@SpellWolf@@QAEXXZ = .text:0x00420EF0; // type:function size:0x10
?GetBankAngle@SpellWolf@@QAEXMM@Z = .text:0x00420F00; // type:function size:0x30
?HuntingMoveToPosAbaondon@SpellWolf@@QAEXXZ = .text:0x00420F30; // type:function size:0x20
fn_00420F50 = .text:0x00420F50; // type:function size:0x150
?MoveToPosAndLookAround@SpellWolf@@QAEXXZ = .text:0x004210A0; // type:function size:0x10
?Load@SpellWolf@@UAEIAAVGameOSFile@@@Z = .text:0x004210B0; // type:function size:0x120 scope:global
?Save@SpellWolf@@UAEIAAVGameOSFile@@@Z = .text:0x004211D0; // type:function size:0x130 scope:global
?MoveToPos@SpellWolf@@QAEXXZ = .text:0x00421300; // type:function size:0x60
crt_xc_fn_00421360 = .text:0x00421360; // type:function size:0x30
crt_xc_fn_00421390 = .text:0x00421390; // type:function size:0x30
?GetSaveType@Tiger@@UAEIXZ = .text:0x00421420; // type:function size:0x10 scope:global
?GetDebugText@Tiger@@UAEPADXZ = .text:0x00421430; // type:function size:0x10 scope:global
??_GTiger@@UAEPAXI@Z = .text:0x00421440; // type:function size:0x30 scope:global
?CalculeLairPos@Tiger@@QAEXXZ = .text:0x00421470; // type:function size:0x130
crt_xc_fn_004215A0 = .text:0x004215A0; // type:function size:0x30
crt_xc_fn_004215D0 = .text:0x004215D0; // type:function size:0x30
?GetSaveType@Wolf@@UAEIXZ = .text:0x00421660; // type:function size:0x10 scope:global
?GetDebugText@Wolf@@UAEPADXZ = .text:0x00421670; // type:function size:0x10 scope:global
??_GWolf@@UAEPAXI@Z = .text:0x00421680; // type:function size:0x30 scope:global
?DecideWhatToDo@Wolf@@QAEXXZ = .text:0x004216B0; // type:function size:0x80
?CalculeLairPos@Wolf@@QAEXXZ = .text:0x00421730; // type:function size:0x210
?ReactToAnimalNeeds@Wolf@@QAEXXZ = .text:0x00421950; // type:function size:0x80
?HideInLair@Wolf@@QAEXXZ = .text:0x004219E0; // type:function size:0x270
?MoveToPos@Wolf@@QAEXXZ = .text:0x00421C50; // type:function size:0x10
?Wander@Wolf@@QAEXXZ = .text:0x00421CE0; // type:function size:0x10
?ProcessNeeds@PieceWolf@@QAEXXZ = .text:0x00421D50; // type:function size:0x10
?CheckNeeds@PieceWolf@@QAEXXZ = .text:0x00421D60; // type:function size:0x10
?GetSaveType@PieceWolf@@UAEIXZ = .text:0x00421D70; // type:function size:0x10 scope:global
?GetDebugText@PieceWolf@@UAEPADXZ = .text:0x00421D80; // type:function size:0x10 scope:global
?CanBeFrighteningToCreature@PieceWolf@@UAEIPAVCreature@@@Z = .text:0x00421D90; // type:function size:0x10 scope:global
??_GPieceWolf@@UAEPAXI@Z = .text:0x00421DA0; // type:function size:0x30 scope:global
?DecideWhatToDo@PieceWolf@@QAEXXZ = .text:0x00421DD0; // type:function size:0x10
crt_xc_fn_00421DE0 = .text:0x00421DE0; // type:function size:0x30
crt_xc_fn_00421E10 = .text:0x00421E10; // type:function size:0x30
crt_xc_fn_00421E40 = .text:0x00421E40; // type:function size:0x10
fn_00421E50 = .text:0x00421E50; // type:function size:0x30
?GetAbodeType@GFeatureInfo@@UBE?AW4ABODE_TYPE@@XZ = .text:0x00421E80; // type:function size:0x10 scope:global
?GetAbodeNumber@GFeatureInfo@@UBE?AW4ABODE_NUMBER@@XZ = .text:0x00421E90; // type:function size:0x10 scope:global
?GetMesh@GFeatureInfo@@UBEIXZ = .text:0x00421EA0; // type:function size:0x10 scope:global
?GetBaseInfo@GFeatureInfo@@UAEPAVGBaseInfo@@AAI@Z = .text:0x00421EB0; // type:function size:0x20 scope:global
??_GGAnimatedStaticInfo@@UAEPAXI@Z = .text:0x00421F20; // type:function size:0x30 scope:global
?GetArrivePos@MultiMapFixed@@UAEPAUMapCoords@@PAU2@@Z = .text:0x00421FE0; // type:function size:0x20 scope:global
?GetPercentAbodeFullWithAdults@MultiMapFixed@@UAEMXZ = .text:0x00422000; // type:function size:0x10 scope:global
?GetPercentAbodeFullWithChildren@MultiMapFixed@@UAEMXZ = .text:0x00422010; // type:function size:0x10 scope:global
?GetDestructionMesh@MultiMapFixed@@UAEPAVLH3DMesh@@XZ = .text:0x00422020; // type:function size:0x10 scope:global
?RemoveDamage@MultiMapFixed@@UAEXXZ = .text:0x00422030; // type:function size:0x10 scope:global
?IsCivic@MultiMapFixed@@UAEIXZ = .text:0x00422040; // type:function size:0x10 scope:global
?IsWonder@MultiMapFixed@@UAEIXZ = .text:0x00422050; // type:function size:0x10 scope:global
?GetAbodeType@MultiMapFixed@@UAE?AW4ABODE_TYPE@@XZ = .text:0x00422060; // type:function size:0x10 scope:global
?DoResourceAdding@MultiMapFixed@@UAEIW4RESOURCE_TYPE@@PAVGInterfaceStatus@@_NPAUMapCoords@@H@Z = .text:0x00422070; // type:function size:0x10 scope:global
?DoResourceRemoving@MultiMapFixed@@UAEIW4RESOURCE_TYPE@@IPAVGInterfaceStatus@@_N@Z = .text:0x00422080; // type:function size:0x10 scope:global
?SetTown@MultiMapFixed@@UAEXPAVTown@@@Z = .text:0x00422090; // type:function size:0x10 scope:global
?GetTown@MultiMapFixed@@UAEPAVTown@@XZ = .text:0x004220A0; // type:function size:0x10 scope:global
?GetShouldNotBeAddedToPlanned@MultiMapFixed@@UAEIXZ = .text:0x004220B0; // type:function size:0x10 scope:global
?SetShouldNotBeAddedToPlanned@MultiMapFixed@@UAEX_N@Z = .text:0x004220C0; // type:function size:0x10 scope:global
?GetMesh@Feature@@UBEHXZ = .text:0x004220D0; // type:function size:0x10 scope:global
?IsFeature@Feature@@UAEIXZ = .text:0x004220E0; // type:function scope:global
?IsRepaired@WorshipSiteUpgrade@@UAEIXZ = .text:0x004220F0; // type:function size:0x20 scope:global
?IsBuilt@WorshipSiteUpgrade@@UAEIXZ = .text:0x00422110; // type:function size:0x30 scope:global
?GetCreatureBeliefType@Feature@@UAEIXZ = .text:0x00422140; // type:function size:0x10 scope:global
?CanBePickedUpByCreature@Feature@@UAEIPAVCreature@@@Z = .text:0x00422150; // type:function size:0x2B scope:global
?GetSaveType@ChessPion@@UAEIXZ = .text:0x00422180; // type:function size:0x10 scope:global
?GetDebugText@ChessPion@@UAEPADXZ = .text:0x00422190; // type:function size:0x10 scope:global
??_GAnimatedStatic@@UAEPAXI@Z = .text:0x004221A0; // type:function size:0x30 scope:global
?ChecksVerticesVObjects@ChessPion@@UAEIXZ = .text:0x004221D0; // type:function size:0x10 scope:global
?InteractsWithPhysicsObjects@ChessPion@@UAEIXZ = .text:0x004221E0; // type:function size:0x30 scope:global
?SetUpPhysOb@ChessPion@@UAEXPAUPhysOb@@@Z = .text:0x00422210; // type:function size:0x40 scope:global
fn_00422250 = .text:0x00422250; // type:function size:0x85
?CallVirtualFunctionsForCreation@AnimatedStatic@@UAEXABUMapCoords@@@Z = .text:0x00422300; // type:function size:0x280 scope:global
fn_00422580 = .text:0x00422580; // type:function size:0x20
?ToBeDeleted@AnimatedStatic@@UAEXH@Z = .text:0x004225A0; // type:function size:0x60 scope:global
?SaveObject@AnimatedStatic@@UAEIAAULHOSFile@@ABUMapCoords@@@Z = .text:0x00422650; // type:function size:0x100 scope:global
fn_00422750 = .text:0x00422750; // type:function size:0x20
?Draw@ChessPion@@UAEXXZ = .text:0x00422770; // type:function size:0x30E scope:global
?Save@ChessPion@@UAEIAAVGameOSFile@@@Z = .text:0x00422AA0; // type:function size:0x120 scope:global
?Load@ChessPion@@UAEIAAVGameOSFile@@@Z = .text:0x00422BC0; // type:function size:0x100 scope:global
fn_00422CD0 = .text:0x00422CD0; // type:function size:0x80
?AddGateStone@AnimatedStatic@@QAEXVMESH_LIST@@@Z = .text:0x00422D50; // type:function size:0xA0
fn_00422E30 = .text:0x00422E30; // type:function size:0x40
?GetSaveType@Feature@@UAEIXZ = .text:0x00422E70; // type:function size:0x10 scope:global
?GetDebugText@Feature@@UAEPADXZ = .text:0x00422E80; // type:function size:0x10 scope:global
??_GFeature@@UAEPAXI@Z = .text:0x00422E90; // type:function size:0x30 scope:global
?CreatureMustAvoid@ChessPion@@UAE_NPAVCreature@@@Z = .text:0x00422EC0; // type:function size:0x10 scope:global
?AddToRoutePlan@ChessPion@@UAEXPAURPHolder@@PAVCreature@@HP6AXHUPoint2D@@MH@Z@Z = .text:0x00422ED0; // type:function size:0x200 scope:global
fn_004230D0 = .text:0x004230D0; // type:function size:0x40
crt_xc_fn_00423110 = .text:0x00423110; // type:function size:0x30
?SetPosition@LH3DObject@@SAXABULHPoint@@MM@Z = .text:0x00423140; // type:function size:0x250 scope:global
fn_00423390 = .text:0x00423390; // type:function size:0x20
crt_xc_fn_004233B0 = .text:0x004233B0; // type:function size:0x30
crt_xc_fn_004233E0 = .text:0x004233E0; // type:function size:0x1B
fn_00423631 = .text:0x00423631; // type:function size:0xE3
?FootballWatchMatchAnimation@Villager@@QAEIXZ = .text:0x00423C80; // type:function size:0xA0 scope:global
?SitDownAnimation@Villager@@QAEXXZ = .text:0x00424242; // type:function size:0x3E
fn_00424442 = .text:0x00424442; // type:function size:0x3E
crt_xc_fn_00424480 = .text:0x00424480; // type:function size:0x30
crt_xc_fn_004244B0 = .text:0x004244B0; // type:function size:0x1B
??0GLightSheet@@QAE@ABVLHPoint@@MVLH3DColor@@MMI@Z = .text:0x004244D0; // type:function size:0x60
??_GGLightSheet@@QAEPAXI@Z = .text:0x00424530; // type:function size:0x20
fn_00424550 = .text:0x00424550; // type:function size:0x100
?Draw@GLightSheet@@QAEXXZ = .text:0x00424650; // type:function size:0x90
?GetRadius@GArena@@UAEMXZ = .text:0x00424780; // type:function size:0x10 scope:global
?GetText@GArena@@UAEPBDXZ = .text:0x00424790; // type:function size:0x10 scope:global
?GetSaveType@GArena@@UAEIXZ = .text:0x004247A0; // type:function size:0x10 scope:global
?GetDebugText@GArena@@UAEPADXZ = .text:0x004247B0; // type:function size:0x10 scope:global
??_GGArena@@UAEPAXI@Z = .text:0x004247C0; // type:function size:0x20 scope:global
?GetScale@GameThingWithPos@@UBEMXZ = .text:0x004247E0; // type:function size:0x10 scope:global
?SetScale@GameThingWithPos@@UAEXM@Z = .text:0x004247F0; // type:function size:0x10 scope:global
??1GameThingWithPos@@UAE@XZ = .text:0x00424800; // type:function size:0x20 scope:global
?CallVirtualFunctionsForCreation@GArena@@QAEXABVMapCoords@@@Z = .text:0x004248D0; // type:function size:0x8B
?ToBeDeleted@GArena@@UAEXH@Z = .text:0x00424960; // type:function size:0x80 scope:global
?Draw@GArena@@QAEXXZ = .text:0x004249E0; // type:function size:0xB0
fn_00424B60 = .text:0x00424B60; // type:function size:0x20
fn_00424B80 = .text:0x00424B80; // type:function size:0x40
?SaveObject@GArena@@QAEXAAVLHOSFile@@ABVMapCoords@@@Z = .text:0x00424BC0; // type:function size:0xE0
fn_00424D10 = .text:0x00424D10; // type:function size:0x20
fn_00424E45 = .text:0x00424E45; // type:function size:0x1D
fn_00425060 = .text:0x00425060; // type:function size:0x30
fn_00425090 = .text:0x00425090; // type:function size:0x10
fn_004250A0 = .text:0x004250A0; // type:function size:0x30
?Save@GArena@@UAEIAAVGameOSFile@@@Z = .text:0x004250D0; // type:function size:0x100 scope:global
?Load@GArena@@UAEIAAVGameOSFile@@@Z = .text:0x004251D0; // type:function size:0x100 scope:global
?IsObjectFullyInMap@Fixed@@UAEIXZ = .text:0x004252F0; // type:function size:0x10 scope:global
?SaveObject@ArenaSpellIcon@@UAEIAAULHOSFile@@ABUMapCoords@@@Z = .text:0x00425300; // type:function scope:global
?CreatureMustAvoid@ArenaSpellIcon@@UAE_NPAVCreature@@@Z = .text:0x00425310; // type:function size:0x10 scope:global
?GetSaveType@ArenaSpellIcon@@UAEIXZ = .text:0x00425320; // type:function size:0x10 scope:global
?GetDebugText@ArenaSpellIcon@@UAEPADXZ = .text:0x00425330; // type:function size:0x10 scope:global
?GetMesh@Object@@UAEHXZ = .text:0x00425340; // type:function size:0x5 scope:global
fn_00425345 = .text:0x00425345; // type:function size:0xB
??_GArenaSpellIcon@@UAEPAXI@Z = .text:0x00425350; // type:function scope:global
fn_00425410 = .text:0x00425410; // type:function size:0x10
?CallVirtualFunctionsForCreation@ArenaSpellIcon@@UAEXABUMapCoords@@@Z = .text:0x00425420; // type:function size:0x100 scope:global
fn_00425520 = .text:0x00425520; // type:function size:0x20
?Create3DObject@ArenaSpellIcon@@UAEXXZ = .text:0x00425540; // type:function size:0xC0 scope:global
?ToBeDeleted@ArenaSpellIcon@@UAEXH@Z = .text:0x00425600; // type:function size:0x50 scope:global
fn_00425660 = .text:0x00425660; // type:function size:0x60
?Draw@ArenaSpellIcon@@UAEXXZ = .text:0x004256C0; // type:function size:0x10 scope:global
?IsEffectReceiver@ArenaSpellIcon@@UAEIPAVEffectValues@@@Z = .text:0x004256D0; // type:function size:0x10 scope:global
?Save@ArenaSpellIcon@@UAEIAAVGameOSFile@@@Z = .text:0x004256E0; // type:function size:0xF0 scope:global
?Load@ArenaSpellIcon@@UAEIAAVGameOSFile@@@Z = .text:0x004257D0; // type:function size:0xF0 scope:global
crt_xc_fn_004258C0 = .text:0x004258C0; // type:function size:0x30
crt_xc_fn_004258F0 = .text:0x004258F0; // type:function size:0x10
fn_00425900 = .text:0x00425900; // type:function size:0x20
?GetMesh@GMobileObjectInfo@@UBEIXZ = .text:0x00425920; // type:function size:0x10 scope:global
?GetBaseInfo@GArrowInfo@@UAEPAVGBaseInfo@@AAI@Z = .text:0x00425930; // type:function size:0x20 scope:global
??_GGArrowInfo@@UAEPAXI@Z = .text:0x00425980; // type:function size:0x30 scope:global
?ValidForPlaceInHand@Mobile@@UAEIPAVGInterfaceStatus@@@Z = .text:0x00425B00; // type:function size:0x10 scope:global
?GetXAngle@MobileObject@@UAEMXZ = .text:0x00425B10; // type:function size:0x10 scope:global
?GetZAngle@MobileObject@@UAEMXZ = .text:0x00425B20; // type:function size:0x10 scope:global
?CanBePickedUp@MobileObject@@UAEIXZ = .text:0x00425B30; // type:function size:0x10 scope:global
?GetMesh@MobileObject@@UBEHXZ = .text:0x00425B40; // type:function size:0x10 scope:global
?GetTastiness@MobileObject@@UAEIXZ = .text:0x00425B50; // type:function scope:global
?GetCreatureMimicType@MobileObject@@UAEIXZ = .text:0x00425B60; // type:function size:0x10 scope:global
?CanBeUsedToHoldWater@MobileObject@@UAEIPAVCreature@@@Z = .text:0x00425B70; // type:function size:0x20 scope:global
?CanBeStompedOnByCreature@MobileObject@@UAEIPAVCreature@@@Z = .text:0x00425B90; // type:function size:0x10 scope:global
?CanBeThrownInTheSeaPlayfully@MobileObject@@UAEIPAVCreature@@@Z = .text:0x00425BA0; // type:function size:0x10 scope:global
?CanBePlayedWithByCreature@MobileObject@@UAEIPAVCreature@@@Z = .text:0x00425BB0; // type:function size:0x10 scope:global
?IsMobileObject@MobileObject@@UAEIXZ = .text:0x00425BC0; // type:function size:0x10 scope:global
?GetSaveType@MobileObject@@UAEIXZ = .text:0x00425BD0; // type:function size:0x10 scope:global
?GetDebugText@MobileObject@@UAEPADXZ = .text:0x00425BE0; // type:function size:0x10 scope:global
?GetPlayer@Arrow@@UAEPAVGPlayer@@XZ = .text:0x00425BF0; // type:function size:0x10 scope:global
??_GArrow@@UAEPAXI@Z = .text:0x00425C00; // type:function scope:global
crt_xc_fn_00425C20 = .text:0x00425C20; // type:function size:0x30
?CanBeCrushed@Object@@UAEIXZ = .text:0x00425C50; // type:function size:0x10 scope:global
?CanBeFrighteningToCreature@Object@@UAEIPAVCreature@@@Z = .text:0x00425C60; // type:function size:0x10 scope:global
crt_xc_fn_00425C70 = .text:0x00425C70; // type:function size:0x30
crt_xc_fn_00425CA0 = .text:0x00425CA0; // type:function size:0x30
crt_xc_fn_00425CD0 = .text:0x00425CD0; // type:function size:0x30
fn_00425D00 = .text:0x00425D00; // type:function size:0x40
?GetPlayer@TownArtifact@@UAEPAVGPlayer@@XZ = .text:0x00425D40; // type:function size:0x10 scope:global
?SetPlayer@TownArtifact@@UAEXPAVGPlayer@@@Z = .text:0x00425D50; // type:function size:0xA scope:global
?GetTown@TownArtifact@@UAEPAVTown@@XZ = .text:0x00425D60; // type:function size:0x10 scope:global
?GetSaveType@TownArtifact@@UAEIXZ = .text:0x00425D70; // type:function size:0x10 scope:global
??_GTownArtifact@@UAEPAXI@Z = .text:0x00425D80; // type:function size:0x20 scope:global
?GetDebugText@GameThing@@QAEPADXZ = .text:0x00425DA0; // type:function size:0x10 scope:global
fn_00425DB0 = .text:0x00425DB0; // type:function size:0x40
fn_00425DF0 = .text:0x00425DF0; // type:function size:0x80
?ToBeDeleted@TownArtifact@@UAEXH@Z = .text:0x00425E70; // type:function size:0x90 scope:global
fn_00425F00 = .text:0x00425F00; // type:function size:0x20
?CreateParticleEffectIfNecessary@TownArtifact@@QAEXXZ = .text:0x00425F20; // type:function size:0x90
fn_00425FB0 = .text:0x00425FB0; // type:function size:0xD0
fn_00426080 = .text:0x00426080; // type:function size:0x80
fn_00426100 = .text:0x00426100; // type:function size:0x30
fn_00426130 = .text:0x00426130; // type:function size:0x100
?RemoveFromTown@TownArtifact@@QAEXXZ = .text:0x00426230; // type:function size:0xA0
?GetVillagerActivityDesire@TownArtifact@@UAEMPAVVillager@@@Z = .text:0x004262D0; // type:function size:0x100 scope:global
fn_004263D0 = .text:0x004263D0; // type:function size:0xA0
?SetVillagerActivity@TownArtifact@@UAEIPAVVillager@@@Z = .text:0x00426470; // type:function size:0x130 scope:global
?Save@TownArtifact@@UAEIAAVGameOSFile@@@Z = .text:0x004265A0; // type:function size:0x120 scope:global
?Load@TownArtifact@@UAEIAAVGameOSFile@@@Z = .text:0x004266C0; // type:function size:0x120 scope:global
?ResolveLoad@TownArtifact@@QAEXXZ = .text:0x004267E0; // type:function size:0x10
fn_004267F0 = .text:0x004267F0; // type:function size:0x20
fn_00426820 = .text:0x00426820; // type:function size:0x40
fn_00426860 = .text:0x00426860; // type:function size:0x20
fn_00426880 = .text:0x00426880; // type:function size:0x30
fn_004268B0 = .text:0x004268B0; // type:function size:0x30
?GetArtifactImpressiveModifier@Object@@QAEXXZ = .text:0x004268E0; // type:function size:0xE0
?SaveObject@TownArtifact@@QAEXAAVLHOSFile@@ABVMapCoords@@@Z = .text:0x004269C0; // type:function size:0xC0
fn_00426A80 = .text:0x00426A80; // type:function size:0x40
crt_xc_fn_00426AC0 = .text:0x00426AC0; // type:function size:0x30
crt_xc_fn_00426AF0 = .text:0x00426AF0; // type:function size:0x30
crt_xc_fn_00426B20 = .text:0x00426B20; // type:function size:0x1B
fn_00426C80 = .text:0x00426C80; // type:function size:0x1B
fn_00426CA0 = .text:0x00426CA0; // type:function size:0x90
?IsInstalled@GAudio@@QAEXXZ = .text:0x00426D30; // type:function size:0x3
_?LHWaveIsInstalled@LH_AudioSystem@@QAEHXZ = .text:0x00426D33; // type:function size:0x6
fn_00426D40 = .text:0x00426D40; // type:function
?GetSaveType@GAudio@@UAEIXZ = .text:0x00426F80; // type:function size:0x10 scope:global
?GetDebugText@GAudio@@UAEPADXZ = .text:0x00426F90; // type:function size:0x10 scope:global
??_GGAudio@@UAEPAXI@Z = .text:0x00426FA0; // type:function size:0x40 scope:global
?ToBeDeleted@GAudio@@UAEXH@Z = .text:0x00426FE0; // type:function size:0xA0 scope:global
?ProcessAudioGameTurn@GAudio@@QAEXXZ = .text:0x00427080; // type:function size:0x50
fn_004270D0 = .text:0x004270D0; // type:function size:0x12A
fn_00427265 = .text:0x00427265; // type:function size:0x1AB
fn_00427410 = .text:0x00427410; // type:function size:0x20
fn_00427430 = .text:0x00427430; // type:function size:0x30
fn_00427460 = .text:0x00427460; // type:function size:0x130
fn_00427590 = .text:0x00427590; // type:function size:0xD0
fn_00427660 = .text:0x00427660; // type:function size:0x130
?ProcessChantMusic@GAudio@@QAEXXZ = .text:0x00427790; // type:function size:0x210
?ControlCallback@LoginBox@@QAEXHPAVSetupBox@@PAVSetupControl@@HH@Z = .text:0x004279C0; // type:function size:0x1A0
?ProcessCitadelMusic@GAudio@@QAEXXZ = .text:0x00427B60; // type:function size:0x130
fn_00427C90 = .text:0x00427C90; // type:function size:0x10
fn_00427CA0 = .text:0x00427CA0; // type:function size:0x150
?ProcessMusic@GAudio@@QAEXXZ = .text:0x00427DF0; // type:function size:0xD0
?ProcessCreatureDanceMusic@GAudio@@QAEXXZ = .text:0x00427EC0; // type:function size:0x2D0
fn_00428190 = .text:0x00428190; // type:function size:0x30
fn_004281C0 = .text:0x004281C0; // type:function size:0x70
fn_00428230 = .text:0x00428230; // type:function size:0x20
fn_00428250 = .text:0x00428250; // type:function size:0x5B
fn_004282B0 = .text:0x004282B0; // type:function size:0x40
?GetWideScreenControl@HelpSystem@@QBEXXZ = .text:0x004282F0; // type:function size:0x20
?Save@GAudio@@UAEIAAVGameOSFile@@@Z = .text:0x00428310; // type:function size:0x170 scope:global
?Load@GAudio@@UAEIAAVGameOSFile@@@Z = .text:0x00428480; // type:function size:0x180 scope:global
fn_00428620 = .text:0x00428620; // type:function size:0x20
fn_00428640 = .text:0x00428640; // type:function size:0x20
fn_00428660 = .text:0x00428660; // type:function size:0x20
fn_00428680 = .text:0x00428680; // type:function size:0x3
_?LHSampleGetMasterVolume@LH_AudioSystem@@QAEKXZ = .text:0x00428683; // type:function size:0x6
fn_00428690 = .text:0x00428690; // type:function
_?LHMusicGetMasterVolume@LH_AudioSystem@@QAEJXZ = .text:0x00428693; // type:function size:0x6
fn_004286A0 = .text:0x004286A0; // type:function
fn_004286C0 = .text:0x004286C0; // type:function size:0x20
_?LHMusicIsActive@LH_AudioSystem@@QAEHXZ = .text:0x004286E3; // type:function size:0x6
_?Shutdown@LH_AudioSystem@@QAEXXZ = .text:0x00428713; // type:function size:0x6
fn_00428740 = .text:0x00428740; // type:function size:0x20
fn_00428790 = .text:0x00428790; // type:function size:0x30
?RedbookGetHandle@GAudio@@QAEXXZ = .text:0x004287C0; // type:function size:0x3
_?LHRedbookGetHandle@LH_AudioSystem@@QAEIXZ = .text:0x004287C3; // type:function size:0x6
_?LHSampleStopAll@LH_AudioSystem@@QAEXXZ = .text:0x004287D3; // type:function size:0x6
fn_004287E0 = .text:0x004287E0; // type:function
fn_00428800 = .text:0x00428800; // type:function size:0x20
crt_xc_fn_00428820 = .text:0x00428820; // type:function size:0x30
?CalcKey@AutoVoiceParams@@QAEXPAVVoiceKey@@MMPAFHMPAMH@Z = .text:0x00428850; // type:function size:0x230
fn_00428A80 = .text:0x00428A80; // type:function size:0x70
?Analyse@AudioAnalyse@@QAEXPAFPAMH@Z = .text:0x00428C60; // type:function size:0xF0
?four1@AudioAnalyse@@QAEXPAMHH@Z = .text:0x00428D50; // type:function size:0x1A0
?InitAtmos@GAudio@@QAEXXZ = .text:0x00428EF0; // type:function size:0x40 scope:global
fn_00428F30 = .text:0x00428F30; // type:function size:0x60
?ReleaseAtmosSoundBanks@GAudio@@QAEXXZ = .text:0x00428F90; // type:function size:0x50 scope:global
?ProcessAtmosBanks@GAudio@@QAEXXZ = .text:0x00428FE0; // type:function size:0x120
fn_00429100 = .text:0x00429100; // type:function size:0x4A
crt_xc_fn_00429150 = .text:0x00429150; // type:function size:0x30
fn_00429180 = .text:0x00429180; // type:function size:0x30
fn_004291B0 = .text:0x004291B0; // type:function size:0x80
?GetSaveType@ThingMusicInfo@@UAEIXZ = .text:0x00429300; // type:function size:0x10 scope:global
?GetDebugText@ThingMusicInfo@@UAEPADXZ = .text:0x00429310; // type:function size:0x10 scope:global
??_GThingMusicInfo@@UAEPAXI@Z = .text:0x00429320; // type:function size:0x20 scope:global
fn_00429340 = .text:0x00429340; // type:function size:0x70
fn_004293E0 = .text:0x004293E0; // type:function size:0x40
fn_00429420 = .text:0x00429420; // type:function size:0xE0
fn_00429500 = .text:0x00429500; // type:function size:0x180
fn_00429700 = .text:0x00429700; // type:function size:0x90
fn_00429790 = .text:0x00429790; // type:function size:0xF0
?Save@ThingMusicInfo@@UAEIAAVGameOSFile@@@Z = .text:0x00429950; // type:function size:0x190 scope:global
?Load@ThingMusicInfo@@UAEIAAVGameOSFile@@@Z = .text:0x00429AE0; // type:function size:0x180 scope:global
crt_xc_fn_00429C60 = .text:0x00429C60; // type:function size:0x30
crt_xc_fn_00429C90 = .text:0x00429C90; // type:function size:0x1B
fn_00429CB0 = .text:0x00429CB0; // type:function size:0x30
?IsInsideCitadel@GAudio@@QBEXXZ = .text:0x00429D20; // type:function size:0x40
?PlaySoundEffect@GAudio@@QAEXPAVBase@@IIIHHVAUDIO_SFX_BANK_TYPE@@@Z = .text:0x00429D60; // type:function size:0x40 scope:global
?PlaySoundEffect@GAudio@@QAEXPAVBase@@IIIHHPAVLH_AudioBank@@@Z = .text:0x00429DA0; // type:function size:0x90
?PlaySoundEffect@GAudio@@QAEXPAULH_SamplePlayOptions@@@Z = .text:0x00429E30; // type:function size:0x1D0 scope:global
fn_0042A000 = .text:0x0042A000; // type:function size:0x40
?PlaySoundEffect@GAudio@@QAEXPAVBase@@ABVLHPoint@@IIIHHPAVLH_AudioBank@@@Z = .text:0x0042A040; // type:function size:0xC0
?PlaySoundEffect@GAudio@@QAEXPAVBase@@ABVLHPoint@@ABV3@I_NIIHHPAVLH_AudioBank@@@Z = .text:0x0042A100; // type:function size:0xD0
fn_0042A1D0 = .text:0x0042A1D0; // type:function size:0x1B
?StopPlayingSoundEffect@GAudio@@QBEXIIVAUDIO_SFX_BANK_TYPE@@@Z = .text:0x0042A210; // type:function size:0x30 scope:global
fn_0042A240 = .text:0x0042A240; // type:function size:0x20
fn_0042A280 = .text:0x0042A280; // type:function size:0x30
fn_0042A2B0 = .text:0x0042A2B0; // type:function size:0x20
fn_0042A2D0 = .text:0x0042A2D0; // type:function size:0x1B
fn_0042A310 = .text:0x0042A310; // type:function size:0x1B
?ReleaseLoopOnSoundEffect@GAudio@@QBEXPAVBase@@IVAUDIO_SFX_BANK_TYPE@@@Z = .text:0x0042A330; // type:function size:0x20 scope:global
fn_0042A350 = .text:0x0042A350; // type:function size:0x20
fn_0042A370 = .text:0x0042A370; // type:function size:0x20
fn_0042A390 = .text:0x0042A390; // type:function size:0x40
fn_0042A3D0 = .text:0x0042A3D0; // type:function size:0x40
?GetGSFXSampleMaxDistance@GAudio@@QBEXIPAVLH_AudioBank@@@Z = .text:0x0042A430; // type:function size:0x30
fn_0042A460 = .text:0x0042A460; // type:function size:0x30
?SamplePlayAnimEffect@GAudio@@QAEIPAXMPAJHPAULH_AudioBank@@HMM@Z = .text:0x0042A4B0; // type:function size:0x13A scope:global
crt_xc_fn_0042A620 = .text:0x0042A620; // type:function size:0x30
fn_0042A6D0 = .text:0x0042A6D0; // type:function size:0x4BA
fn_0042ACC0 = .text:0x0042ACC0; // type:function size:0x179
?BuildAudioTags@AudioTag@@QAEXPAXHPAPAV1@@Z = .text:0x0042AE70; // type:function size:0x450
crt_xc_fn_0042B2C0 = .text:0x0042B2C0; // type:function size:0x30
crt_xc_fn_0042B2F0 = .text:0x0042B2F0; // type:function size:0x30
crt_xc_fn_0042B320 = .text:0x0042B320; // type:function size:0x1B
crt_xc_fn_0042B340 = .text:0x0042B340; // type:function size:0x10
fn_0042B350 = .text:0x0042B350; // type:function size:0x20
?GetMesh@GObjectInfo@@UBEIXZ = .text:0x0042B370; // type:function size:0x10 scope:global
?GetBaseInfo@GObjectInfo@@UAEPAVGBaseInfo@@AAI@Z = .text:0x0042B380; // type:function size:0x20 scope:global
??_GGLeashSelectorInfo@@UAEPAXI@Z = .text:0x0042B3D0; // type:function size:0x30 scope:global
fn_0042B400 = .text:0x0042B400; // type:function size:0x60
_load_variables = .text:0x0042B460; // type:function size:0x210B scope:global
fn_0042D570 = .text:0x0042D570; // type:function size:0x70
fn_0042D5E0 = .text:0x0042D5E0; // type:function size:0x90
fn_0042D670 = .text:0x0042D670; // type:function size:0x40
fn_0042D6B0 = .text:0x0042D6B0; // type:function size:0x4A
?GetBaseInfo@GMagicInfo@@UAEPAVGBaseInfo@@AAI@Z = .text:0x0042D700; // type:function size:0x20 scope:global
fn_0042D720 = .text:0x0042D720; // type:function size:0x60
fn_0042D780 = .text:0x0042D780; // type:function size:0x80
fn_0042D800 = .text:0x0042D800; // type:function size:0x60
fn_0042D860 = .text:0x0042D860; // type:function size:0x80
?CanCast@GMagicForestInfo@@QBEXABVMapCoords@@PAVGameThing@@@Z = .text:0x0042D8E0; // type:function size:0x10
fn_0042D8F0 = .text:0x0042D8F0; // type:function size:0xA0
fn_0042D990 = .text:0x0042D990; // type:function size:0xCB
fn_0042DA60 = .text:0x0042DA60; // type:function size:0x90
fn_0042DAF0 = .text:0x0042DAF0; // type:function size:0xC0
fn_0042DBB0 = .text:0x0042DBB0; // type:function size:0x70
fn_0042DC20 = .text:0x0042DC20; // type:function size:0x90
fn_0042DCB0 = .text:0x0042DCB0; // type:function size:0x60
fn_0042DD10 = .text:0x0042DD10; // type:function size:0x80
fn_0042DD90 = .text:0x0042DD90; // type:function size:0x70
fn_0042DE00 = .text:0x0042DE00; // type:function size:0x80
fn_0042DE80 = .text:0x0042DE80; // type:function size:0x60
fn_0042DEE0 = .text:0x0042DEE0; // type:function size:0x7B
fn_0042DF60 = .text:0x0042DF60; // type:function size:0x40
fn_0042DFA0 = .text:0x0042DFA0; // type:function size:0x50
fn_0042DFF0 = .text:0x0042DFF0; // type:function size:0x40
fn_0042E030 = .text:0x0042E030; // type:function size:0x50
fn_0042E080 = .text:0x0042E080; // type:function size:0x40
fn_0042E0C0 = .text:0x0042E0C0; // type:function size:0x50
??0LHFile@@QAE@XZ = .text:0x0042E110; // type:function size:0x50 scope:global
?ResetData@LHFile@@QAEIXZ = .text:0x0042E160; // type:function size:0x30 scope:global
fn_0042E190 = .text:0x0042E190; // type:function size:0xA0
fn_0042E230 = .text:0x0042E230; // type:function size:0x70
fn_0042E2A0 = .text:0x0042E2A0; // type:function size:0xE0
fn_0042E380 = .text:0x0042E380; // type:function size:0x80
fn_0042E400 = .text:0x0042E400; // type:function size:0x40
fn_0042E440 = .text:0x0042E440; // type:function size:0x4A
fn_0042E490 = .text:0x0042E490; // type:function size:0x90
?LoadBinary@GAbodeInfo@@QAEXPAVLHFile@@@Z = .text:0x0042E520; // type:function size:0xC0 scope:global
??0GBaseInfo@@QAE@XZ = .text:0x0042E5E0; // type:function size:0x20 scope:global
??_GGBaseInfo@@UAEPAXI@Z = .text:0x0042E600; // type:function size:0x20 scope:global
fn_0042E620 = .text:0x0042E620; // type:function size:0xA0
fn_0042E6C0 = .text:0x0042E6C0; // type:function size:0xDA
fn_0042E7A0 = .text:0x0042E7A0; // type:function size:0x40
fn_0042E7E0 = .text:0x0042E7E0; // type:function size:0x50
fn_0042E830 = .text:0x0042E830; // type:function size:0x90
fn_0042E8C0 = .text:0x0042E8C0; // type:function size:0xC0
fn_0042E980 = .text:0x0042E980; // type:function size:0x50
fn_0042E9D0 = .text:0x0042E9D0; // type:function size:0x90
fn_0042EA60 = .text:0x0042EA60; // type:function size:0x50
fn_0042EAB0 = .text:0x0042EAB0; // type:function size:0xC0
fn_0042EB70 = .text:0x0042EB70; // type:function size:0xA0
fn_0042EC10 = .text:0x0042EC10; // type:function size:0xE0
fn_0042ECF0 = .text:0x0042ECF0; // type:function size:0x60
fn_0042ED50 = .text:0x0042ED50; // type:function size:0x7B
fn_0042EDD0 = .text:0x0042EDD0; // type:function size:0xA0
fn_0042EE70 = .text:0x0042EE70; // type:function size:0xD0
fn_0042EF40 = .text:0x0042EF40; // type:function size:0xB0
fn_0042EFF0 = .text:0x0042EFF0; // type:function size:0xE0
fn_0042F0D0 = .text:0x0042F0D0; // type:function size:0xA0
fn_0042F170 = .text:0x0042F170; // type:function size:0xD0
fn_0042F240 = .text:0x0042F240; // type:function size:0x70
fn_0042F2B0 = .text:0x0042F2B0; // type:function size:0x90
fn_0042F340 = .text:0x0042F340; // type:function size:0x70
fn_0042F3B0 = .text:0x0042F3B0; // type:function size:0x90
fn_0042F440 = .text:0x0042F440; // type:function size:0xA0
fn_0042F4E0 = .text:0x0042F4E0; // type:function size:0xD0
fn_0042F5B0 = .text:0x0042F5B0; // type:function size:0x70
fn_0042F620 = .text:0x0042F620; // type:function size:0x90
fn_0042F6B0 = .text:0x0042F6B0; // type:function size:0x50
fn_0042F700 = .text:0x0042F700; // type:function size:0x50
fn_0042F750 = .text:0x0042F750; // type:function size:0x4A
fn_0042F7A0 = .text:0x0042F7A0; // type:function size:0x50
fn_0042F7F0 = .text:0x0042F7F0; // type:function size:0x60
fn_0042F850 = .text:0x0042F850; // type:function size:0xA0
fn_0042F8F0 = .text:0x0042F8F0; // type:function size:0xC0
fn_0042F9B0 = .text:0x0042F9B0; // type:function size:0x40
fn_0042F9F0 = .text:0x0042F9F0; // type:function size:0x4A
fn_0042FA40 = .text:0x0042FA40; // type:function size:0x90
fn_0042FAD0 = .text:0x0042FAD0; // type:function size:0xC0
fn_0042FB90 = .text:0x0042FB90; // type:function size:0x1B
fn_0042FBB0 = .text:0x0042FBB0; // type:function size:0x90
fn_0042FC40 = .text:0x0042FC40; // type:function size:0x2A
fn_0042FC70 = .text:0x0042FC70; // type:function size:0x50
fn_0042FCC0 = .text:0x0042FCC0; // type:function size:0x80
??_GLHReleasedOSFile@@UAEPAXI@Z = .text:0x0042FD40; // type:function size:0x20 scope:global
fn_0042FD60 = .text:0x0042FD60; // type:function size:0x1B0
fn_0042FF10 = .text:0x0042FF10; // type:function size:0x130
fn_00430040 = .text:0x00430040; // type:function size:0x1A0
fn_004301E0 = .text:0x004301E0; // type:function size:0x180
fn_00430360 = .text:0x00430360; // type:function size:0x70
fn_004303D0 = .text:0x004303D0; // type:function size:0x90
fn_00430460 = .text:0x00430460; // type:function size:0x190
fn_004305F0 = .text:0x004305F0; // type:function size:0x1B0
fn_004307A0 = .text:0x004307A0; // type:function size:0x1DA
fn_00430980 = .text:0x00430980; // type:function size:0x1C0
fn_00430B40 = .text:0x00430B40; // type:function size:0x1D0
fn_00430D10 = .text:0x00430D10; // type:function size:0x180
fn_00430E90 = .text:0x00430E90; // type:function size:0x1B0
fn_00431040 = .text:0x00431040; // type:function size:0x1C0
fn_00431200 = .text:0x00431200; // type:function size:0x140
fn_00431340 = .text:0x00431340; // type:function size:0x180
fn_004314C0 = .text:0x004314C0; // type:function size:0x1C0
fn_00431680 = .text:0x00431680; // type:function size:0x90
fn_00431710 = .text:0x00431710; // type:function size:0xC0
fn_004317D0 = .text:0x004317D0; // type:function size:0x1D0
fn_004319A0 = .text:0x004319A0; // type:function size:0x130
fn_00431AD0 = .text:0x00431AD0; // type:function size:0x130
fn_00431C00 = .text:0x00431C00; // type:function size:0x1B0
fn_00431DB0 = .text:0x00431DB0; // type:function size:0x1B0
fn_00431F60 = .text:0x00431F60; // type:function size:0x1B0
fn_00432110 = .text:0x00432110; // type:function size:0x130
fn_00432240 = .text:0x00432240; // type:function size:0x130
fn_00432370 = .text:0x00432370; // type:function size:0x130
fn_004324A0 = .text:0x004324A0; // type:function size:0x140
fn_004325E0 = .text:0x004325E0; // type:function size:0x130
fn_00432710 = .text:0x00432710; // type:function size:0x130
fn_00432840 = .text:0x00432840; // type:function size:0x140
fn_00432980 = .text:0x00432980; // type:function size:0x130
fn_00432AB0 = .text:0x00432AB0; // type:function size:0x140
fn_00432BF0 = .text:0x00432BF0; // type:function size:0x140
fn_00432D30 = .text:0x00432D30; // type:function size:0x140
fn_00432E70 = .text:0x00432E70; // type:function size:0x130
fn_00432FA0 = .text:0x00432FA0; // type:function size:0x110
fn_004330B0 = .text:0x004330B0; // type:function size:0x130
fn_004331E0 = .text:0x004331E0; // type:function size:0x130
fn_00433310 = .text:0x00433310; // type:function size:0x1A0
fn_004334B0 = .text:0x004334B0; // type:function size:0x140
fn_004335F0 = .text:0x004335F0; // type:function size:0x130
fn_00433720 = .text:0x00433720; // type:function size:0x110
fn_00433830 = .text:0x00433830; // type:function size:0x100
fn_00433930 = .text:0x00433930; // type:function size:0x1C0
fn_00433AF0 = .text:0x00433AF0; // type:function size:0x1A0
fn_00433C90 = .text:0x00433C90; // type:function size:0x130
fn_00433DC0 = .text:0x00433DC0; // type:function size:0x140
??$LoadIt@VGVillagerStateTableInfo@@@@YAXPAVLoaderAnon@@PADPAVGVillagerStateTableInfo@@K_NPAVLHFile@@@Z = .text:0x00433F00; // type:function size:0x140 scope:global
fn_00434040 = .text:0x00434040; // type:function size:0x140
fn_00434180 = .text:0x00434180; // type:function size:0x1A0
fn_00434320 = .text:0x00434320; // type:function size:0x1B0
fn_004344D0 = .text:0x004344D0; // type:function size:0x1B0
fn_00434680 = .text:0x00434680; // type:function size:0x130
fn_004347B0 = .text:0x004347B0; // type:function size:0x140
fn_004348F0 = .text:0x004348F0; // type:function size:0x130
fn_00434A20 = .text:0x00434A20; // type:function size:0x130
fn_00434B50 = .text:0x00434B50; // type:function size:0x1CB
fn_00434D20 = .text:0x00434D20; // type:function size:0x1D0
fn_00434EF0 = .text:0x00434EF0; // type:function size:0x1B0
fn_004350A0 = .text:0x004350A0; // type:function size:0x130
fn_004351D0 = .text:0x004351D0; // type:function size:0x12B
fn_00435300 = .text:0x00435300; // type:function size:0x110
fn_00435410 = .text:0x00435410; // type:function size:0x110
??0GMagicInfo@@QAE@XZ = .text:0x00435520; // type:function size:0x20 scope:global
fn_00435540 = .text:0x00435540; // type:function size:0x20
fn_00435560 = .text:0x00435560; // type:function size:0x20
fn_00435580 = .text:0x00435580; // type:function size:0x20
fn_004355A0 = .text:0x004355A0; // type:function size:0x20
fn_004355C0 = .text:0x004355C0; // type:function size:0x20
fn_004355E0 = .text:0x004355E0; // type:function size:0x20
fn_00435600 = .text:0x00435600; // type:function size:0x20
fn_00435620 = .text:0x00435620; // type:function size:0x20
fn_00435640 = .text:0x00435640; // type:function size:0x20
fn_00435660 = .text:0x00435660; // type:function size:0x20
??_GGMagicInfo@@UAEPAXI@Z = .text:0x00435680; // type:function size:0x20 scope:global
??_GGMagicHealInfo@@UAEPAXI@Z = .text:0x004356A0; // type:function size:0x20 scope:global
??_GGMagicTeleportInfo@@UAEPAXI@Z = .text:0x004356C0; // type:function size:0x20 scope:global
??_GGMagicForestInfo@@UAEPAXI@Z = .text:0x004356E0; // type:function size:0x20 scope:global
??_GGMagicResourceInfo@@UAEPAXI@Z = .text:0x00435700; // type:function size:0x20 scope:global
fn_00435720 = .text:0x00435720; // type:function size:0x20
??_GGMagicStormAndTornadoInfo@@UAEPAXI@Z = .text:0x00435740; // type:function size:0x20 scope:global
fn_00435760 = .text:0x00435760; // type:function size:0x20
??_GGMagicShieldInfo@@UAEPAXI@Z = .text:0x00435780; // type:function size:0x20 scope:global
??_GGMagicWaterInfo@@UAEPAXI@Z = .text:0x004357A0; // type:function size:0x20 scope:global
??_GGMagicFlockFlyingInfo@@UAEPAXI@Z = .text:0x004357C0; // type:function size:0x20 scope:global
??_GGMagicFlockGroundInfo@@UAEPAXI@Z = .text:0x004357E0; // type:function size:0x20 scope:global
??_GGMagicCreatureSpellInfo@@UAEPAXI@Z = .text:0x00435800; // type:function size:0x30 scope:global
??_GGMagicObjectInfo@@UAEPAXI@Z = .text:0x00435830; // type:function size:0x20 scope:global
??_GGMagicRadiusSpellInfo@@UAEPAXI@Z = .text:0x00435850; // type:function size:0x20 scope:global
crt_xc_fn_00435870 = .text:0x00435870; // type:function size:0x30
crt_xc_fn_004358A0 = .text:0x004358A0; // type:function size:0x30
crt_xc_fn_004358D0 = .text:0x004358D0; // type:function size:0x30
crt_xc_fn_00435900 = .text:0x00435900; // type:function size:0x10
fn_00435910 = .text:0x00435910; // type:function size:0x20
?GetBaseInfo@GBallInfo@@UAEPAVGBaseInfo@@AAI@Z = .text:0x00435930; // type:function size:0x20 scope:global
??_GGBallInfo@@UAEPAXI@Z = .text:0x00435980; // type:function size:0x30 scope:global
??0Ball@@QAE@ABVMapCoords@@PBVGBallInfo@@@Z = .text:0x004359B0; // type:function size:0x100 scope:global
?CanBePickedUpByCreature@Ball@@UAEIPAVCreature@@@Z = .text:0x00435AB0; // type:function size:0x10 scope:global
?GetSaveType@Ball@@UAEIXZ = .text:0x00435AC0; // type:function size:0x10 scope:global
?GetDebugText@Ball@@UAEPADXZ = .text:0x00435AD0; // type:function size:0x10 scope:global
??_GBall@@UAEPAXI@Z = .text:0x00435AE0; // type:function size:0x30 scope:global
fn_00435B10 = .text:0x00435B10; // type:function size:0x80
?Create@Ball@@QAEPAV1@ABUMapCoords@@PBVGBallInfo@@GMM@Z = .text:0x00435B90; // type:function size:0x70 scope:global
fn_00435C00 = .text:0x00435C00; // type:function size:0x30
?Process@Ball@@UAEIXZ = .text:0x00435C30; // type:function size:0x10 scope:global
?KickBallAtDestination@Ball@@QAEXABVMapCoords@@MH@Z = .text:0x00435C40; // type:function size:0x1B0
fn_00435F30 = .text:0x00435F30; // type:function size:0x30
?GetPlayer@Ball@@UAEPAVGPlayer@@XZ = .text:0x00435F60; // type:function size:0x30 scope:global
fn_00436000 = .text:0x00436000; // type:function size:0x50
fn_00436050 = .text:0x00436050; // type:function size:0x30
?IsBallFree@Ball@@QAE_NXZ = .text:0x004360E0; // type:function size:0x10 scope:global
?GetPhysicsConstantsType@Ball@@UAEIXZ = .text:0x004360F0; // type:function size:0x10 scope:global
?GetScriptObjectType@Ball@@UAEIXZ = .text:0x00436100; // type:function size:0x10 scope:global
?Save@Ball@@UAEIAAVGameOSFile@@@Z = .text:0x00436110; // type:function size:0x150 scope:global
?Load@Ball@@UAEIAAVGameOSFile@@@Z = .text:0x00436260; // type:function size:0x150 scope:global
?IsToy@Ball@@UAEIPAVCreature@@@Z = .text:0x004363B0; // type:function size:0x10 scope:global
?IsToyBall@Ball@@UAEIPAVCreature@@@Z = .text:0x004363C0; // type:function size:0x10 scope:global
crt_xc_fn_004363D0 = .text:0x004363D0; // type:function size:0x30
crt_xc_fn_00436400 = .text:0x00436400; // type:function size:0x1B
crt_xc_fn_00436420 = .text:0x00436420; // type:function size:0x30
crt_xc_fn_00436450 = .text:0x00436450; // type:function size:0x10
fn_00436460 = .text:0x00436460; // type:function size:0x130
??2Base@@SAPAXIPBDI@Z = .text:0x004366F0; // type:function size:0x70 scope:global
fn_00436760 = .text:0x00436760; // type:function size:0x70
fn_00436870 = .text:0x00436870; // type:function size:0x70
??_UBase@@QAEXI@Z = .text:0x004368E0; // type:function size:0x80
??1Base@@UAE@XZ = .text:0x00436960; // type:function size:0x10 scope:global
??3Base@@SAXPAXI@Z = .text:0x00436970; // type:function size:0x60 scope:global
fn_004369D0 = .text:0x004369D0; // type:function size:0x60
fn_00436A50 = .text:0x00436A50; // type:function size:0x20
?GetIndexOffset@Base@@QBEXXZ = .text:0x00436A70; // type:function size:0x10
fn_00436A80 = .text:0x00436A80; // type:function size:0x10
?GetUniqueId@Base@@QAEXI@Z = .text:0x00436AB0; // type:function size:0x20
fn_00436AF0 = .text:0x00436AF0; // type:function size:0x30
?SetInfo@Base@@QBEXPAVBaseInfo@@@Z = .text:0x00436B20; // type:function size:0x30 scope:global
fn_00436B50 = .text:0x00436B50; // type:function size:0x30
?GetBase@BaseInfo@@QBEXXZ = .text:0x00436B80; // type:function size:0x20
fn_00436BA0 = .text:0x00436BA0; // type:function size:0x10
?Set@BaseInfo@@QAEXPAVBase@@@Z = .text:0x00436BB0; // type:function size:0x20 scope:global
?SetInfoID@GBaseInfo@@QAEXXZ = .text:0x00436BD0; // type:function size:0x30 scope:global
?GetInfoID@GBaseInfo@@QBEXXZ = .text:0x00436C00; // type:function size:0x2A
?GetInfoPtr@GBaseInfo@@SAPAV1@K@Z = .text:0x00436C30; // type:function size:0x30 scope:global
?GetDebugColor@GBaseInfo@@UBE?AVLHColor@@XZ = .text:0x00436C60; // type:function size:0x20 scope:global
crt_xc_fn_00437120 = .text:0x00437120; // type:function size:0x30
crt_xc_fn_00437150 = .text:0x00437150; // type:function size:0x30
crt_xc_fn_00437180 = .text:0x00437180; // type:function size:0x1B
fn_00437265 = .text:0x00437265; // type:function size:0xDB
fn_00437340 = .text:0x00437340; // type:function size:0xA0
fn_004373E0 = .text:0x004373E0; // type:function size:0x20
??0GAudio@@QAE@XZ = .text:0x00437A40; // type:function size:0x1C0
fn_00437C00 = .text:0x00437C00; // type:function size:0x60
crt_xc_fn_00437C60 = .text:0x00437C60; // type:function size:0x30
crt_xc_fn_00437C90 = .text:0x00437C90; // type:function size:0x1B
crt_xc_fn_00437CB0 = .text:0x00437CB0; // type:function size:0x30
crt_xc_fn_00437CE0 = .text:0x00437CE0; // type:function size:0x30
crt_xc_fn_00437D10 = .text:0x00437D10; // type:function size:0x1B
crt_xc_fn_00437D30 = .text:0x00437D30; // type:function size:0x10
fn_00437D40 = .text:0x00437D40; // type:function size:0x20
?GetBaseInfo@GBeliefInfo@@UAEPAVGBaseInfo@@AAI@Z = .text:0x00437D60; // type:function size:0x20 scope:global
??_GGBeliefInfo@@UAEPAXI@Z = .text:0x00437DB0; // type:function size:0x20 scope:global
fn_00437DD0 = .text:0x00437DD0; // type:function size:0x80
fn_00437E50 = .text:0x00437E50; // type:function size:0x20
?GetBeliefInPlayer@GBelief@@QAEMK@Z = .text:0x00437E70; // type:function size:0xB scope:global
?GetBeliefInPlayer@GBelief@@QAEXPAVGPlayer@@@Z = .text:0x00437E90; // type:function size:0x20
?AddToBelief@GBelief@@QAEXPAVGPlayer@@MPAVGameThingWithPos@@HVGUIDANCE_ALIGNMENT@@@Z = .text:0x00437EB0; // type:function size:0x90
?BeliefSFX@GGuidance@@QAEXAAVGInterfaceStatus@@AAVMapCoords@@MVGUIDANCE_ALIGNMENT@@@Z = .text:0x00437F40; // type:function size:0x90
?ReduceBelief@GBelief@@QAEXPAVGPlayer@@PAVTown@@M@Z = .text:0x00437FD0; // type:function size:0x90
fn_00438060 = .text:0x00438060; // type:function size:0x10
?ProcessOncePerTurn@GBelief@@QAEXXZ = .text:0x004380B0; // type:function size:0x220
?UpdatePosition@ValueSpinner@@QAEXM@Z = .text:0x004382D0; // type:function size:0x20
??_GValueSpinner@@QAEPAXI@Z = .text:0x004382F0; // type:function size:0x50
fn_00438340 = .text:0x00438340; // type:function size:0x90
fn_004383D0 = .text:0x004383D0; // type:function size:0x3A0
?DistanceChangeToBelief@GBelief@@SAMMM@Z = .text:0x00438770; // type:function size:0x20 scope:global
?AddToBoredomMultiplier@GBelief@@QAEXPAVReaction@@M@Z = .text:0x00438790; // type:function size:0x40
?SetBelief@GBelief@@QAEXIM@Z = .text:0x004387D0; // type:function size:0x30 scope:global
?DrawBelief@GBelief@@QAEXMPAVGameThingWithPos@@PAVGPlayer@@@Z = .text:0x00438800; // type:function size:0x110
fn_00438910 = .text:0x00438910; // type:function size:0xA0
?GetMaxBeliefMeNotIncluded@GBelief@@QAEXI@Z = .text:0x004389B0; // type:function size:0x50
fn_00438A20 = .text:0x00438A20; // type:function size:0x20
crt_xc_fn_00438BB0 = .text:0x00438BB0; // type:function size:0x30
crt_xc_fn_00438BE0 = .text:0x00438BE0; // type:function size:0x30
crt_xc_fn_00438C10 = .text:0x00438C10; // type:function size:0x10
fn_00438C20 = .text:0x00438C20; // type:function size:0x30
?GetMesh@GBigForestInfo@@UBEIXZ = .text:0x00438C50; // type:function size:0x10 scope:global
??_GGBigForestInfo@@UAEPAXI@Z = .text:0x00438CB0; // type:function size:0x30 scope:global
??0BigForest@@QAE@ABVMapCoords@@PBVGBigForestInfo@@IMM@Z = .text:0x00438CE0; // type:function size:0x90 scope:global
?IsRepaired@MultiMapFixed@@UAEIXZ = .text:0x00438D70; // type:function size:0x10 scope:global
?IsBuilt@MultiMapFixed@@UAEIXZ = .text:0x00438D80; // type:function size:0x10 scope:global
?ConvertToPlanned@MultiMapFixed@@UAEPAVPlannedMultiMapFixed@@XZ = .text:0x00438D90; // type:function size:0x10 scope:global
?Get3DType@BigForest@@UAE?AW4LH3DObject__ObjectType@@XZ = .text:0x00438DA0; // type:function size:0x10 scope:global
?ValidForPlaceInHand@BigForest@@UAEIPAVGInterfaceStatus@@@Z = .text:0x00438DB0; // type:function size:0x10 scope:global
?IsTuggable@BigForest@@UAEIXZ = .text:0x00438DC0; // type:function size:0x10 scope:global
?VillagerMustAvoid@BigForest@@UAEIPAVVillager@@@Z = .text:0x00438DD0; // type:function size:0x10 scope:global
?GetCarriedTreeType@BigForest@@UAEIXZ = .text:0x00438DE0; // type:function size:0xA scope:global
?GetMesh@BigForest@@UBEHXZ = .text:0x00438DF0; // type:function size:0x10 scope:global
?GetSaveType@BigForest@@UAEIXZ = .text:0x00438E00; // type:function scope:global
?GetDebugText@BigForest@@UAEPADXZ = .text:0x00438E10; // type:function size:0x10 scope:global
??_GBigForest@@UAEPAXI@Z = .text:0x00438E20; // type:function size:0x30 scope:global
fn_00438E50 = .text:0x00438E50; // type:function size:0x10
?ToBeDeleted@BigForest@@UAEXH@Z = .text:0x00438E60; // type:function size:0x5B scope:global
?Create@BigForest@@SAPAV1@ABUMapCoords@@PBVGBigForestInfo@@KMM@Z = .text:0x00438EC0; // type:function size:0x90 scope:global
?CreatureMustAvoid@BigForest@@UAE_NPAVCreature@@@Z = .text:0x00438F50; // type:function size:0x10 scope:global
?Draw@BigForest@@UAEXXZ = .text:0x00438F60; // type:function size:0x10 scope:global
?SaveObject@BigForest@@UAEIAAULHOSFile@@ABUMapCoords@@@Z = .text:0x00438F70; // type:function size:0xE0 scope:global
?CallVirtualFunctionsForCreation@BigForest@@UAEXABUMapCoords@@@Z = .text:0x00439050; // type:function size:0x50 scope:global
?InteractsWithPhysicsObjects@BigForest@@UAEIXZ = .text:0x004390A0; // type:function size:0x10 scope:global
?GetWoodValue@BigForest@@UAEMXZ = .text:0x004390B0; // type:function size:0x20 scope:global
?RemoveResource@BigForest@@UAEIW4RESOURCE_TYPE@@IPAVGInterfaceStatus@@PA_N@Z = .text:0x004390D0; // type:function size:0x150 scope:global
?AddTreeAround@BigForest@@QAEXXZ = .text:0x00439220; // type:function size:0x140
?GetArrivePos@BigForest@@QAEXPAVVillager@@@Z = .text:0x00439360; // type:function size:0x60
?InterfaceSetInMagicHand@BigForest@@UAEIPAVGInterfaceStatus@@@Z = .text:0x004393C0; // type:function size:0x70 scope:global
fn_00439430 = .text:0x00439430; // type:function size:0x40
?Save@BigForest@@UAEIAAVGameOSFile@@@Z = .text:0x00439470; // type:function size:0x70 scope:global
?Load@BigForest@@QAEXAAVGameOSFile@@@Z = .text:0x004394E0; // type:function size:0x70 scope:global
?GetDiscipleStateIfInteractedWith@BigForest@@UAEIPAVGInterfaceStatus@@PAVVillager@@@Z = .text:0x00439550; // type:function size:0x30 scope:global
?CreateCollideData@BigForest@@QAEXXZ = .text:0x00439580; // type:function size:0x10
crt_xc_fn_00439590 = .text:0x00439590; // type:function size:0x30
fn_004395C0 = .text:0x004395C0; // type:function size:0x4A
?GetXAngle@MobileStatic@@UAEMXZ = .text:0x00439610; // type:function size:0x10 scope:global
?GetZAngle@MobileStatic@@UAEMXZ = .text:0x00439620; // type:function size:0x10 scope:global
?CanBeStompedOnByCreature@MobileStatic@@UAEIPAVCreature@@@Z = .text:0x00439630; // type:function size:0x10 scope:global
?CanBePlayedWithByCreature@MobileStatic@@UAEIPAVCreature@@@Z = .text:0x00439640; // type:function size:0x10 scope:global
?CanBeThrownInTheSeaPlayfully@MobileStatic@@UAEIPAVCreature@@@Z = .text:0x00439650; // type:function size:0x10 scope:global
?GetTastiness@MobileStatic@@UAEIXZ = .text:0x00439660; // type:function size:0x10 scope:global
?CanBePickedUp@MobileStatic@@UAEIXZ = .text:0x00439670; // type:function size:0x10 scope:global
?GetMesh@MobileStatic@@UBEHXZ = .text:0x00439680; // type:function size:0x10 scope:global
?IsSolidToNewAbode@MobileStatic@@UAEIXZ = .text:0x00439690; // type:function scope:global
?IsFunctional@MobileStatic@@UAEIXZ = .text:0x004396A0; // type:function size:0x10 scope:global
?ApplyOnlyAfterReleased@MobileStatic@@UAEIXZ = .text:0x004396B0; // type:function scope:global
?ValidToApplyThisToMapCoord@MobileStatic@@UAEIPAVGInterfaceStatus@@ABUMapCoords@@@Z = .text:0x004396C0; // type:function size:0x10 scope:global
?CanBeUsedForThrowingDamageByCreature@MobileStatic@@UAEIPAVCreature@@@Z = .text:0x004396D0; // type:function size:0x20 scope:global
?IsMobileStatic@MobileStatic@@UAEIXZ = .text:0x004396F0; // type:function size:0x10 scope:global
?IsCastShadowAtNight@MobileStatic@@UAEIXZ = .text:0x00439700; // type:function size:0x10 scope:global
?IsResourceStore@Rock@@UAE_NW4RESOURCE_TYPE@@@Z = .text:0x00439710; // type:function size:0x10 scope:global
?SetPlayer@Rock@@UAEXPAVGPlayer@@@Z = .text:0x00439720; // type:function size:0x10 scope:global
?IsRock@Rock@@UAEIXZ = .text:0x00439730; // type:function size:0x10 scope:global
?IsMovable@Rock@@UAEIXZ = .text:0x00439740; // type:function size:0x10 scope:global
?GetCreatureMimicType@Rock@@UAEIXZ = .text:0x00439750; // type:function size:0x10 scope:global
?CanBeAttackedByCreature@Rock@@UAEIPAVCreature@@@Z = .text:0x00439760; // type:function size:0x10 scope:global
?ShouldFootpathsGoRound@Rock@@UAEIXZ = .text:0x00439770; // type:function size:0x10 scope:global
?InterfaceValidToTap@Bonfire@@UAEIPAVGInterfaceStatus@@@Z = .text:0x00439780; // type:function size:0x10 scope:global
?ValidForPlaceInHand@Bonfire@@UAEIPAVGInterfaceStatus@@@Z = .text:0x00439790; // type:function size:0x10 scope:global
?CanBecomeAPhysicsObject@Bonfire@@UAEIXZ = .text:0x004397A0; // type:function size:0x10 scope:global
?InteractsWithPhysicsObjects@Bonfire@@UAEIXZ = .text:0x004397B0; // type:function size:0x10 scope:global
?PhysicsEditorCreate@Bonfire@@UAEXH@Z = .text:0x004397C0; // type:function size:0xA scope:global
?GetInHandImmersionTexture@Bonfire@@UAE?AW4IMMERSION_EFFECT_TYPE@@XZ = .text:0x004397D0; // type:function size:0x10 scope:global
?GetSaveType@Bonfire@@UAEIXZ = .text:0x004397E0; // type:function size:0x10 scope:global
?GetDebugText@Bonfire@@UAEPADXZ = .text:0x004397F0; // type:function size:0x10 scope:global
??_GBonfire@@UAEPAXI@Z = .text:0x00439800; // type:function size:0x30 scope:global
fn_00439830 = .text:0x00439830; // type:function size:0x10
?CallVirtualFunctionsForCreation@Bonfire@@UAEXABUMapCoords@@@Z = .text:0x00439840; // type:function size:0x10 scope:global
fn_00439850 = .text:0x00439850; // type:function size:0x50
?SaveObject@Bonfire@@UAEIAAULHOSFile@@ABUMapCoords@@@Z = .text:0x004398A0; // type:function size:0xF0 scope:global
?Save@Bonfire@@UAEIAAVGameOSFile@@@Z = .text:0x00439990; // type:function size:0x70 scope:global
?Load@Bonfire@@UAEIAAVGameOSFile@@@Z = .text:0x00439A00; // type:function size:0x70 scope:global
?GetScriptObjectType@Bonfire@@UAEIXZ = .text:0x00439A70; // type:function size:0x10 scope:global
?ReactToPhysicsImpact@Bonfire@@UAEXPAVPhysicsObject@@_N@Z = .text:0x00439A80; // type:function size:0x10 scope:global
?Draw@Bonfire@@UAEXXZ = .text:0x00439A90; // type:function size:0x10 scope:global
crt_xc_fn_00439AA0 = .text:0x00439AA0; // type:function size:0x30
crt_xc_fn_00439AD0 = .text:0x00439AD0; // type:function size:0x30
crt_xc_fn_00439B00 = .text:0x00439B00; // type:function size:0x1B
crt_xc_fn_00439B20 = .text:0x00439B20; // type:function size:0x10
fn_00439B30 = .text:0x00439B30; // type:function size:0x20
fn_00439B90 = .text:0x00439B90; // type:function size:0x120
fn_00439CB0 = .text:0x00439CB0; // type:function size:0x10
?GetBookMarkSet@Bookmark@@QAEXXZ = .text:0x00439D30; // type:function size:0x10
fn_00439D40 = .text:0x00439D40; // type:function size:0x20
fn_00439D60 = .text:0x00439D60; // type:function size:0x1A
fn_00439D80 = .text:0x00439D80; // type:function size:0x20
fn_00439DA0 = .text:0x00439DA0; // type:function size:0x30
fn_00439DD0 = .text:0x00439DD0; // type:function size:0x7B
fn_00439E50 = .text:0x00439E50; // type:function size:0x120
fn_00439F70 = .text:0x00439F70; // type:function size:0x100
fn_0043A070 = .text:0x0043A070; // type:function size:0x250
fn_0043A390 = .text:0x0043A390; // type:function size:0x60
fn_0043A3F0 = .text:0x0043A3F0; // type:function size:0xF0
fn_0043A4E0 = .text:0x0043A4E0; // type:function size:0xFA
fn_0043A5E0 = .text:0x0043A5E0; // type:function size:0xF0
fn_0043A6D0 = .text:0x0043A6D0; // type:function size:0x100
?Create@BookmarkGraphic@@SAPAV1@JW4CREATURE_TYPE@@@Z = .text:0x0043A7D0; // type:function size:0x80 scope:global
fn_0043A850 = .text:0x0043A850; // type:function size:0x10
fn_0043A860 = .text:0x0043A860; // type:function size:0x20
fn_0043A880 = .text:0x0043A880; // type:function size:0x50
fn_0043A9E0 = .text:0x0043A9E0; // type:function size:0x80
crt_xc_fn_0043AD60 = .text:0x0043AD60; // type:function size:0x30
crt_xc_fn_0043AD90 = .text:0x0043AD90; // type:function size:0x1B
crt_xc_fn_0043ADB0 = .text:0x0043ADB0; // type:function size:0x30
crt_xc_fn_0043ADE0 = .text:0x0043ADE0; // type:function size:0x30
?Process@PosBuilder@@QAEXPAVLH3DObject@@H@Z = .text:0x0043AE10; // type:function size:0x6E0
fn_0043B4F0 = .text:0x0043B4F0; // type:function size:0xB0
fn_0043B5A0 = .text:0x0043B5A0; // type:function size:0x90
fn_0043B630 = .text:0x0043B630; // type:function size:0xD0
??0BuildingSite@@QAE@PAVPlannedMultiMapFixed@@@Z = .text:0x0043B700; // type:function size:0x80 scope:global
_pef_100be5c0 = .text:0x0043B780; // type:function size:0x10
_pef_100c18d0 = .text:0x0043B790; // type:function size:0x10
?GetSaveType@BuildingSite@@UAEIXZ = .text:0x0043B7A0; // type:function size:0x10 scope:global
??_GBuildingSite@@UAEPAXI@Z = .text:0x0043B7B0; // type:function size:0x30 scope:global
??0BuildingSite@@QAE@PAVMultiMapFixed@@@Z = .text:0x0043B7E0; // type:function size:0xF0 scope:global
fn_0043B8D0 = .text:0x0043B8D0; // type:function size:0x80
?Init@BuildingSite@@UAEXXZ = .text:0x0043B950; // type:function size:0x10 scope:global
?ToBeDeleted@BuildingSite@@UAEXH@Z = .text:0x0043B960; // type:function size:0x250 scope:global
fn_0043BBB0 = .text:0x0043BBB0; // type:function size:0x10
fn_0043BBC0 = .text:0x0043BBC0; // type:function
fn_0043BBD0 = .text:0x0043BBD0; // type:function
?GetBuildersNeeded@BuildingSite@@QAEXXZ = .text:0x0043BC00; // type:function size:0x60
fn_0043BC60 = .text:0x0043BC60; // type:function size:0x10
?GetBuilding@BuildingSite@@QAEPAVMultiMapFixed@@XZ = .text:0x0043BC70; // type:function size:0x30 scope:global
?GetRootBuilding@BuildingSite@@QAEPAVMultiMapFixed@@XZ = .text:0x0043BCA0; // type:function size:0x10 scope:global
?GetPercentBuilt@BuildingSite@@QAEXXZ = .text:0x0043BCB0; // type:function size:0x50
fn_0043BD00 = .text:0x0043BD00; // type:function size:0x70
?GetDesireForVillagers@BuildingSite@@QAEXXZ = .text:0x0043BD70; // type:function size:0x70
?GetClearAreaRadius@BuildingSite@@QAEMXZ = .text:0x0043BDE0; // type:function size:0x20 scope:global
?GetDesireToBeRepaired@BuildingSite@@QAEMXZ = .text:0x0043BE00; // type:function size:0x40 scope:global
fn_0043BE40 = .text:0x0043BE40; // type:function size:0x50
fn_0043BE90 = .text:0x0043BE90; // type:function size:0x60
fn_0043BEF0 = .text:0x0043BEF0; // type:function size:0x30
?RemoveScaffold@BuildingSite@@QAEXPAVScaffold@@@Z = .text:0x0043BF20; // type:function size:0x50
?GetTown@BuildingSite@@UAEPAVTown@@XZ = .text:0x0043C0B0; // type:function size:0x10 scope:global
?GetWoodValue@BuildingSite@@QAEMXZ = .text:0x0043C0C0; // type:function size:0x5A scope:global
?GetResourcePosAndYAngle@StandardBuildingSite@@UAEXIIPAM@Z = .text:0x0043C220; // type:function size:0x270 scope:global
?AddResource@BuildingSite@@UAEIW4RESOURCE_TYPE@@IPAVGInterfaceStatus@@_NPBUMapCoords@@H@Z = .text:0x0043C490; // type:function size:0xA0 scope:global
?RemoveResource@BuildingSite@@UAEIW4RESOURCE_TYPE@@IPAVGInterfaceStatus@@PA_N@Z = .text:0x0043C530; // type:function size:0x80 scope:global
?GetResource@BuildingSite@@UAEIW4RESOURCE_TYPE@@@Z = .text:0x0043C5B0; // type:function size:0x30 scope:global
?GetWoodForStats@StandardBuildingSite@@UAEIXZ = .text:0x0043C5E0; // type:function size:0xB scope:global
?GetWoodNeededToBuild@BuildingSite@@QAEMXZ = .text:0x0043C5F0; // type:function size:0x90 scope:global
?ShouldIGetWood@BuildingSite@@QAEIPAVVillager@@@Z = .text:0x0043C680; // type:function size:0x1B0 scope:global
?Save@BuildingSite@@UAEIAAVGameOSFile@@@Z = .text:0x0043C830; // type:function size:0x2A0 scope:global
?Load@BuildingSite@@UAEIAAVGameOSFile@@@Z = .text:0x0043CAD0; // type:function size:0x2DA scope:global
fn_0043CDB0 = .text:0x0043CDB0; // type:function size:0x30
?GetRandomBuildPos@StandardBuildingSite@@UAEXPAVObject@@PAH@Z = .text:0x0043CDE0; // type:function size:0x60 scope:global
?GetNearestEdge@StandardBuildingSite@@UAEMMMPAH@Z = .text:0x0043CE40; // type:function size:0x100 scope:global
?GetNextPosFromIndex@StandardBuildingSite@@UAEXPAH@Z = .text:0x0043CF40; // type:function size:0x110 scope:global
?GetRadius@BuildingSite@@UAEMXZ = .text:0x0043D050; // type:function size:0x30 scope:global
fn_0043D080 = .text:0x0043D080; // type:function size:0x20
?IsLinkedToThisBuildingSite@BuildingSite@@QAEXPAVPot@@@Z = .text:0x0043D0A0; // type:function size:0x10
fn_0043D0B0 = .text:0x0043D0B0; // type:function size:0x50
?SetPileWood@CitadelBuildingSite@@UAEXPAVPot@@@Z = .text:0x0043D180; // type:function size:0x10 scope:global
?GetSaveType@CitadelBuildingSite@@UAEIXZ = .text:0x0043D190; // type:function size:0x10 scope:global
?GetDebugText@CitadelBuildingSite@@UAEPADXZ = .text:0x0043D1A0; // type:function size:0x10 scope:global
??_GCitadelBuildingSite@@UAEPAXI@Z = .text:0x0043D1B0; // type:function size:0x30 scope:global
??0CitadelBuildingSite@@QAE@PAVMultiMapFixed@@@Z = .text:0x0043D1E0; // type:function size:0x20
??0CitadelBuildingSite@@QAE@PAVPlannedMultiMapFixed@@@Z = .text:0x0043D200; // type:function size:0x20
?ToBeDeleted@CitadelBuildingSite@@UAEXH@Z = .text:0x0043D220; // type:function size:0x80 scope:global
?CreatePilesOfWood@CitadelBuildingSite@@QAEXXZ = .text:0x0043D2A0; // type:function size:0x80
?GetResource@CitadelBuildingSite@@UAEIW4RESOURCE_TYPE@@@Z = .text:0x0043D320; // type:function size:0x40 scope:global
?AddResource@CitadelBuildingSite@@UAEIW4RESOURCE_TYPE@@IPAVGInterfaceStatus@@_NPBUMapCoords@@H@Z = .text:0x0043D360; // type:function size:0x90 scope:global
?RemoveResource@CitadelBuildingSite@@UAEIW4RESOURCE_TYPE@@IPAVGInterfaceStatus@@PA_N@Z = .text:0x0043D3F0; // type:function size:0x70 scope:global
?CreatePileWood@CitadelBuildingSite@@UAEXXZ = .text:0x0043D460; // type:function size:0x10 scope:global
?GetResourcePosAndYAngle@CitadelBuildingSite@@UAEXIIPAM@Z = .text:0x0043D470; // type:function size:0x8B scope:global
?GetPileWood@CitadelBuildingSite@@UAEPAVPot@@ABUMapCoords@@@Z = .text:0x0043D500; // type:function size:0x80 scope:global
?IsLinkedToThisBuildingSite@CitadelBuildingSite@@UAE_NPAVPot@@@Z = .text:0x0043D580; // type:function size:0x30 scope:global
?RemovePotFromStructure@CitadelBuildingSite@@UAEXPAVPotStructure@@@Z = .text:0x0043D5B0; // type:function size:0x30 scope:global
?Save@CitadelBuildingSite@@UAEIAAVGameOSFile@@@Z = .text:0x0043D5E0; // type:function size:0x40 scope:global
?Load@CitadelBuildingSite@@UAEIAAVGameOSFile@@@Z = .text:0x0043D620; // type:function size:0x40 scope:global
?Process@CitadelBuildingSite@@UAEXXZ = .text:0x0043D660; // type:function size:0x30 scope:global
?GetPileWood@StandardBuildingSite@@UAEPAVPot@@ABUMapCoords@@@Z = .text:0x0043D6E0; // type:function size:0x10 scope:global
?SetPileWood@StandardBuildingSite@@UAEXPAVPot@@@Z = .text:0x0043D6F0; // type:function size:0x10 scope:global
?GetSaveType@StandardBuildingSite@@UAEIXZ = .text:0x0043D700; // type:function size:0x10 scope:global
?GetDebugText@StandardBuildingSite@@UAEPADXZ = .text:0x0043D710; // type:function size:0x10 scope:global
??_GStandardBuildingSite@@UAEPAXI@Z = .text:0x0043D720; // type:function size:0x30 scope:global
fn_0043D750 = .text:0x0043D750; // type:function size:0x10
?CreatePileWood@StandardBuildingSite@@UAEXXZ = .text:0x0043D760; // type:function size:0x9A scope:global
?RemovePotFromStructure@StandardBuildingSite@@UAEXPAVPotStructure@@@Z = .text:0x0043D800; // type:function size:0x30 scope:global
?IsLinkedToThisBuildingSite@StandardBuildingSite@@UAE_NPAVPot@@@Z = .text:0x0043D830; // type:function size:0x20 scope:global
?Save@StandardBuildingSite@@UAEIAAVGameOSFile@@@Z = .text:0x0043D850; // type:function size:0x40 scope:global
?Load@StandardBuildingSite@@UAEIAAVGameOSFile@@@Z = .text:0x0043D890; // type:function size:0x40 scope:global
?Process@StandardBuildingSite@@UAEXXZ = .text:0x0043D8D0; // type:function size:0x30 scope:global
?GetSaveType@WorkshopBuildingSite@@QAEXXZ = .text:0x0043D950; // type:function size:0x10
?GetDebugText@WorkshopBuildingSite@@QAEXXZ = .text:0x0043D960; // type:function size:0x10
??_GWorkshopBuildingSite@@UAEPAXI@Z = .text:0x0043D970; // type:function size:0x30 scope:global
fn_0043D9A0 = .text:0x0043D9A0; // type:function size:0x10
?GetPileWood@WorkshopBuildingSite@@QAEXABVMapCoords@@@Z = .text:0x0043D9B0; // type:function size:0x30
_pef_100ba940 = .text:0x0043D9E0; // type:function size:0x10
?CreatePileWood@WorkshopBuildingSite@@QAEXXZ = .text:0x0043D9F0; // type:function size:0x80
_pef_100ba760 = .text:0x0043DA70; // type:function size:0x10
?GetResourcePosAndYAngle@WorkshopBuildingSite@@QAEXVRESOURCE_TYPE@@IPAM@Z = .text:0x0043DA80; // type:function size:0xA0
?AddResource@WorkshopBuildingSite@@UAEIW4RESOURCE_TYPE@@IPAVGInterfaceStatus@@_NPBUMapCoords@@H@Z = .text:0x0043DB20; // type:function size:0x40 scope:global
?RemoveResource@WorkshopBuildingSite@@UAEIW4RESOURCE_TYPE@@IPAVGInterfaceStatus@@PA_N@Z = .text:0x0043DB60; // type:function size:0x2B scope:global
?GetWoodForStats@WorkshopBuildingSite@@QAEXXZ = .text:0x0043DB90; // type:function size:0x10
_pef_100ba2b0 = .text:0x0043DBA0; // type:function size:0x10
fn_0043DBB0 = .text:0x0043DBB0; // type:function size:0x50
fn_0043DC00 = .text:0x0043DC00; // type:function size:0x50
fn_0043DC50 = .text:0x0043DC50; // type:function size:0x5A
fn_0043DCB0 = .text:0x0043DCB0; // type:function size:0x5A
crt_xc_fn_0043DD10 = .text:0x0043DD10; // type:function size:0x30
crt_xc_fn_0043DD40 = .text:0x0043DD40; // type:function size:0x1B
crt_xc_fn_0043DD60 = .text:0x0043DD60; // type:function size:0x30
crt_xc_fn_0043DD90 = .text:0x0043DD90; // type:function size:0x1B
?Process@BWGameSpy@@QAEXXZ = .text:0x0043DDB0; // type:function size:0x10
crt_xc_fn_0043DDC0 = .text:0x0043DDC0; // type:function size:0x10
fn_0043DDD0 = .text:0x0043DDD0; // type:function size:0x70
_?Reset@LHHttpHeaders@@QAEXXZ = .text:0x0043DE6B; // type:function size:0x6
BWGameSpy_vfunc1 = .text:0x0043DE80; // type:function
BWGameSpy_vfunc0 = .text:0x0043DF70; // type:function size:0x80
?LeaveGameChannel@BWGameSpy@@QAEXXZ = .text:0x0043DFF0; // type:function size:0x40
?LeaveMainRoom@BWGameSpy@@QAEXXZ = .text:0x0043E030; // type:function size:0x30
?BeginPlayerEnumeration@BWGameSpy@@QAEXXZ = .text:0x0043E060; // type:function size:0x10
?StartGame@BWGameSpy@@QAEXXZ = .text:0x0043E070; // type:function size:0x30
fn_0043E0A0 = .text:0x0043E0A0; // type:function size:0x10
fn_0043E0B0 = .text:0x0043E0B0; // type:function size:0x10
fn_0043E0C0 = .text:0x0043E0C0; // type:function size:0x10
fn_0043E0D0 = .text:0x0043E0D0; // type:function size:0x70
fn_0043E140 = .text:0x0043E140; // type:function size:0x40
fn_0043E180 = .text:0x0043E180; // type:function size:0x10
fn_0043E190 = .text:0x0043E190; // type:function size:0x10
?Connect@BWGameSpy@@QAEXXZ = .text:0x0043E290; // type:function size:0x290 scope:global
?InitialiseLobbyState@BWGameSpy@@QAEXXZ = .text:0x0043E890; // type:function size:0x90
?Disconnect@BWGameSpy@@QAEXXZ = .text:0x0043E920; // type:function size:0x40
fn_0043E960 = .text:0x0043E960; // type:function size:0x60
?Stop@LHTimer@@QAEXXZ = .text:0x0043E9C0; // type:function size:0x90 scope:global
fn_0043EA50 = .text:0x0043EA50; // type:function size:0x11B
?MSeconds@LHTimer@@QAEHXZ = .text:0x0043EB70; // type:function size:0x50 scope:global
?SetSpeedUpFactor@LHTimer@@QAEXM@Z = .text:0x0043EBC0; // type:function size:0x90 scope:global
fn_0043EC50 = .text:0x0043EC50; // type:function size:0x100
fn_0043ED50 = .text:0x0043ED50; // type:function size:0x10
?PlayerJoinedCallback@BWGameSpy@@QAEXPAXVRoomType@@PBD0@Z = .text:0x0043ED60; // type:function size:0x50
fn_0043EDB0 = .text:0x0043EDB0; // type:function size:0xC0
fn_0043EE70 = .text:0x0043EE70; // type:function size:0x10
fn_0043EE80 = .text:0x0043EE80; // type:function size:0x10
fn_0043EE90 = .text:0x0043EE90; // type:function size:0x9A
?PlayerListChanged@BWGameSpy@@QAEXVRoomType@@@Z = .text:0x0043F2F0; // type:function size:0x70
fn_0043FA10 = .text:0x0043FA10; // type:function size:0x110
fn_0043FB20 = .text:0x0043FB20; // type:function size:0x100
fn_0043FC20 = .text:0x0043FC20; // type:function size:0x10
fn_0043FC30 = .text:0x0043FC30; // type:function size:0x1B0
fn_0043FEF0 = .text:0x0043FEF0; // type:function size:0x10
?CreateOrJoinRoom@BWGameSpy@@QAEXPA_W0PAVMPFEChannelDetails@@@Z = .text:0x0043FF10; // type:function size:0x136
fn_00440046 = .text:0x00440046; // type:function
??_GMPFEMessageObject@@QAEPAXI@Z = .text:0x004403A0; // type:function size:0x30
?PopulateChannelPlayers@BWGameSpy@@QAEXPAVMPFEChannelDetails@@@Z = .text:0x004403D0; // type:function size:0xF0
?GetNumPeopleInRoom@BWGameSpy@@QAEXXZ = .text:0x004404C0; // type:function size:0x20 scope:global
BWGameSpy_vfunc12 = .text:0x004404E0; // type:function size:0xBA
?BanPlayerInChannel@BWGameSpy@@QAEXPAVMPFEPlayerDetails@@@Z = .text:0x004405A0; // type:function size:0xE0
?LockChannel@BWGameSpy@@QAEX_N@Z = .text:0x00440680; // type:function size:0x80
?SetInvite@BWGameSpy@@QAEX_N@Z = .text:0x00440700; // type:function size:0x80
crt_xc_fn_00440780 = .text:0x00440780; // type:function size:0x30
crt_xc_fn_004407B0 = .text:0x004407B0; // type:function size:0x1B
crt_xc_fn_004407D0 = .text:0x004407D0; // type:function size:0x30
crt_xc_fn_00440800 = .text:0x00440800; // type:function size:0x1B
?GetNumPeopleInRoom@LayerCommunication@@QAEXXZ = .text:0x00440820; // type:function size:0x10
?Process@BWLan@@UAEXXZ = .text:0x00440830; // type:function size:0x10 scope:global
?SendMessageA@BWLan@@UAEXPBD_NPAUMPFEPlayerDetails@@@Z = .text:0x00440840; // type:function size:0xA0 scope:global
?SendMessageW@BWLan@@UAEXPA_W_NPAUMPFEPlayerDetails@@@Z = .text:0x004408E0; // type:function size:0x4A scope:global
?LeaveGameChannel@BWLan@@UAEXXZ = .text:0x00440930; // type:function size:0xC0 scope:global
?LeaveMainRoom@BWLan@@UAEXXZ = .text:0x004409F0; // type:function size:0x10 scope:global
?BeginPlayerEnumeration@BWLan@@UAEXXZ = .text:0x00440A00; // type:function scope:global
?Connect@BWLan@@QAEXXZ = .text:0x00440AC0; // type:function size:0x160 scope:global
?Think@BWLan@@QAEXXZ = .text:0x00440C20; // type:function size:0x760
?InitialiseLobbyState@BWLan@@UAEXXZ = .text:0x00441380; // type:function size:0x10 scope:global
?Disconnect@BWLan@@QAEXXZ = .text:0x00441390; // type:function size:0x20
_pef_10189810 = .text:0x004413B0; // type:function size:0x10
_pef_101897e0 = .text:0x004413C0; // type:function size:0x10
?EnterGameRoom@BWLan@@QAEX_NPA_W@Z = .text:0x004413D0; // type:function size:0xE0
?PopulateChannelPlayers@BWLan@@UAEXPAUMPFEChannelDetails@@@Z = .text:0x004414B0; // type:function size:0x50 scope:global
?CreateOrJoinRoom@BWLan@@UAEXPA_W0PAUMPFEChannelDetails@@@Z = .text:0x00441500; // type:function size:0xB0 scope:global
?StartGame@BWLan@@UAEXXZ = .text:0x004415B0; // type:function size:0x10 scope:global
_pef_10189380 = .text:0x004415C0; // type:function size:0x10
_pef_10189330 = .text:0x004415D0; // type:function size:0x10
fn_004415E0 = .text:0x004415E0; // type:function size:0x20
crt_xc_fn_00441600 = .text:0x00441600; // type:function size:0x30
crt_xc_fn_00441630 = .text:0x00441630; // type:function size:0x1B
fn_00441650 = .text:0x00441650; // type:function size:0xB0
?Arrived@CameraMode@@QAEXXZ = .text:0x00441700; // type:function size:0x140
fn_00441840 = .text:0x00441840; // type:function size:0x30
??0GCamera@@QAE@AAVMapCoords@@@Z = .text:0x00441870; // type:function size:0x250 scope:global
?SetPosition@Zoomer@@QAEXM@Z = .text:0x00441AC0; // type:function size:0x30 scope:global
?GetText@GCamera@@UAEPBDXZ = .text:0x00441AF0; // type:function size:0x10 scope:global
?IsMoving@GCamera@@UBEIXZ = .text:0x00441B00; // type:function size:0x10 scope:global
?GetHeight@GCamera@@UAEMXZ = .text:0x00441B10; // type:function size:0x10 scope:global
?GetSaveType@GCamera@@UAEIXZ = .text:0x00441B20; // type:function size:0x10 scope:global
??_GGCamera@@UAEPAXI@Z = .text:0x00441B30; // type:function size:0x30 scope:global
??0MapCoords@@QAE@ABU0@@Z = .text:0x00441B60; // type:function size:0x10 scope:global
?CantExitCurrentMode@GCamera@@QAE_NXZ = .text:0x00441B70; // type:function size:0x1A scope:global
fn_00441C50 = .text:0x00441C50; // type:function size:0x80
?SwitchToViewMode@GCamera@@QAEXPAVCameraMode@@@Z = .text:0x00441CD0; // type:function size:0x6B scope:global
?CheckStackedModesForValidity@GCamera@@QAEXXZ = .text:0x00441D40; // type:function size:0xC0 scope:global
fn_00441E00 = .text:0x00441E00; // type:function size:0x60
fn_00441E60 = .text:0x00441E60; // type:function size:0x60
?ToBeDeleted@GCamera@@UAEXH@Z = .text:0x00441EE0; // type:function size:0x3A scope:global
?GetThingViewingDistance@GCamera@@SAMPAVGameThingWithPos@@@Z = .text:0x00441F20; // type:function size:0x20 scope:global
?SetScriptSlomoControl@GCamera@@QAEXH@Z = .text:0x00441F40; // type:function size:0xA
?Validate@GCamera@@QAEXXZ = .text:0x00441F50; // type:function size:0x30 scope:global
?Update@GCamera@@QAEXXZ = .text:0x00441F80; // type:function size:0x780 scope:global
??0LHPoint@@QAE@MMM@Z = .text:0x00442700; // type:function size:0x20 scope:global
?Update@Zoomer@@QAEXM@Z = .text:0x00442720; // type:function size:0x8A scope:global
fn_004427B0 = .text:0x004427B0; // type:function size:0x40
?SetPointFromPointDistanceHeadingAndPitch@GCamera@@SAXPAULHPoint@@ABU2@MMM@Z = .text:0x00442810; // type:function size:0x4B scope:global
fn_00442860 = .text:0x00442860; // type:function size:0x70
?GetHeadingAndPitchFromPoints@GCamera@@SAXABULHPoint@@0PAM1@Z = .text:0x004428D0; // type:function size:0xB0 scope:global
fn_00442B00 = .text:0x00442B00; // type:function size:0x120
fn_00442C20 = .text:0x00442C20; // type:function size:0xC0
fn_00442CE0 = .text:0x00442CE0; // type:function size:0x30
?GetDistanceSq@GCamera@@QAEXABVLHPoint@@@Z = .text:0x00442D10; // type:function size:0x40
fn_00442D50 = .text:0x00442D50; // type:function size:0x60
?UpdateGameThingWithPosData@GCamera@@QAEXXZ = .text:0x00442EF0; // type:function size:0xF0 scope:global
?ClearCameraStack@GCamera@@QAEXXZ = .text:0x00442FE0; // type:function size:0x70
fn_00443070 = .text:0x00443070; // type:function size:0x6A
?Save@GCamera@@UAEIAAVGameOSFile@@@Z = .text:0x004430E0; // type:function size:0x2C0 scope:global
?Load@GCamera@@UAEIAAVGameOSFile@@@Z = .text:0x004433A0; // type:function size:0x2D0 scope:global
fn_00443670 = .text:0x00443670; // type:function size:0x10
?SetCameraFov@GCamera@@QAEXMM@Z = .text:0x00443680; // type:function size:0x1C0 scope:global
?GetDebugText@GCamera@@UAEPADXZ = .text:0x00443840; // type:function size:0x80 scope:global
?SetPositionAndFocus@GCamera@@QAEXABVLHPoint@@ABV2@@Z = .text:0x004438C0; // type:function size:0x280
crt_xc_fn_00443B40 = .text:0x00443B40; // type:function size:0x30
crt_xc_fn_00443B70 = .text:0x00443B70; // type:function size:0x1B
crt_xc_fn_00443B90 = .text:0x00443B90; // type:function size:0x30
GCameraEditor_vfunc0 = .text:0x00443BC0; // type:function size:0x20
GCameraEditor_vfunc1 = .text:0x00443BE0; // type:function size:0x5D0
GCameraEditor_vfunc6 = .text:0x004441B0; // type:function size:0x3C0
GCameraEditor_vfunc5 = .text:0x00444570; // type:function size:0x3DC
fn_0044494C = .text:0x0044494C; // type:function size:0x165
fn_00444C45 = .text:0x00444C45; // type:function size:0x12
fn_00444DB0 = .text:0x00444DB0; // type:function size:0x1B0
?FinalDraw@GCameraEditor@@SAXXZ = .text:0x00445050; // type:function size:0x140 scope:global
fn_00445190 = .text:0x00445190; // type:function size:0x39A
?CreateSegFile@GCameraEditor@@SAXXZ = .text:0x00445530; // type:function size:0xC0 scope:global
fn_00445660 = .text:0x00445660; // type:function size:0x250
fn_004458B0 = .text:0x004458B0; // type:function size:0x80
fn_00445930 = .text:0x00445930; // type:function size:0x80
fn_004459B0 = .text:0x004459B0; // type:function size:0x20
fn_004459D0 = .text:0x004459D0; // type:function size:0x20
fn_004459F0 = .text:0x004459F0; // type:function size:0x30
fn_00445C40 = .text:0x00445C40; // type:function size:0x30
fn_00445C70 = .text:0x00445C70; // type:function size:0x30
GCameraEditor_vfunc3 = .text:0x00445CA0; // type:function size:0x10
fn_00445E10 = .text:0x00445E10; // type:function size:0x40
fn_00445E50 = .text:0x00445E50; // type:function size:0x90
fn_00445EE0 = .text:0x00445EE0; // type:function size:0x1C0
fn_004460A0 = .text:0x004460A0; // type:function size:0x1D0
fn_00446270 = .text:0x00446270; // type:function size:0x50
fn_004462C0 = .text:0x004462C0; // type:function size:0x8B
fn_00446350 = .text:0x00446350; // type:function size:0x100
?Draw@InfoTrack@GCameraEditor@@QAEXXZ = .text:0x00446450; // type:function size:0x190 scope:global
fn_004465E0 = .text:0x004465E0; // type:function size:0x120
fn_00446700 = .text:0x00446700; // type:function size:0x110
fn_00446880 = .text:0x00446880; // type:function size:0xA0
fn_00446920 = .text:0x00446920; // type:function size:0x1A0
fn_00446AC0 = .text:0x00446AC0; // type:function size:0x70
fn_00446B30 = .text:0x00446B30; // type:function size:0x2D0
fn_00446E65 = .text:0x00446E65; // type:function size:0x17B
?LoadCameraFromHD@GCameraEditor@@QAEXHAAVCameraBin@1@@Z = .text:0x00446FE0; // type:function size:0x80 scope:global
?Create@ScriptedCamera@@QAEXH@Z = .text:0x00447060; // type:function size:0x190
fn_004471F0 = .text:0x004471F0; // type:function size:0xA0
fn_00447290 = .text:0x00447290; // type:function size:0x50
crt_xc_fn_004472E0 = .text:0x004472E0; // type:function size:0x30
crt_xc_fn_00447310 = .text:0x00447310; // type:function size:0x1B
crt_xc_fn_00447330 = .text:0x00447330; // type:function size:0x30
crt_xc_fn_00447360 = .text:0x00447360; // type:function size:0x30
crt_xc_fn_00447390 = .text:0x00447390; // type:function size:0x30
crt_xc_fn_004473C0 = .text:0x004473C0; // type:function size:0x30
?EnableCameraFeatures@CameraHelp@@QAEXHH@Z = .text:0x00447430; // type:function size:0x20
fn_00447450 = .text:0x00447450; // type:function size:0x3C5
fn_00447850 = .text:0x00447850; // type:function size:0xBA
fn_00447910 = .text:0x00447910; // type:function size:0x80
fn_00447990 = .text:0x00447990; // type:function size:0x210
fn_00447BA0 = .text:0x00447BA0; // type:function size:0x300
fn_00447EA0 = .text:0x00447EA0; // type:function size:0xB30
fn_004489D0 = .text:0x004489D0; // type:function size:0xF0
fn_00448AC0 = .text:0x00448AC0; // type:function size:0x120
fn_00448BE0 = .text:0x00448BE0; // type:function size:0x20
??_GKMIcon@@QAEPAXI@Z = .text:0x00448C00; // type:function size:0x3B
fn_00448C40 = .text:0x00448C40; // type:function size:0x2A0
fn_00448F10 = .text:0x00448F10; // type:function size:0x10
?Reset@CameraHelpAccumulator@@QAEXXZ = .text:0x00448F20; // type:function size:0x20 scope:global
?GetTimeSinceLastUsed@CameraHelpAccumulator@@QAEXXZ = .text:0x00448F40; // type:function size:0x50
fn_00448F90 = .text:0x00448F90; // type:function size:0x30
fn_00448FC0 = .text:0x00448FC0; // type:function size:0x80
?Trigger@CameraHelpAccumulator@@QAEXXZ = .text:0x00449040; // type:function size:0x40
fn_00449080 = .text:0x00449080; // type:function size:0x1A
fn_004490A0 = .text:0x004490A0; // type:function size:0xA0
?CameraHelpCallback@CameraHelp@@SAXW4CameraHelpReason@@AAULHPoint@@K@Z = .text:0x00449140; // type:function size:0xA0 scope:global
?ResetStats@CameraHelp@@QAEX_N@Z = .text:0x004491E0; // type:function size:0x60
fn_00449240 = .text:0x00449240; // type:function size:0xB0
fn_004492F0 = .text:0x004492F0; // type:function size:0x360
fn_00449650 = .text:0x00449650; // type:function size:0x60
fn_00449DE0 = .text:0x00449DE0; // type:function size:0x30
crt_xc_fn_0044A140 = .text:0x0044A140; // type:function size:0x30
crt_xc_fn_0044A170 = .text:0x0044A170; // type:function size:0x30
?CanPlayerGestureWhenCameraMoving@CameraModeTwoObjects@@UAEIXZ = .text:0x0044A290; // type:function size:0x10 scope:global
_pef_101a30a0 = .text:0x0044A2A0; // type:function size:0x10
?Validate@CameraModeTwoObjects@@UAEXXZ = .text:0x0044A2B0; // type:function size:0x10 scope:global
?IsStillValid@CameraMode@@QAEXXZ = .text:0x0044A2C0; // type:function size:0x10
?Cleanup@CameraModeTwoObjects@@UAEXXZ = .text:0x0044A2D0; // type:function size:0x10 scope:global
?CanExist@CameraModeTwoObjects@@UAEIXZ = .text:0x0044A2E0; // type:function size:0x10 scope:global
?MouseIsLocked@CameraMode@@QAEXXZ = .text:0x0044A2F0; // type:function size:0x10
_pef_101a3ca0 = .text:0x0044A300; // type:function size:0x10
_pef_101a3d20 = .text:0x0044A310; // type:function size:0x10
_pef_101a3d60 = .text:0x0044A320; // type:function size:0x10
?GetSaveID@CameraMode@@QAEXXZ = .text:0x0044A330; // type:function size:0x10
_pef_101a1db0 = .text:0x0044A340; // type:function size:0x10
_pef_101a2220 = .text:0x0044A350; // type:function size:0x10
CameraModeCitadel_vfunc17 = .text:0x0044A360; // type:function size:0x10
CameraModeCitadel_vfunc0 = .text:0x0044A370; // type:function size:0x20
?Restart@CameraModeTwoObjects@@UAEXXZ = .text:0x0044A390; // type:function size:0x10 scope:global
_pef_101a3ce0 = .text:0x0044A3A0; // type:function size:0x10
?GetDebugName@CameraMode@@QAEXXZ = .text:0x0044A3B0; // type:function size:0x10
??_GCameraMode@@QAEPAXI@Z = .text:0x0044A3C0; // type:function size:0x20
CameraModeCitadel_vfunc4 = .text:0x0044A3E0; // type:function size:0x2E0
CameraModeCitadel_vfunc10 = .text:0x0044A6C0; // type:function size:0x110
crt_xc_fn_0044A7D0 = .text:0x0044A7D0; // type:function size:0x30
crt_xc_fn_0044A800 = .text:0x0044A800; // type:function size:0x30
crt_xc_fn_0044A830 = .text:0x0044A830; // type:function size:0x1B
fn_0044A850 = .text:0x0044A850; // type:function size:0xD0
?CanExit@CameraModeCtrInteract@@QAEXXZ = .text:0x0044A920; // type:function size:0x10
?GetDebugName@CameraModeCtrInteract@@QAEXXZ = .text:0x0044A930; // type:function size:0x10
??_GCameraModeCtrInteract@@QAEPAXI@Z = .text:0x0044A940; // type:function size:0x20
?Update@CameraModeCtrInteract@@QAEXXZ = .text:0x0044A960; // type:function size:0x1CB
crt_xc_fn_0044AB30 = .text:0x0044AB30; // type:function size:0x30
?CanPlayerGestureWhenCameraMoving@CameraModeDance@@QAEXXZ = .text:0x0044ABD0; // type:function size:0x10
?CanExit@CameraModeDance@@QAEXXZ = .text:0x0044ABE0; // type:function size:0x10
?Delete@CameraModeDance@@QAEXXZ = .text:0x0044ABF0; // type:function size:0x10
?GetDebugName@CameraModeDance@@QAEXXZ = .text:0x0044AC00; // type:function size:0x10
??_GCameraModeDance@@QAEPAXI@Z = .text:0x0044AC10; // type:function size:0x20
fn_0044AC30 = .text:0x0044AC30; // type:function size:0x10
?IsStillValid@CameraModeDance@@QAEXXZ = .text:0x0044AC40; // type:function size:0x4B
?Update@CameraModeDance@@QAEXXZ = .text:0x0044AC90; // type:function size:0x3A
?ProcessKeyMovement@CameraModeDance@@QAEXG@Z = .text:0x0044ACD0; // type:function size:0x30
crt_xc_fn_0044AD00 = .text:0x0044AD00; // type:function size:0x30
crt_xc_fn_0044AD30 = .text:0x0044AD30; // type:function size:0x30
CameraModeFlyAndClick_vfunc5 = .text:0x0044AEC0; // type:function size:0x10
CameraModeFlyAndClick_vfunc17 = .text:0x0044AED0; // type:function size:0x10
CameraModeFlyAndClick_vfunc0 = .text:0x0044AEE0; // type:function size:0x20
CameraModeFlyAndClick_vfunc2 = .text:0x0044AF00; // type:function size:0xD0
CameraModeFlyAndClick_vfunc4 = .text:0x0044AFD0; // type:function size:0x2F0
fn_0044B2C0 = .text:0x0044B2C0; // type:function size:0x230
CameraModeFlyAndClick_vfunc10 = .text:0x0044B4F0; // type:function size:0x230
crt_xc_fn_0044B720 = .text:0x0044B720; // type:function size:0x30
crt_xc_fn_0044B750 = .text:0x0044B750; // type:function size:0x30
crt_xc_fn_0044B780 = .text:0x0044B780; // type:function size:0x1B
??0CameraModeFollow@@QAE@PAVGCamera@@PAVGameThingWithPos@@MHH@Z = .text:0x0044B800; // type:function size:0x160 scope:global
?IsStillValid@CameraModeFollow@@QAEXXZ = .text:0x0044B960; // type:function size:0x20
?GetFocusThing@CameraModeFollow@@QBEXXZ = .text:0x0044B980; // type:function size:0x10
?GetSaveID@CameraModeFollow@@QAEXXZ = .text:0x0044B990; // type:function size:0x10
?GetDebugName@CameraModeFollow@@QAEXXZ = .text:0x0044B9A0; // type:function size:0x10
?CanPlayerGestureWhenCameraMoving@CameraModeFollow@@QAEXXZ = .text:0x0044B9B0; // type:function size:0x10
?GetComputerPlayerFocus@CameraModeFollow@@QAEXXZ = .text:0x0044B9C0; // type:function size:0x10
?GetComputerPlayerFollow@CameraModeFollow@@QAEXXZ = .text:0x0044B9D0; // type:function size:0x10
??_GCameraModeFollow@@QAEPAXI@Z = .text:0x0044B9E0; // type:function size:0x20
?Set@CameraModeFollow@@QAEXPAVGameThingWithPos@@@Z = .text:0x0044BA00; // type:function size:0x8B scope:global
?Validate@CameraModeFollow@@QAEXXZ = .text:0x0044BB10; // type:function size:0x20
?Update@CameraModeFollow@@QAEXXZ = .text:0x0044C160; // type:function size:0xE30
fn_0044CF90 = .text:0x0044CF90; // type:function size:0x30
??0LHPoint@@QAE@ABV0@@Z = .text:0x0044CFC0; // type:function size:0x20 scope:global
?ProcessKeyMovement@CameraModeFollow@@QAEXG@Z = .text:0x0044CFE0; // type:function size:0x400
?Load@CameraModeFollow@@QAEXPAVGameOSFile@@@Z = .text:0x0044D3E0; // type:function size:0x20B
?Save@CameraModeFollow@@QAEXPAVGameOSFile@@@Z = .text:0x0044D5F0; // type:function size:0x220
crt_xc_fn_0044D810 = .text:0x0044D810; // type:function size:0x30
fn_0044D8A0 = .text:0x0044D8A0; // type:function size:0x40
?IsStillValid@CameraModeFollowHeading@@QAEXXZ = .text:0x0044D8E0; // type:function size:0x20
?GetSaveID@CameraModeFollowHeading@@QAEXXZ = .text:0x0044D900; // type:function size:0x10
?GetDebugName@CameraModeFollowHeading@@QAEXXZ = .text:0x0044D910; // type:function size:0x10
??_GCameraModeFollowHeading@@QAEPAXI@Z = .text:0x0044D920; // type:function size:0x20
?Update@CameraModeFollowHeading@@QAEXXZ = .text:0x0044D940; // type:function size:0x420
?Load@CameraModeFollowHeading@@QAEXPAVGameOSFile@@@Z = .text:0x0044DD60; // type:function size:0x100
?Save@CameraModeFollowHeading@@QAEXPAVGameOSFile@@@Z = .text:0x0044DE60; // type:function size:0x100
crt_xc_fn_0044DF60 = .text:0x0044DF60; // type:function size:0x30
fn_0044DF90 = .text:0x0044DF90; // type:function size:0x50
?IsStillValid@CameraModeFree@@QAEXXZ = .text:0x0044DFE0; // type:function size:0x10
?GetSaveID@CameraModeFree@@QAEXXZ = .text:0x0044DFF0; // type:function size:0x10
?GetDebugName@CameraModeFree@@QAEXXZ = .text:0x0044E000; // type:function size:0x10
??_GCameraModeFree@@QAEPAXI@Z = .text:0x0044E010; // type:function size:0x20
_pef_101aaf80 = .text:0x0044E030; // type:function size:0x10
?Update@CameraModeFree@@QAEXXZ = .text:0x0044E040; // type:function size:0x690
fn_0044E6D0 = .text:0x0044E6D0; // type:function size:0x90
?SetDestinationWithTime@Zoomer3d@@QAEXABVLHPoint@@M@Z = .text:0x0044E760; // type:function size:0x290 scope:global
fn_0044E9F0 = .text:0x0044E9F0; // type:function size:0x30
fn_0044EA20 = .text:0x0044EA20; // type:function size:0x20
fn_0044EA40 = .text:0x0044EA40; // type:function size:0x20
?ProcessKeyMovement@CameraModeFree@@QAEXG@Z = .text:0x0044EA60; // type:function size:0xD0
?Save@CameraModeFree@@QAEXPAVGameOSFile@@@Z = .text:0x0044EB30; // type:function size:0x100
?Load@CameraModeFree@@QAEXPAVGameOSFile@@@Z = .text:0x0044EC30; // type:function size:0xF0
crt_xc_fn_0044ED20 = .text:0x0044ED20; // type:function size:0x30
fn_0044ED50 = .text:0x0044ED50; // type:function size:0xE0
fn_0044EE30 = .text:0x0044EE30; // type:function size:0x60
fn_0044EE90 = .text:0x0044EE90; // type:function size:0xC0
fn_0044EF50 = .text:0x0044EF50; // type:function size:0x10
fn_0044EF60 = .text:0x0044EF60; // type:function size:0x1D0
fn_0044F130 = .text:0x0044F130; // type:function size:0x20
fn_0044F150 = .text:0x0044F150; // type:function size:0x200
fn_0044F350 = .text:0x0044F350; // type:function size:0x140
fn_0044F490 = .text:0x0044F490; // type:function size:0x20
fn_0044F4B0 = .text:0x0044F4B0; // type:function size:0x40
fn_0044F4F0 = .text:0x0044F4F0; // type:function size:0x3B
fn_0044F530 = .text:0x0044F530; // type:function size:0x30
fn_0044F560 = .text:0x0044F560; // type:function size:0xB0
fn_0044F610 = .text:0x0044F610; // type:function size:0x200
fn_0044F810 = .text:0x0044F810; // type:function size:0x810
fn_00450020 = .text:0x00450020; // type:function size:0x1C
fn_0045003C = .text:0x0045003C; // type:function size:0x8E8
fn_004509F0 = .text:0x004509F0; // type:function size:0x10
fn_00450A40 = .text:0x00450A40; // type:function size:0xE0
CameraModeNew_vfunc5 = .text:0x00450CA0; // type:function size:0x10
CameraModeNew_vfunc18 = .text:0x00450CB0; // type:function size:0x10
CameraModeNew_vfunc17 = .text:0x00450CC0; // type:function size:0x10
CameraModeNew_vfunc0 = .text:0x00450CD0; // type:function size:0x20
CameraModeNew1_vfunc5 = .text:0x00450CF0; // type:function size:0x10
CameraModeNew1_vfunc18 = .text:0x00450D00; // type:function size:0x10
CameraModeNew1_vfunc17 = .text:0x00450D10; // type:function size:0x10
CameraModeNew1_vfunc0 = .text:0x00450D20; // type:function size:0x30
CameraModeNew1_vfunc2 = .text:0x00451090; // type:function size:0x1A0
CameraModeNew1_vfunc21 = .text:0x00451230; // type:function size:0x150
CameraModeNew1_vfunc19 = .text:0x00451380; // type:function size:0x30
CameraModeNew1_vfunc20 = .text:0x004513B0; // type:function size:0x80
CameraModeNew1_vfunc10 = .text:0x00451430; // type:function size:0x5F0
CameraModeNew1_vfunc4 = .text:0x00451A20; // type:function size:0x8B
crt_xc_fn_00451C20 = .text:0x00451C20; // type:function size:0x30
fn_00451C50 = .text:0x00451C50; // type:function size:0x20
fn_00451D50 = .text:0x00451D50; // type:function size:0x8A
fn_00451DE0 = .text:0x00451DE0; // type:function size:0x140
fn_00451F20 = .text:0x00451F20; // type:function size:0x14C
fn_0045206C = .text:0x0045206C; // type:function size:0x6B
fn_004520F0 = .text:0x004520F0; // type:function size:0x90
fn_00452180 = .text:0x00452180; // type:function size:0xE0
fn_00452260 = .text:0x00452260; // type:function size:0x130
fn_00452390 = .text:0x00452390; // type:function size:0x10
fn_004523A0 = .text:0x004523A0; // type:function size:0x220
fn_004525C0 = .text:0x004525C0; // type:function size:0xB
fn_004525D0 = .text:0x004525D0; // type:function size:0x280
fn_00452850 = .text:0x00452850; // type:function size:0x1700
fn_00453F50 = .text:0x00453F50; // type:function size:0x20
fn_00453FC0 = .text:0x00453FC0; // type:function size:0x80
fn_00454160 = .text:0x00454160; // type:function size:0x5A
CameraModeNew2_vfunc5 = .text:0x004541C0; // type:function size:0x10
CameraModeNew2_vfunc18 = .text:0x004541D0; // type:function size:0x10
CameraModeNew2_vfunc17 = .text:0x004541E0; // type:function size:0x10
CameraModeNew2_vfunc0 = .text:0x004541F0; // type:function size:0x30
fn_00454249 = .text:0x00454249; // type:function size:0xE7
fn_00454341 = .text:0x00454341; // type:function size:0xFF
CameraModeNew2_vfunc2 = .text:0x00454440; // type:function size:0x1A0
CameraModeNew2_vfunc21 = .text:0x004545E0; // type:function size:0x1A0
CameraModeNew2_vfunc19 = .text:0x00454780; // type:function size:0x10
CameraModeNew2_vfunc20 = .text:0x00454790; // type:function size:0x10
CameraModeNew2_vfunc10 = .text:0x004547A0; // type:function size:0x10
CameraModeNew2_vfunc4 = .text:0x004547B0; // type:function size:0x70
crt_xc_fn_00454820 = .text:0x00454820; // type:function size:0x30
crt_xc_fn_00454850 = .text:0x00454850; // type:function size:0x30
crt_xc_fn_00454880 = .text:0x00454880; // type:function size:0x1B
crt_xc_fn_004548A0 = .text:0x004548A0; // type:function size:0x20
crt_xc_fn_004548C0 = .text:0x004548C0; // type:function size:0x1B
crt_xc_fn_004548E0 = .text:0x004548E0; // type:function size:0x20
fn_00454900 = .text:0x00454900; // type:function size:0x30
fn_00454930 = .text:0x00454930; // type:function size:0x30
fn_00454960 = .text:0x00454960; // type:function size:0x60
??_GCameraExclusion@@QAEPAXI@Z = .text:0x00454A00; // type:function size:0x40
?RemoveByID@CameraExclusion@@QAEXI@Z = .text:0x00454A40; // type:function size:0x30
?RemoveAll@CameraExclusion@@QAEXXZ = .text:0x00454A70; // type:function size:0x30
fn_00454AA0 = .text:0x00454AA0; // type:function size:0x9A
fn_00454B80 = .text:0x00454B80; // type:function size:0x50
fn_00454BE0 = .text:0x00454BE0; // type:function size:0x2A
fn_00454C41 = .text:0x00454C41; // type:function size:0x8
?DebugDraw@CameraExclusion@@QAEXPAV1@H@Z = .text:0x00454C49; // type:function size:0x5FE
fn_00455247 = .text:0x00455247; // type:function
?ResetExclusionFile@CameraExclusion@@QAEXI@Z = .text:0x00455320; // type:function size:0x50
fn_00455449 = .text:0x00455449; // type:function size:0xD7
fn_00455547 = .text:0x00455547; // type:function size:0x119
fn_00455660 = .text:0x00455660; // type:function size:0xF3
fn_00455753 = .text:0x00455753; // type:label size:0x2B8
fn_00455A10 = .text:0x00455A10; // type:function size:0x33
fn_00455A43 = .text:0x00455A43; // type:function size:0x30D
?InsideExclusion@CameraExclusion@@QAEXVLHPoint@@@Z = .text:0x00455D50; // type:function size:0xD0 scope:global
?InsideInclusion@CameraExclusion@@SA_NULHPoint@@0PAU2@1@Z = .text:0x00455E20; // type:function size:0x440 scope:global
?GetCameraFeatures@CameraModeNew3@@QAEXXZ = .text:0x00456260; // type:function size:0x10
fn_00456630 = .text:0x00456630; // type:function size:0x10
?Initialise@CameraModeNew3@@QAEXXZ = .text:0x00456640; // type:function size:0x2B0
fn_00457041 = .text:0x00457041; // type:function size:0x29F
??0CameraModeNew3@@QAE@PAVGCamera@@@Z = .text:0x004572E0; // type:function size:0x4B scope:global
?ForceRotateAboutPoint@CameraModeNew3@@QAEXPAVLHPoint@@@Z = .text:0x00457330; // type:function size:0x30
?IsStillValid@CameraModeNew3@@QAEXXZ = .text:0x00457360; // type:function size:0x10
?GetDebugName@CameraModeNew3@@QAEXXZ = .text:0x00457370; // type:function size:0x10
??_GCameraModeNew3@@QAEPAXI@Z = .text:0x00457380; // type:function size:0x20
fn_004576C0 = .text:0x004576C0; // type:function size:0x360
?SetupVia@CameraModeNew3@@QAEXAAVLHPoint@@AAV2@1M@Z = .text:0x00457A20; // type:function size:0x140
?ZoomToCitadel@CameraModeNew3@@QAEXMMMMH@Z = .text:0x00457B60; // type:function size:0x3C0
fn_00457F30 = .text:0x00457F30; // type:function size:0x50
?ProcessKeyMovement@CameraModeNew3@@QAEXG@Z = .text:0x00458220; // type:function size:0x5B0
?Restart@CameraModeNew3@@QAEXXZ = .text:0x004587D0; // type:function size:0x20
?FlyToPosFoc@CameraModeNew3@@QAEXAAVLHPoint@@AAV2@M@Z = .text:0x004587F0; // type:function size:0x1C0
?Reinitialise@CameraModeNew3@@QAEX_N@Z = .text:0x004589B0; // type:function size:0x400
?CalcPerpDistance@CameraModeNew3@@QAEXAAVLHPoint@@AAV2@1@Z = .text:0x00458DB0; // type:function size:0x9B scope:global
fn_00458E50 = .text:0x00458E50; // type:function size:0xF0
?FindBestAngle@CameraModeNew3@@SAMMMAAULHPoint@@AAMPAM@Z = .text:0x00458F40; // type:function size:0x2D0 scope:global
fn_00459210 = .text:0x00459210; // type:function size:0x20
?UpdateTricons@CameraModeNew3@@QAEXXZ = .text:0x00459230; // type:function size:0x3E0 scope:global
?UpdateClickParams@CameraModeNew3@@QAEXAAVLHPoint@@AAV2@_N@Z = .text:0x00459610; // type:function size:0x5CB scope:global
fn_00459BE0 = .text:0x00459BE0; // type:function size:0x50
?GetAltitude@CameraModeNew3@@QAEXAAVLHPoint@@@Z = .text:0x00459C30; // type:function size:0xF0 scope:global
?SetAltitudeAndNormal@CameraModeNew3@@QAEXAAVLHPoint@@AAV2@@Z = .text:0x00459D20; // type:function size:0x1F0 scope:global
?DragFocusOntoLand@CameraModeNew3@@QAEXAAVLHPoint@@AAV2@@Z = .text:0x00459F10; // type:function size:0x150 scope:global
fn_0045A060 = .text:0x0045A060; // type:function size:0x20
?UpdateStrafe@CameraModeNew3@@QAEXAAVLHPoint@@AAV2@AAM2MI@Z = .text:0x0045A080; // type:function size:0x30B scope:global
?WantToQuitFight@CameraModeNew3@@QAEXVLHPoint@@V2@M@Z = .text:0x0045A390; // type:function size:0x13B scope:global
?StartFight@CameraModeNew3@@QAEXPAVGArena@@@Z = .text:0x0045A4D0; // type:function size:0x300 scope:global
fn_0045A7D0 = .text:0x0045A7D0; // type:function size:0x20
?GetPos@LH3DCamera@@QAEXXZ = .text:0x0045A7F0; // type:function size:0x10 scope:global
fn_0045A800 = .text:0x0045A800; // type:function size:0x30
?EndFightNow@CameraModeNew3@@QAEXH@Z = .text:0x0045A830; // type:function size:0x30 scope:global
?CanPlayerGestureWhenCameraMoving@CameraModeNew3@@QAEXXZ = .text:0x0045A860; // type:function size:0x20
?Validate@CameraModeNew3@@QAEXXZ = .text:0x0045A880; // type:function size:0x40
fn_0045A8C0 = .text:0x0045A8C0; // type:function size:0xA0
?Update@CameraModeNew3@@QAEXXZ = .text:0x0045A960; // type:function size:0x5C70 scope:global
?GetCurrentValue@Zoomer3d@@QAEXXZ = .text:0x004605D0; // type:function size:0x20 scope:global
fn_004605F0 = .text:0x004605F0; // type:function size:0x30
fn_00460620 = .text:0x00460620; // type:function size:0x20
fn_00460640 = .text:0x00460640; // type:function size:0x40
fn_00460680 = .text:0x00460680; // type:function size:0x10
fn_00460690 = .text:0x00460690; // type:function size:0x30
fn_004606C0 = .text:0x004606C0; // type:function size:0x30
fn_004606F0 = .text:0x004606F0; // type:function size:0x20
fn_00460710 = .text:0x00460710; // type:function size:0xA0
fn_004607B0 = .text:0x004607B0; // type:function size:0x20
fn_004607D0 = .text:0x004607D0; // type:function size:0x60
fn_00460890 = .text:0x00460890; // type:function size:0xB0
fn_00460940 = .text:0x00460940; // type:function size:0xB0
fn_004609F0 = .text:0x004609F0; // type:function size:0xB0
fn_00460AA0 = .text:0x00460AA0; // type:function size:0x40
fn_00460AE0 = .text:0x00460AE0; // type:function size:0x40
fn_00460B20 = .text:0x00460B20; // type:function size:0x100
fn_00460C20 = .text:0x00460C20; // type:function size:0xA0
fn_00460CC0 = .text:0x00460CC0; // type:function size:0xB0
fn_00460D70 = .text:0x00460D70; // type:function size:0x50
crt_xc_fn_00460DC0 = .text:0x00460DC0; // type:function size:0x30
crt_xc_fn_00460DF0 = .text:0x00460DF0; // type:function size:0x30
crt_xc_fn_00460E20 = .text:0x00460E20; // type:function size:0x30
fn_00460E50 = .text:0x00460E50; // type:function size:0x7A
?IsStillValid@CameraModePath@@QAEXXZ = .text:0x00460ED0; // type:function size:0x10
?GetDebugName@CameraModePath@@QAEXXZ = .text:0x00460EE0; // type:function size:0x10
??_GCameraModePath@@QAEPAXI@Z = .text:0x00460EF0; // type:function size:0x20
?SetUpNearClipping@CameraModePath@@QAEXXZ = .text:0x00460F10; // type:function size:0x3B
?Restart@CameraModePath@@QAEXXZ = .text:0x00460F50; // type:function size:0x10
?Cleanup@CameraModePath@@QAEXXZ = .text:0x00460F60; // type:function size:0x60
?Update@CameraModePath@@QAEXXZ = .text:0x00460FC0; // type:function size:0x20
?ProcessKeyMovement@CameraModePath@@QAEXG@Z = .text:0x00460FE0; // type:function size:0x110
crt_xc_fn_004610F0 = .text:0x004610F0; // type:function size:0x30
crt_xc_fn_00461120 = .text:0x00461120; // type:function size:0x1B
?IsStillValid@CameraModeScript@@QAEXXZ = .text:0x004611D0; // type:function size:0x10
?Delete@CameraModeScript@@QAEXXZ = .text:0x004611E0; // type:function size:0x10
?GetFocusThing@CameraModeScript@@QBEXXZ = .text:0x004611F0; // type:function size:0xB
?GetComputerPlayerFocus@CameraModeScript@@QAEXXZ = .text:0x00461200; // type:function size:0x10
?GetComputerPlayerFollow@CameraModeScript@@QAEXXZ = .text:0x00461210; // type:function size:0x10
?CanPlayerGestureWhenCameraMoving@CameraModeScript@@QAEXXZ = .text:0x00461220; // type:function size:0x10
?GetDebugName@CameraModeScript@@QAEXXZ = .text:0x00461230; // type:function size:0x10
??_GCameraModeScript@@QAEPAXI@Z = .text:0x00461240; // type:function size:0x2A
?Validate@CameraModeScript@@QAEXXZ = .text:0x00461270; // type:function size:0x20
?Update@CameraModeScript@@QAEXXZ = .text:0x00461290; // type:function size:0x20
fn_004612B0 = .text:0x004612B0; // type:function size:0xC0
fn_00461370 = .text:0x00461370; // type:function size:0xC0
fn_00461430 = .text:0x00461430; // type:function size:0x2BA
fn_004616F0 = .text:0x004616F0; // type:function size:0x2BA
fn_004619B0 = .text:0x004619B0; // type:function size:0x40
fn_00461A60 = .text:0x00461A60; // type:function size:0x20
?UpdatePath@CameraModeScript@@QAEXXZ = .text:0x00461AB0; // type:function size:0x90
?Arrived@CameraModeScript@@QAEXXZ = .text:0x00461B40; // type:function size:0x30
?CanExit@CameraModeScript@@QAEXXZ = .text:0x00461B70; // type:function size:0xB
crt_xc_fn_00461B80 = .text:0x00461B80; // type:function size:0x30
?Delete@CameraModeTwoObjects@@QAEXXZ = .text:0x00461C50; // type:function size:0x10
?GetDebugName@CameraModeTwoObjects@@QAEXXZ = .text:0x00461C60; // type:function size:0x10
??_GCameraModeTwoObjects@@UAEPAXI@Z = .text:0x00461C70; // type:function size:0x20 scope:global
?IsStillValid@CameraModeTwoObjects@@UAEIXZ = .text:0x00461D90; // type:function size:0x50 scope:global
?Update@CameraModeTwoObjects@@UAEXXZ = .text:0x00461DE0; // type:function size:0x550 scope:global
?ProcessKeyMovement@CameraModeTwoObjects@@QAEXG@Z = .text:0x00462330; // type:function size:0x1D0
crt_xc_fn_00462500 = .text:0x00462500; // type:function size:0x30
?Init@CarriedObject@@QEAAXXZ = .text:0x00462530; // type:function size:0x3A0
fn_004628D0 = .text:0x004628D0; // type:function size:0x30
?Get3DCarriedObject@CarriedObject@@QAEXVCARRIED_OBJECT@@@Z = .text:0x00462900; // type:function size:0x20
crt_xc_fn_00462920 = .text:0x00462920; // type:function size:0x30
crt_xc_fn_00462950 = .text:0x00462950; // type:function size:0x10
fn_00462960 = .text:0x00462960; // type:function size:0x20
?GetBaseInfo@GCitadelInfo@@UAEPAVGBaseInfo@@AAI@Z = .text:0x00462980; // type:function size:0x20 scope:global
??_GGCitadelInfo@@UAEPAXI@Z = .text:0x004629D0; // type:function size:0x20 scope:global
?GetPlayer@Container@@UAEPAVGPlayer@@XZ = .text:0x00462A50; // type:function size:0x10 scope:global
?GetCreatureBeliefType@Citadel@@UAEIXZ = .text:0x00462A60; // type:function size:0x10 scope:global
?GetCreatureBeliefListType@Citadel@@UAEIXZ = .text:0x00462A70; // type:function size:0x10 scope:global
?GetOrigin@Citadel@@UAEIXZ = .text:0x00462A80; // type:function size:0x10 scope:global
?IsSuitableForCreatureActivity@Citadel@@UAEIXZ = .text:0x00462A90; // type:function size:0x10 scope:global
?GetText@Citadel@@UAEPBDXZ = .text:0x00462AA0; // type:function size:0x10 scope:global
?IsCitadel@Citadel@@UAEIXZ = .text:0x00462AB0; // type:function size:0x10 scope:global
?GetSaveType@Citadel@@UAEIXZ = .text:0x00462AC0; // type:function size:0x10 scope:global
?GetDebugText@Citadel@@UAEPADXZ = .text:0x00462AD0; // type:function size:0x10 scope:global
??_GCitadel@@UAEPAXI@Z = .text:0x00462AE0; // type:function size:0x30 scope:global
fn_00462B10 = .text:0x00462B10; // type:function size:0x7B
?ToBeDeleted@Citadel@@UAEXH@Z = .text:0x00462B90; // type:function size:0x130 scope:global
fn_00462CC0 = .text:0x00462CC0; // type:function size:0x60
fn_00462D30 = .text:0x00462D30; // type:function size:0x10
fn_00462D40 = .text:0x00462D40; // type:function size:0x2A
fn_00462D70 = .text:0x00462D70; // type:function size:0x370
fn_004630E0 = .text:0x004630E0; // type:function size:0x10
fn_004630F0 = .text:0x004630F0; // type:function size:0x3B
?AddTown@Citadel@@QAEXPAVTown@@@Z = .text:0x00463130; // type:function size:0x60 scope:global
?FindTribeWorshipSite@Citadel@@QEAAPEAVWorshipSite@@PEBVGTribeInfo@@@Z = .text:0x00463190; // type:function size:0x30
?FindOrCreateWorshipSite@Citadel@@QAEXPAVTown@@@Z = .text:0x004631D0; // type:function size:0x50
?FindOrCreateWorshipSite@Citadel@@QEAAPEAVWorshipSite@@PEBVGTribeInfo@@@Z = .text:0x00463220; // type:function size:0x20 scope:global
?CreateCitadel@Citadel@@SAPAV1@ABUMapCoords@@PBVGCitadelHeartInfo@@EMM@Z = .text:0x00463240; // type:function size:0xF0 scope:global
?RequestANewWorshipSite@Citadel@@QEAAPEAVWorshipSite@@PEBVGTribeInfo@@@Z = .text:0x004633F0; // type:function size:0xC0
?FindNearestWorshipSitePosAngleAndSlotToPos@Citadel@@QAEXPBVGWorshipSiteInfo@@MAAVMapCoords@@AAMAAI@Z = .text:0x00463540; // type:function size:0xD0
?GetWorshipSiteAngle@Citadel@@QAEXI@Z = .text:0x00463610; // type:function size:0x60
fn_00463770 = .text:0x00463770; // type:function size:0x50
fn_004637C0 = .text:0x004637C0; // type:function size:0x20
?SetWorshipStrainSoundFrac@Citadel@@QAEXM@Z = .text:0x00463850; // type:function size:0xD0
?ProcessSpellIcons@Citadel@@QAEXXZ = .text:0x00463920; // type:function size:0x60
fn_00463980 = .text:0x00463980; // type:function size:0x20
fn_004639A0 = .text:0x004639A0; // type:function size:0x80
fn_00463A20 = .text:0x00463A20; // type:function size:0xA
fn_00463A30 = .text:0x00463A30; // type:function size:0x20
fn_00463A50 = .text:0x00463A50; // type:function size:0x50
fn_00463AA0 = .text:0x00463AA0; // type:function size:0x30
?Save@Citadel@@UAEIAAVGameOSFile@@@Z = .text:0x00463B00; // type:function size:0x2C0 scope:global
?Load@Citadel@@UAEIAAVGameOSFile@@@Z = .text:0x00463DC0; // type:function size:0x2CB scope:global
fn_00464090 = .text:0x00464090; // type:function size:0x10
fn_004640A0 = .text:0x004640A0; // type:function size:0x50
fn_004640F0 = .text:0x004640F0; // type:function size:0x50
fn_00464140 = .text:0x00464140; // type:function size:0x1A
fn_0046415A = .text:0x0046415A; // type:function size:0x6
fn_00464160 = .text:0x00464160; // type:function
fn_004641B0 = .text:0x004641B0; // type:function size:0x20
fn_004641D0 = .text:0x004641D0; // type:function size:0x40
fn_00464210 = .text:0x00464210; // type:function size:0x50
crt_xc_fn_00464260 = .text:0x00464260; // type:function size:0x30
crt_xc_fn_00464290 = .text:0x00464290; // type:function size:0x1B
crt_xc_fn_004642B0 = .text:0x004642B0; // type:function size:0x30
crt_xc_fn_004642E0 = .text:0x004642E0; // type:function size:0x30
crt_xc_fn_00464310 = .text:0x00464310; // type:function size:0x30
crt_xc_fn_00464340 = .text:0x00464340; // type:function size:0x10
fn_00464350 = .text:0x00464350; // type:function size:0x20
?GetMesh@GWorshipSiteInfo@@UBEIXZ = .text:0x00464370; // type:function size:0x10 scope:global
?GetAbodeType@GWorshipSiteInfo@@UBE?AW4ABODE_TYPE@@XZ = .text:0x00464380; // type:function size:0x10 scope:global
?GetBaseInfo@GCitadelHeartInfo@@UAEPAVGBaseInfo@@AAI@Z = .text:0x00464390; // type:function size:0x20 scope:global
??_GGCitadelHeartInfo@@UAEPAXI@Z = .text:0x004643E0; // type:function size:0x30 scope:global
crt_xc_fn_00464410 = .text:0x00464410; // type:function size:0x30
fn_00464440 = .text:0x00464440; // type:function size:0x10
?InterfaceValidToTap@LeashObj@@UAEIPAVGInterfaceStatus@@@Z = .text:0x00464450; // type:function size:0x40 scope:global
?InterfaceTap@LeashObj@@UAEIPAVGInterfaceStatus@@@Z = .text:0x00464490; // type:function size:0xF0 scope:global
?GetOverwriteInteractableToolTip@LeashObj@@UAEIXZ = .text:0x00464580; // type:function size:0x20 scope:global
fn_004645D0 = .text:0x004645D0; // type:function size:0x76
fn_00464646 = .text:0x00464646; // type:label size:0x9
fn_0046464F = .text:0x0046464F; // type:function size:0x1
??0TempleLeash@@QAE@PAVLH3DObject@@I@Z = .text:0x00464650; // type:function scope:global
?SaveObject@LeashObj@@UAEIAAULHOSFile@@ABUMapCoords@@@Z = .text:0x00464840; // type:function size:0x10 scope:global
?ValidAsInterfaceLeashTarget@LeashObj@@UAEIXZ = .text:0x00464850; // type:function size:0x10 scope:global
?GetText@LeashObj@@UAEPBDXZ = .text:0x00464860; // type:function size:0x10 scope:global
?GetQueryFirstEnumText@LeashObj@@UAE?AW4HELP_TEXT@@XZ = .text:0x00464870; // type:function size:0x10 scope:global
?GetQueryLastEnumText@LeashObj@@UAE?AW4HELP_TEXT@@XZ = .text:0x00464880; // type:function scope:global
??_GLeashObj@@UAEPAXI@Z = .text:0x00464890; // type:function scope:global
?Draw@Object@@UAEXXZ = .text:0x004648B0; // type:function size:0x10 scope:global
fn_004648C0 = .text:0x004648C0; // type:function size:0x20
fn_004648E0 = .text:0x004648E0; // type:function size:0x40
?CreateLeashes@CitadelHeart@@QAEXXZ = .text:0x00464950; // type:function size:0x60 scope:global
??0CitadelHeart@@QAE@ABVMapCoords@@PBVGCitadelHeartInfo@@PAVCitadel@@MMMH@Z = .text:0x004649B0; // type:function size:0xD0 scope:global
?GetCitadel@CitadelPart@@UAEPAVCitadel@@XZ = .text:0x00464A80; // type:function size:0x10 scope:global
?GetMesh@CitadelPart@@UBEHXZ = .text:0x00464A90; // type:function size:0xA scope:global
?GetCreatureBeliefType@CitadelPart@@UAEIXZ = .text:0x00464AA0; // type:function size:0x10 scope:global
?IsRepaired@CitadelPart@@UAEIXZ = .text:0x00464AB0; // type:function size:0x20 scope:global
?IsBuilt@CitadelPart@@UAEIXZ = .text:0x00464AD0; // type:function size:0x30 scope:global
?IsCitadelPart@CitadelPart@@UAEIXZ = .text:0x00464B00; // type:function size:0x10 scope:global
?IsCitadelPart@CitadelPart@@UAEIPAVCreature@@@Z = .text:0x00464B10; // type:function size:0x10 scope:global
?SetSpecularColor@CitadelHeart@@UAEXULH3DColor@@@Z = .text:0x00464B20; // type:function size:0x10 scope:global
?GetSpecularColor@CitadelHeart@@UAE?AULH3DColor@@XZ = .text:0x00464B30; // type:function size:0x10 scope:global
?Get3DType@CitadelHeart@@UAE?AW4LH3DObject__ObjectType@@XZ = .text:0x00464B40; // type:function size:0x10 scope:global
?GetObjectCollide@CitadelHeart@@UAEIXZ = .text:0x00464B50; // type:function size:0x10 scope:global
?GetAbodeType@CitadelHeart@@UAE?AW4ABODE_TYPE@@XZ = .text:0x00464B60; // type:function size:0x10 scope:global
?ShouldFootpathsGoRound@CitadelHeart@@UAEIXZ = .text:0x00464B70; // type:function size:0x10 scope:global
?IsCitadelHeart@CitadelHeart@@UAEIXZ = .text:0x00464B80; // type:function size:0x10 scope:global
?Draw@CitadelHeart@@UAEXXZ = .text:0x00464B90; // type:function size:0x10 scope:global
?GetSaveType@CitadelHeart@@UAEIXZ = .text:0x00464BA0; // type:function size:0x10 scope:global
?GetDebugText@CitadelHeart@@UAEPADXZ = .text:0x00464BB0; // type:function size:0x10 scope:global
??_GCitadelHeart@@UAEPAXI@Z = .text:0x00464BC0; // type:function size:0x30 scope:global
fn_00464BF0 = .text:0x00464BF0; // type:function size:0x60
?ToBeDeleted@CitadelHeart@@UAEXH@Z = .text:0x00464C50; // type:function size:0x150 scope:global
?SetToZero@CitadelHeart@@QAEXXZ = .text:0x00464DA0; // type:function size:0x80 scope:global
?Create@CitadelHeart@@SAPAV1@ABUMapCoords@@PBVGCitadelHeartInfo@@PAVCitadel@@MMMH@Z = .text:0x00464E20; // type:function size:0x9A scope:global
fn_00464F45 = .text:0x00464F45; // type:function size:0xB
fn_00464F50 = .text:0x00464F50; // type:function
?Built@CitadelHeart@@UAEIXZ = .text:0x00465000; // type:function size:0x110 scope:global
fn_004651D0 = .text:0x004651D0; // type:function size:0x60
fn_00465230 = .text:0x00465230; // type:function size:0x40
fn_00465270 = .text:0x00465270; // type:function size:0x1C0
?ConvertToPlanned@CitadelHeart@@UAEPAVPlannedMultiMapFixed@@XZ = .text:0x00465430; // type:function size:0x110 scope:global
?CreatePlannedNoFixedCheck@PlannedMultiMapFixed@@QAEPAVMultiMapFixed@@M@Z = .text:0x00465540; // type:function size:0x10 scope:global
?IsCivic@PlannedMultiMapFixed@@QAE_NXZ = .text:0x00465550; // type:function size:0x10 scope:global
?IsWonder@PlannedMultiMapFixed@@UAEIXZ = .text:0x00465560; // type:function size:0x10 scope:global
?GetAbodeType@PlannedMultiMapFixed@@QAE?AW4ABODE_TYPE@@XZ = .text:0x00465570; // type:function size:0x10 scope:global
?GetSaveType@PlannedCitadelPart@@UAEIXZ = .text:0x00465580; // type:function size:0x10 scope:global
?GetDebugText@PlannedCitadelPart@@UAEPADXZ = .text:0x00465590; // type:function size:0x10 scope:global
??_GPlannedCitadelHeart@@UAEPAXI@Z = .text:0x004655A0; // type:function size:0x20 scope:global
?Save@CitadelHeart@@UAEIAAVGameOSFile@@@Z = .text:0x004655C0; // type:function size:0x230 scope:global
?Load@CitadelHeart@@QAEXAAVGameOSFile@@@Z = .text:0x004657F0; // type:function size:0x220 scope:global
?ResolveLoad@CitadelHeart@@UAEXXZ = .text:0x00465A10; // type:function size:0x10 scope:global
?CreatePlanned@PlannedCitadelHeart@@UAEPAVMultiMapFixed@@M@Z = .text:0x00465A20; // type:function size:0x90 scope:global
?DestructionSequenceStart@CitadelHeart@@QAEXXZ = .text:0x00465AB0; // type:function size:0x50
fn_00465B10 = .text:0x00465B10; // type:function size:0x10
crt_xc_fn_00465B20 = .text:0x00465B20; // type:function size:0x30
crt_xc_fn_00465B50 = .text:0x00465B50; // type:function size:0x30
crt_xc_fn_00465B80 = .text:0x00465B80; // type:function size:0x30
crt_xc_fn_00465BB0 = .text:0x00465BB0; // type:function size:0x30
crt_xc_fn_00465BE0 = .text:0x00465BE0; // type:function size:0x1B
crt_xc_fn_00465C00 = .text:0x00465C00; // type:function size:0x30
fn_00465C30 = .text:0x00465C30; // type:function size:0x40
fn_00465C70 = .text:0x00465C70; // type:function size:0x870
?GetSaveType@SpritePos@FireGraphic@@UAEIXZ = .text:0x004664E0; // type:function size:0x10 scope:global
?GetDebugText@PSysBase@@UAEPADXZ = .text:0x004664F0; // type:function size:0x10 scope:global
??_GPSysBase@@UAEPAXI@Z = .text:0x00466500; // type:function size:0x20 scope:global
?GetSaveType@UR_PlasmaInf@@UAEIXZ = .text:0x00466520; // type:function size:0x10 scope:global
?GetDebugText@UR_PlasmaInf@@UAEPADXZ = .text:0x00466530; // type:function size:0x10 scope:global
??_GUR_PlasmaInf@@UAEPAXI@Z = .text:0x00466540; // type:function size:0x20 scope:global
fn_00466560 = .text:0x00466560; // type:function size:0x40
?Process@CitadelHeart@@UAEIXZ = .text:0x004665A0; // type:function size:0x20 scope:global
?DrawLantern@CitadelHeart@@QAEXXZ = .text:0x004665C0; // type:function size:0x170
fn_00466730 = .text:0x00466730; // type:function size:0x480
fn_00466BB0 = .text:0x00466BB0; // type:function size:0x1E0
fn_00466D90 = .text:0x00466D90; // type:function size:0x340
?DrawNow@CitadelHeart@@QAEXXZ = .text:0x004670D0; // type:function size:0x290
fn_00467360 = .text:0x00467360; // type:function size:0x40
?SaveObject@CitadelHeart@@UAEIAAULHOSFile@@ABUMapCoords@@@Z = .text:0x004673A0; // type:function size:0x200 scope:global
?CallVirtualFunctionsForCreation@CitadelHeart@@UAEXABUMapCoords@@@Z = .text:0x004675A0; // type:function size:0x2D0 scope:global
?GetWorldMatrix@CitadelHeart@@UAEXPAULHMatrix@@@Z = .text:0x00467870; // type:function size:0x20 scope:global
fn_00467890 = .text:0x00467890; // type:function size:0x2A0
?ChecksVerticesVObjects@CitadelHeart@@UAEIXZ = .text:0x00467B30; // type:function size:0x10 scope:global
?InteractsWithPhysicsObjects@CitadelHeart@@UAEIXZ = .text:0x00467B40; // type:function size:0x20 scope:global
?GetPhysicsConstantsType@CitadelHeart@@UAEIXZ = .text:0x00467B60; // type:function size:0x10 scope:global
?SetUpPhysOb@CitadelHeart@@UAEXPAUPhysOb@@@Z = .text:0x00467B70; // type:function size:0x40 scope:global
?ReactToPhysicsImpact@CitadelHeart@@UAEXPAVPhysicsObject@@_N@Z = .text:0x00467BB0; // type:function size:0x160 scope:global
?GetDoorPos@CitadelHeart@@UAEPAUMapCoords@@PAU2@@Z = .text:0x00467D10; // type:function size:0xB0 scope:global
fn_00467DD0 = .text:0x00467DD0; // type:function size:0x3B
?IsCivic@PlannedTownCitadelHeart@@UAEIXZ = .text:0x00467E10; // type:function size:0x10 scope:global
?IsWonder@PlannedTownCitadelHeart@@UAEIXZ = .text:0x00467E20; // type:function size:0x10 scope:global
?GetAbodeType@PlannedTownCitadelHeart@@UAE?AW4ABODE_TYPE@@XZ = .text:0x00467E30; // type:function size:0x10 scope:global
?GetSaveType@PlannedTownCitadelHeart@@UAEIXZ = .text:0x00467E40; // type:function size:0x10 scope:global
?GetDebugText@PlannedTownCitadelHeart@@UAEPADXZ = .text:0x00467E50; // type:function size:0x10 scope:global
??_GPlannedTownCitadelHeart@@UAEPAXI@Z = .text:0x00467E60; // type:function size:0x20 scope:global
?ToBeDeleted@PlannedTownCitadelHeart@@UAEXH@Z = .text:0x00467E80; // type:function size:0x20 scope:global
?CreatePlanned@PlannedTownCitadelHeart@@UAEPAVMultiMapFixed@@M@Z = .text:0x00467EA0; // type:function size:0x50 scope:global
?CreatePlannedNoFixedCheck@PlannedTownCitadelHeart@@UAEPAVMultiMapFixed@@M@Z = .text:0x00467EF0; // type:function size:0xCA scope:global
?Save@PlannedTownCitadelHeart@@UAEIAAVGameOSFile@@@Z = .text:0x00467FC0; // type:function size:0x30 scope:global
?Load@PlannedTownCitadelHeart@@UAEIAAVGameOSFile@@@Z = .text:0x00467FF0; // type:function size:0x30 scope:global
?GetPlayer@CitadelHeart@@UAEPAVGPlayer@@XZ = .text:0x00468020; // type:function size:0x30 scope:global
fn_00468050 = .text:0x00468050; // type:function size:0x60
?GetScriptObjectType@CitadelHeart@@UAEIXZ = .text:0x004680B0; // type:function size:0x10 scope:global
?GetRoutePlanRadius@CitadelHeart@@UAEMPAVCreature@@@Z = .text:0x004680C0; // type:function size:0x10 scope:global
?AddToRoutePlan@CitadelHeart@@UAEXPAURPHolder@@PAVCreature@@HP6AXHUPoint2D@@MH@Z@Z = .text:0x004680D0; // type:function size:0x3B0 scope:global
??4Point2D@@QAEXABV0@@Z = .text:0x00468480; // type:function size:0x20 scope:global
fn_004684A0 = .text:0x004684A0; // type:function size:0x50
fn_004684F0 = .text:0x004684F0; // type:function size:0x1C0
fn_004686B0 = .text:0x004686B0; // type:function size:0x240
fn_004688F0 = .text:0x004688F0; // type:function size:0x4B
fn_00468940 = .text:0x00468940; // type:function size:0x2F0
?GetActualObjectToEffect@CitadelHeart@@UAEPAXPAVGPlayer@@_N@Z = .text:0x00468C30; // type:function size:0x170 scope:global
?DestroyedByEffect@CitadelHeart@@UAEIPAVGPlayer@@M@Z = .text:0x00468DA0; // type:function size:0x10 scope:global
fn_00468DB0 = .text:0x00468DB0; // type:function size:0x10
?CreateBuildingSite@CitadelHeart@@UAEIXZ = .text:0x00468DC0; // type:function size:0x30 scope:global
?CreateBuildingSite@PlannedCitadelHeart@@UAEIXZ = .text:0x00468DF0; // type:function size:0x30 scope:global
?SaveObject@CitadelEntrance@@UAEIAAULHOSFile@@ABUMapCoords@@@Z = .text:0x00468E50; // type:function size:0x10 scope:global
?GetSaveType@CitadelEntrance@@UAEIXZ = .text:0x00468E60; // type:function size:0x10 scope:global
?GetDebugText@CitadelEntrance@@UAEPADXZ = .text:0x00468E70; // type:function size:0x10 scope:global
??_GCitadelEntrance@@UAEPAXI@Z = .text:0x00468E80; // type:function size:0x30 scope:global
fn_00468EB0 = .text:0x00468EB0; // type:function size:0x40
?InterfaceTap@CitadelEntrance@@UAEIPAVGInterfaceStatus@@@Z = .text:0x00468EF0; // type:function size:0x60 scope:global
?InterfaceValidToTap@CitadelEntrance@@UAEIPAVGInterfaceStatus@@@Z = .text:0x00468F50; // type:function size:0x40 scope:global
?GetQueryFirstEnumText@CitadelEntrance@@UAE?AW4HELP_TEXT@@XZ = .text:0x00468F90; // type:function size:0x10 scope:global
?GetQueryLastEnumText@CitadelEntrance@@UAE?AW4HELP_TEXT@@XZ = .text:0x00468FA0; // type:function size:0x10 scope:global
?CreateCollideData@CitadelHeart@@UAEXXZ = .text:0x00468FB0; // type:function scope:global
?ResolveLoad@CitadelEntrance@@UAEXXZ = .text:0x00469380; // type:function size:0x10 scope:global
crt_xc_fn_00469390 = .text:0x00469390; // type:function size:0x30
crt_xc_fn_004693C0 = .text:0x004693C0; // type:function size:0x30
??0CitadelPart@@QAE@ABVMapCoords@@PBVGCitadelPartInfo@@PAVCitadel@@MMMH@Z = .text:0x004693F0; // type:function size:0xA0 scope:global
?Process@CitadelPart@@UAEIXZ = .text:0x00469490; // type:function size:0x10 scope:global
?ConvertToPlanned@CitadelPart@@UAEPAVPlannedMultiMapFixed@@XZ = .text:0x004694A0; // type:function size:0x10 scope:global
?Get3DType@CitadelPart@@UAE?AW4LH3DObject__ObjectType@@XZ = .text:0x004694B0; // type:function size:0x10 scope:global
?SaveObject@CitadelPart@@UAEIAAULHOSFile@@ABUMapCoords@@@Z = .text:0x004694C0; // type:function size:0x10 scope:global
?GetSaveType@CitadelPart@@UAEIXZ = .text:0x004694D0; // type:function size:0x10 scope:global
?GetDebugText@CitadelPart@@UAEPADXZ = .text:0x004694E0; // type:function size:0x10 scope:global
?ShouldFootpathsGoRound@CitadelPart@@UAEIXZ = .text:0x004694F0; // type:function size:0x10 scope:global
??_GCitadelPart@@UAEPAXI@Z = .text:0x00469500; // type:function size:0x30 scope:global
fn_00469530 = .text:0x00469530; // type:function size:0x10
?ToBeDeleted@CitadelPart@@UAEXH@Z = .text:0x00469540; // type:function size:0x7A scope:global
?DestroyedByEffect@CitadelPart@@UAEIPAVGPlayer@@M@Z = .text:0x004695C0; // type:function size:0x10 scope:global
?CanBeDestroyedBySpell@CitadelPart@@UAEIPAVSpell@@@Z = .text:0x004695D0; // type:function size:0x10 scope:global
fn_004695E0 = .text:0x004695E0; // type:function size:0x30
fn_00469610 = .text:0x00469610; // type:function size:0x50
?CreatePlanned@PlannedMultiMapFixed@@QAEPAVMultiMapFixed@@M@Z = .text:0x00469660; // type:function size:0x10 scope:global
??_GPlannedCitadelPart@@UAEPAXI@Z = .text:0x00469670; // type:function size:0x20 scope:global
?ToBeDeleted@PlannedCitadelPart@@UAEXH@Z = .text:0x00469690; // type:function size:0x60 scope:global
?Save@PlannedCitadelPart@@UAEIAAVGameOSFile@@@Z = .text:0x004696F0; // type:function size:0x30 scope:global
?Load@PlannedCitadelPart@@UAEIAAVGameOSFile@@@Z = .text:0x00469720; // type:function size:0x30 scope:global
?GetPlayer@CitadelPart@@UAEPAVGPlayer@@XZ = .text:0x00469750; // type:function size:0xA scope:global
?CallVirtualFunctionsForCreation@CitadelPart@@UAEXABUMapCoords@@@Z = .text:0x00469760; // type:function size:0x20 scope:global
?GetActualObjectToEffect@CitadelPart@@UAEPAXPAVGPlayer@@_N@Z = .text:0x00469780; // type:function size:0x70 scope:global
?ReactToPhysicsImpact@CitadelPart@@UAEXPAVPhysicsObject@@_N@Z = .text:0x004697F0; // type:function size:0x40 scope:global
?Save@CitadelPart@@UAEIAAVGameOSFile@@@Z = .text:0x00469830; // type:function size:0x80 scope:global
?Load@CitadelPart@@QAEXAAVGameOSFile@@@Z = .text:0x004698B0; // type:function size:0x80 scope:global
crt_xc_fn_00469930 = .text:0x00469930; // type:function size:0x30
fn_00469960 = .text:0x00469960; // type:function size:0x30
?Init@CPController@@QAEXXZ = .text:0x00469990; // type:function size:0x30 scope:global
?Init@CPController@@SAXPAULH3DMesh@@@Z = .text:0x004699C0; // type:function size:0x420 scope:global
fn_00469DE0 = .text:0x00469DE0; // type:function size:0x1A
?RemovePerson@CPController@@QAEXPAVLiving@@@Z = .text:0x00469E00; // type:function size:0x70
fn_00469E70 = .text:0x00469E70; // type:function size:0x1B0
fn_0046A020 = .text:0x0046A020; // type:function size:0x120
fn_0046A140 = .text:0x0046A140; // type:function size:0xD0
fn_0046A210 = .text:0x0046A210; // type:function size:0x30
fn_0046A240 = .text:0x0046A240; // type:function size:0x440
fn_0046A680 = .text:0x0046A680; // type:function size:0x190
crt_xc_fn_0046A810 = .text:0x0046A810; // type:function size:0x30
crt_xc_fn_0046A840 = .text:0x0046A840; // type:function size:0x1B
??0NewCollideDescriptor@@QAE@PAVObject@@@Z = .text:0x0046A860; // type:function size:0x270 scope:global
fn_0046AAD0 = .text:0x0046AAD0; // type:function size:0x20
??_DNewCollideDescriptor@@QAEXXZ = .text:0x0046AAF0; // type:function size:0x20 scope:global
?Init@NewCollideDescriptor@@QAEXPAVGame3DObject@@@Z = .text:0x0046AB10; // type:function size:0x270 scope:global
?GetNext@NewCollideDescriptor@@QAEPAUMapCell@@XZ = .text:0x0046AD80; // type:function size:0xD0 scope:global
crt_xc_fn_0046AE50 = .text:0x0046AE50; // type:function size:0x30
crt_xc_fn_0046AE80 = .text:0x0046AE80; // type:function size:0x30
crt_xc_fn_0046AEB0 = .text:0x0046AEB0; // type:function size:0x1B
crt_xc_fn_0046AED0 = .text:0x0046AED0; // type:function size:0x10
fn_0046AEE0 = .text:0x0046AEE0; // type:function size:0x20
?ConfigGetFPS@@YAXXZ = .text:0x0046B0B0; // type:function size:0x140 scope:global
?Process@Config@@QAEXXZ = .text:0x0046B1F0; // type:function size:0xA0 scope:global
?ProcessOneGameTurn@Config@@QAEXXZ = .text:0x0046B290; // type:function size:0x330 scope:global
?Record@Config@@QAEXPAD@Z = .text:0x0046B5E0; // type:function size:0x50
?Record@Config@@QAEXPADAAVMapCoords@@@Z = .text:0x0046B630; // type:function size:0x80
fn_0046B6B0 = .text:0x0046B6B0; // type:function size:0x70
?Write@LHOSFile@@QAEXPBD@Z = .text:0x0046B720; // type:function size:0x30 scope:global
fn_0046B750 = .text:0x0046B750; // type:function size:0x10
crt_xc_fn_0046B760 = .text:0x0046B760; // type:function size:0x30
crt_xc_fn_0046B790 = .text:0x0046B790; // type:function size:0x1B
crt_xc_fn_0046B7B0 = .text:0x0046B7B0; // type:function size:0x30
crt_xc_fn_0046B7E0 = .text:0x0046B7E0; // type:function size:0x10
fn_0046B7F0 = .text:0x0046B7F0; // type:function size:0x30
?GetBaseInfo@GContainerInfo@@UAEPAVGBaseInfo@@AAI@Z = .text:0x0046B820; // type:function size:0x20 scope:global
??_GGContainerInfo@@UAEPAXI@Z = .text:0x0046B880; // type:function size:0x20 scope:global
fn_0046B8A0 = .text:0x0046B8A0; // type:function size:0x60
??_GContainer@@UAEPAXI@Z = .text:0x0046B900; // type:function size:0x20 scope:global
?Save@Container@@UAEIAAVGameOSFile@@@Z = .text:0x0046B920; // type:function size:0x40 scope:global
?Load@Container@@UAEIAAVGameOSFile@@@Z = .text:0x0046B960; // type:function size:0x40 scope:global
crt_xc_fn_0046B9A0 = .text:0x0046B9A0; // type:function size:0x30
crt_xc_fn_0046B9D0 = .text:0x0046B9D0; // type:function size:0x30
crt_xc_fn_0046BA00 = .text:0x0046BA00; // type:function size:0x1B
crt_xc_fn_0046BA20 = .text:0x0046BA20; // type:function size:0x20
crt_xc_fn_0046BA40 = .text:0x0046BA40; // type:function size:0x20
crt_xc_fn_0046BA60 = .text:0x0046BA60; // type:function size:0x20
??0CHand@@QAE@VLHPoint@@PAVGInterfaceStatus@@@Z = .text:0x0046BA80; // type:function size:0x400 scope:global
?AllowCameraTricons@HandState@@QAEXXZ = .text:0x0046BE80; // type:function size:0x10 scope:global
?Enter@HandStateInvisible@@UAEXXZ = .text:0x0046BE90; // type:function size:0x3A scope:global
?Exit@HandStateInvisible@@UAEXXZ = .text:0x0046BED0; // type:function size:0xB scope:global
?Update@HandStateInvisible@@UAEXMPAULHMatrix@@@Z = .text:0x0046BEE0; // type:function size:0x10 scope:global
fn_0046BF20 = .text:0x0046BF20; // type:function size:0x30
fn_0046BF50 = .text:0x0046BF50; // type:function size:0x10
fn_0046BF60 = .text:0x0046BF60; // type:function size:0x1A
?MorphTexture@CHand@@UAEXXZ = .text:0x0046BF80; // type:function size:0x1B scope:global
fn_0046BFA0 = .text:0x0046BFA0; // type:function size:0x10
?GetMaxForce@CHand@@QAEXXZ = .text:0x0046BFB0; // type:function size:0x20
fn_0046BFD0 = .text:0x0046BFD0; // type:function size:0x70
fn_0046C040 = .text:0x0046C040; // type:function size:0x10
?StartFixedPosAnimation@CHand@@QAEXAAULHPoint@@H@Z = .text:0x0046C050; // type:function size:0x30 scope:global
fn_0046C0D0 = .text:0x0046C0D0; // type:function size:0xE0
?Show@CHand@@QAEXH@Z = .text:0x0046C1B0; // type:function size:0xA0
?ToggleLeftRight@CHand@@QAEXXZ = .text:0x0046C260; // type:function size:0x80 scope:global
fn_0046C2E0 = .text:0x0046C2E0; // type:function size:0x70
?UpdateTime@CHand@@UAEXH@Z = .text:0x0046C350; // type:function size:0x30 scope:global
?SetSize@CHand@@QAEXM@Z = .text:0x0046C4A0; // type:function size:0x60 scope:global
fn_0046C500 = .text:0x0046C500; // type:function size:0x50
?PrepareForDrawing@CHand@@UAEXXZ = .text:0x0046C550; // type:function size:0x610 scope:global
?OperateInteractionCamera@CHand@@QAEXH@Z = .text:0x0046CB60; // type:function size:0x16A
crt_xc_fn_0046CCD0 = .text:0x0046CCD0; // type:function size:0x20
crt_xc_fn_0046CCF0 = .text:0x0046CCF0; // type:function size:0x20
?GetRequiredState@CHand@@QAEXXZ = .text:0x0046CD10; // type:function size:0x238
fn_0046CF80 = .text:0x0046CF80; // type:function size:0x100
fn_0046D080 = .text:0x0046D080; // type:function size:0x70
?AddForDrawing@CHand@@UAEIXZ = .text:0x0046D0F0; // type:function size:0xB scope:global
?AddDrawing@CHand@@QAEXXZ = .text:0x0046D100; // type:function size:0x110
?Draw@CHand@@QAEXXZ = .text:0x0046D210; // type:function size:0xB0
_LoadBinary_5CHandFPci = .text:0x0046D2C0; // type:function size:0x320 scope:global
?SaveBinary@CHand@@QAEXPAD@Z = .text:0x0046D5F0; // type:function size:0x130
fn_0046D720 = .text:0x0046D720; // type:function size:0x20
fn_0046D760 = .text:0x0046D760; // type:function size:0x270
fn_0046D9D0 = .text:0x0046D9D0; // type:function size:0x120
fn_0046DAF0 = .text:0x0046DAF0; // type:function size:0x7B
fn_0046DB70 = .text:0x0046DB70; // type:function size:0xC0
fn_0046DC30 = .text:0x0046DC30; // type:function size:0x1A0
?ThrowObject@CHand@@QAEXXZ = .text:0x0046DDD0; // type:function size:0x70 scope:global
fn_0046DE40 = .text:0x0046DE40; // type:function size:0xC0
fn_0046DF00 = .text:0x0046DF00; // type:function size:0x48
fn_0046DF60 = .text:0x0046DF60; // type:function size:0x200
fn_0046E160 = .text:0x0046E160; // type:function size:0x190
fn_0046E2F0 = .text:0x0046E2F0; // type:function size:0x190
fn_0046E490 = .text:0x0046E490; // type:function size:0x20
?GetCreatureToGiveTo@CHand@@QAEXXZ = .text:0x0046E4B0; // type:function size:0x30
?GameTurnUpdate@CHand@@QAEXXZ = .text:0x0046E4E0; // type:function size:0xB0 scope:global
fn_0046E590 = .text:0x0046E590; // type:function size:0x40
fn_0046E5D0 = .text:0x0046E5D0; // type:function size:0x10
?DrawTheHeldObject@HandState@@QAEXXZ = .text:0x0046E5E0; // type:function size:0x10 scope:global
fn_0046E5F0 = .text:0x0046E5F0; // type:function size:0x40
fn_0046E630 = .text:0x0046E630; // type:function size:0x10
fn_0046E640 = .text:0x0046E640; // type:function size:0x40
?DrawSpellInHand@CHand@@QAEXXZ = .text:0x0046E680; // type:function size:0x100
fn_0046E780 = .text:0x0046E780; // type:function size:0x30
fn_0046E7B0 = .text:0x0046E7B0; // type:function size:0xE0
fn_0046E890 = .text:0x0046E890; // type:function size:0x30
fn_0046E8C0 = .text:0x0046E8C0; // type:function size:0x70
fn_0046E930 = .text:0x0046E930; // type:function size:0x1E0
fn_0046EB10 = .text:0x0046EB10; // type:function size:0x1E0
fn_0046ECF0 = .text:0x0046ECF0; // type:function size:0xC0
fn_0046EDB0 = .text:0x0046EDB0; // type:function size:0x10
crt_xc_fn_0046EDC0 = .text:0x0046EDC0; // type:function size:0x30
crt_xc_fn_0046EDF0 = .text:0x0046EDF0; // type:function size:0x1B
crt_xc_fn_0046EE10 = .text:0x0046EE10; // type:function size:0x20
fn_0046EE30 = .text:0x0046EE30; // type:function size:0x20
fn_0046EE50 = .text:0x0046EE50; // type:function size:0x10
fn_0046EE60 = .text:0x0046EE60; // type:function size:0x70
fn_0046EED0 = .text:0x0046EED0; // type:function size:0x100
fn_0046EFD0 = .text:0x0046EFD0; // type:function size:0xA
?GetDisplayText@ControlKey@@QAEXPA_W@Z = .text:0x0046EFE0; // type:function size:0x4A scope:global
fn_0046F030 = .text:0x0046F030; // type:function size:0x10
fn_0046F040 = .text:0x0046F040; // type:function size:0x10
fn_0046F050 = .text:0x0046F050; // type:function size:0x100
?GetDisplayText@ControlMouse@@QAEXPA_W@Z = .text:0x0046F180; // type:function size:0x20 scope:global
??0BindableAction@@QAE@XZ = .text:0x0046F1A0; // type:function size:0x40 scope:global
fn_0046F1E0 = .text:0x0046F1E0; // type:function size:0x1B
fn_0046F200 = .text:0x0046F200; // type:function size:0x20
fn_0046F240 = .text:0x0046F240; // type:function size:0x20
fn_0046F260 = .text:0x0046F260; // type:function size:0x50
fn_0046F2B0 = .text:0x0046F2B0; // type:function size:0x40
?CompareKeys@BindableAction@@QAEXVLH_KEY@@V2@@Z = .text:0x0046F360; // type:function size:0x5B
?IsKeyDown@BindableAction@@SA_NW4LH_KEY@@@Z = .text:0x0046F3C0; // type:function size:0x80 scope:global
fn_0046F460 = .text:0x0046F460; // type:function size:0x20
fn_0046F480 = .text:0x0046F480; // type:function size:0x40
?IsKeyBeingPressed@BindableAction@@QAE_NXZ = .text:0x0046F4C0; // type:function size:0x3A scope:global
?IsMouseBeingPressed@BindableAction@@QAEXXZ = .text:0x0046F500; // type:function size:0x70
fn_0046F590 = .text:0x0046F590; // type:function size:0x60
fn_0046F5F0 = .text:0x0046F5F0; // type:function size:0x70
fn_0046F660 = .text:0x0046F660; // type:function size:0x60
??0ControlMap@@QAE@XZ = .text:0x0046F6C0; // type:function size:0x70 scope:global
fn_0046F730 = .text:0x0046F730; // type:function size:0x20
fn_0046F750 = .text:0x0046F750; // type:function size:0x4A
?LoadDefaults@ControlMap@@QAEXXZ = .text:0x0046F890; // type:function size:0xF60
?GetTextL@HelpTextData@@QAEXI@Z = .text:0x004707F0; // type:function size:0x20
?GetText@ControlMap@@QAEXIPA_W@Z = .text:0x00470910; // type:function size:0xB0 scope:global
fn_00470A00 = .text:0x00470A00; // type:function size:0x60
fn_00470A60 = .text:0x00470A60; // type:function size:0x50
?ProcessActionsPerformed@ControlMap@@QAEXXZ = .text:0x00470AB0; // type:function size:0x40 scope:global
?IsActionPerformed@ControlMap@@QAEXVBINDABLE_ACTIONS@1@@Z = .text:0x00470AF0; // type:function size:0x40
fn_00470B30 = .text:0x00470B30; // type:function size:0x2A0
fn_00470DE0 = .text:0x00470DE0; // type:function size:0x40
fn_00470E20 = .text:0x00470E20; // type:function size:0x5B
fn_00470E80 = .text:0x00470E80; // type:function size:0x2A0
fn_00471130 = .text:0x00471130; // type:function size:0x40
fn_00471170 = .text:0x00471170; // type:function size:0x5B
fn_004712D0 = .text:0x004712D0; // type:function size:0x80
?LoadCurrentProfileKeys@ControlMap@@QAEXXZ = .text:0x004713D0; // type:function size:0x120
?GetClickTypeForAction@ControlMap@@QAEXVBINDABLE_ACTIONS@1@@Z = .text:0x00471620; // type:function size:0x11D
fn_00471760 = .text:0x00471760; // type:function size:0xF0
fn_00471850 = .text:0x00471850; // type:function size:0x5B
fn_00471910 = .text:0x00471910; // type:function size:0x2A
fn_00471940 = .text:0x00471940; // type:function size:0xE0
crt_xc_fn_00471A20 = .text:0x00471A20; // type:function size:0x30
??GCPUCheck@@UAE@XZ = .text:0x00471A80; // type:function size:0x20 scope:global
fn_00471AA0 = .text:0x00471AA0; // type:function size:0x3B
fn_004729A0 = .text:0x004729A0; // type:function size:0x70
crt_xc_fn_00472A10 = .text:0x00472A10; // type:function size:0x30
crt_xc_fn_00472A40 = .text:0x00472A40; // type:function size:0x1B
crt_xc_fn_00472A60 = .text:0x00472A60; // type:function size:0x30
crt_xc_fn_00472A90 = .text:0x00472A90; // type:function size:0x30
crt_xc_fn_00472AC0 = .text:0x00472AC0; // type:function size:0x30
crt_xc_fn_00472AF0 = .text:0x00472AF0; // type:function size:0x20
crt_xc_fn_00472B10 = .text:0x00472B10; // type:function size:0x30
crt_xc_fn_00472B40 = .text:0x00472B40; // type:function size:0x30
crt_xc_fn_00472B70 = .text:0x00472B70; // type:function size:0x20
crt_xc_fn_00472B90 = .text:0x00472B90; // type:function size:0x30
crt_xc_fn_00472BC0 = .text:0x00472BC0; // type:function size:0x10
fn_00472BD0 = .text:0x00472BD0; // type:function size:0x40
?GetBaseInfo@CreatureInfo@@UAEPAVGBaseInfo@@AAI@Z = .text:0x00472C10; // type:function size:0x20 scope:global
??_GCreatureInfo@@UAEPAXI@Z = .text:0x00472C80; // type:function size:0x30 scope:global
crt_xc_fn_00472CB0 = .text:0x00472CB0; // type:function size:0x10
fn_00472CC0 = .text:0x00472CC0; // type:function size:0x30
?GetBaseInfo@DifferentCreatureInfo@@UAEPAVGBaseInfo@@AAI@Z = .text:0x00472CF0; // type:function size:0x20 scope:global
??_GDifferentCreatureInfo@@UAEPAXI@Z = .text:0x00472D50; // type:function size:0x20 scope:global
crt_xc_fn_00472D70 = .text:0x00472D70; // type:function size:0x10
fn_00472D80 = .text:0x00472D80; // type:function size:0x10
?ProcessState@Creature@@QAEXXZ = .text:0x00472DC0; // type:function size:0xDB0 scope:global
??_GCreaturePlan@@UAEPAXI@Z = .text:0x00473B70; // type:function size:0x20 scope:global
?ControlCallback@SetupLandscapeBox@@QAEXHPAVSetupBox@@PAVSetupControl@@HH@Z = .text:0x00473B90; // type:function size:0x220
??_GCreatureSubAction@@UAEPAXI@Z = .text:0x00473DD0; // type:function size:0x20 scope:global
??_GCreatureSubActionAgenda@@UAEPAXI@Z = .text:0x00473DF0; // type:function size:0x50 scope:global
?SetTowardsAngle@MobileWallHug@@UAEXG@Z = .text:0x00473E40; // type:function size:0x10 scope:global
?SetStateSpeed@Living@@UAEXXZ = .text:0x00473E50; // type:function size:0x10 scope:global
?IsScriptState@Living@@UBE_NW4VILLAGER_STATES@@@Z = .text:0x00473E60; // type:function size:0x10 scope:global
?IsScriptInterruptableState@Living@@UBE_NW4VILLAGER_STATES@@@Z = .text:0x00473E70; // type:function size:0x10 scope:global
?IsStateExitFunctionSameAs@Living@@UBE_NW4VILLAGER_STATES@@@Z = .text:0x00473E80; // type:function size:0x10 scope:global
?IsInterestedInFoodObject@Living@@UAE_NPAVObject@@@Z = .text:0x00473E90; // type:function size:0x10 scope:global
?SetupReactToFallingTree@Living@@UAEXPAVGameThingWithPos@@PAVReaction@@@Z = .text:0x00473EA0; // type:function size:0x10 scope:global
?ReactToDroppedByHandPriority@Living@@UAEEPAVReaction@@0@Z = .text:0x00473EB0; // type:function size:0x10 scope:global
?ReactToFallingTreePriority@Living@@UAEEPAVReaction@@0@Z = .text:0x00473EC0; // type:function size:0x10 scope:global
?IsChild@Living@@UAEIXZ = .text:0x00473ED0; // type:function size:0x10 scope:global
?IsPosValidForTurnAngle@Villager@@UAE_NABUMapCoords@@@Z = .text:0x00473EE0; // type:function size:0x10 scope:global
?GetAnimId@Creature@@UAE?AW4ANIM_LIST@@XZ = .text:0x00473EF0; // type:function size:0x10 scope:global
?CallIntoAnimationFunction@Creature@@UAEHW4VILLAGER_STATES@@@Z = .text:0x00473F00; // type:function size:0x10 scope:global
?CallOutofAnimationFunction@Creature@@UAEHW4VILLAGER_STATES@@@Z = .text:0x00473F10; // type:function size:0x10 scope:global
?GetPlayer@Creature@@UAEPAVGPlayer@@XZ = .text:0x00473F20; // type:function size:0x10 scope:global
?RemoveDance@Creature@@UAEXXZ = .text:0x00473F30; // type:function size:0xB scope:global
?IsFinalState@Creature@@UAE_NW4VILLAGER_STATES@@@Z = .text:0x00473F40; // type:function size:0x10 scope:global
?IsReachable@Creature@@UAEIXZ = .text:0x00473F50; // type:function size:0x10 scope:global
?ValidForPlaceInHand@Creature@@UAEIPAVGInterfaceStatus@@@Z = .text:0x00473F60; // type:function size:0x10 scope:global
?GetCreatureBeliefType@Creature@@UAEIXZ = .text:0x00473F70; // type:function size:0x10 scope:global
?GetCreatureMimicType@Creature@@UAEIXZ = .text:0x00473F80; // type:function size:0x10 scope:global
?SetAnim__i@Creature@@UAEXH@Z = .text:0x00473F90; // type:function size:0x10 scope:global
?CallExitStateFunction@Creature@@UAEIW4VILLAGER_STATES@@@Z = .text:0x00473FA0; // type:function size:0x10 scope:global
?CallEntryStateFunctionUc@Creature@@UAEIW4VILLAGER_STATES@@@Z = .text:0x00473FB0; // type:function size:0x10 scope:global
?CallEntryStateFunctionUcUc@Creature@@UAEIW4VILLAGER_STATES@@0@Z = .text:0x00473FC0; // type:function size:0x10 scope:global
?IsSuitableForCreatureActivity@Creature@@UAEIXZ = .text:0x00473FD0; // type:function size:0x10 scope:global
?CanBePickedUp@Creature@@UAEIXZ = .text:0x00473FE0; // type:function size:0x10 scope:global
?CanBeExaminedByCreature@Creature@@UAEIPAVCreature@@@Z = .text:0x00473FF0; // type:function size:0x10 scope:global
?DanceType@Creature@@QAEXXZ = .text:0x00474000; // type:function size:0x10
?CastCreature@Creature@@UAEPAVCreature@@XZ = .text:0x00474010; // type:function size:0x10 scope:global
?IsActivityObjectWhichCompassionAppliesTo@Creature@@UAEIPAVCreature@@@Z = .text:0x00474020; // type:function size:0x10 scope:global
?IsActivityObjectWhichPlayfulnessAppliesTo@Creature@@UAEIPAVCreature@@@Z = .text:0x00474030; // type:function size:0x10 scope:global
?CanBeSleptNextToByCreature@Creature@@UAEIPAVCreature@@@Z = .text:0x00474040; // type:function size:0x10 scope:global
?CanBeEatenByCreature@Creature@@UAEIPAVCreature@@@Z = .text:0x00474050; // type:function size:0x10 scope:global
?CanBeBefriendedByCreature@Creature@@UAEIPAVCreature@@@Z = .text:0x00474060; // type:function size:0x10 scope:global
?CanBePlayedWithByCreature@Creature@@UAEIPAVCreature@@@Z = .text:0x00474070; // type:function size:0x10 scope:global
?IsCreature2@Creature@@UAE_NXZ = .text:0x00474080; // type:function size:0x10 scope:global
?IsCreature@Creature@@UAEIPAVCreature@@@Z = .text:0x00474090; // type:function size:0x10 scope:global
?CanBeFoughtByCreature@Creature@@UAEIPAVCreature@@@Z = .text:0x004740A0; // type:function size:0x10 scope:global
?CanBeFrighteningToCreature@Creature@@UAEIPAVCreature@@@Z = .text:0x004740B0; // type:function size:0x10 scope:global
?GetSaveType@Creature@@UAEIXZ = .text:0x004740C0; // type:function size:0x10 scope:global
?GetDebugText@Creature@@UAEPADXZ = .text:0x004740D0; // type:function size:0x10 scope:global
??_GGAlignment@@UAEPAXI@Z = .text:0x004740E0; // type:function size:0x20 scope:global
??_GCreature@@UAEPAXI@Z = .text:0x00474100; // type:function size:0x30 scope:global
fn_00474130 = .text:0x00474130; // type:function size:0x220
?Initialise@Creature@@QAEXABVMapCoords@@PBVCreatureInfo@@PAVGPlayer@@@Z = .text:0x00474350; // type:function size:0x340
??0Creature@@QAE@XZ = .text:0x00474690; // type:function size:0x200 scope:global
??0MobileWallHug@@QAE@XZ = .text:0x00474890; // type:function size:0x50 scope:global
??_GMobile@@UAEPAXI@Z = .text:0x004748E0; // type:function size:0x30 scope:global
??_GMobileWallHug@@UAEPAXI@Z = .text:0x00474910; // type:function size:0x30 scope:global
?DecideWhatToDo@Living@@UAEIXZ = .text:0x00474940; // type:function size:0x10 scope:global
?SetupReactToFire@Living@@UAEXPAVGameThingWithPos@@PAVReaction@@@Z = .text:0x00474950; // type:function size:0x10 scope:global
?ReactToFirePriority@Living@@UAEEPAVReaction@@0@Z = .text:0x00474960; // type:function size:0x10 scope:global
?ReactToHandPickUpPriority@Living@@UAEEPAVReaction@@0@Z = .text:0x00474970; // type:function size:0x10 scope:global
?ReactToHandUsingTotemPriority@Living@@UAEEPAVReaction@@0@Z = .text:0x00474980; // type:function size:0x10 scope:global
?ReactToObjectCrushedPriority@Living@@UAEEPAVReaction@@0@Z = .text:0x00474990; // type:function size:0x10 scope:global
?ReactToFightPriority@Living@@UAEEPAVReaction@@0@Z = .text:0x004749A0; // type:function size:0x10 scope:global
?ReactToTeleportPriority@Living@@UAEEPAVReaction@@0@Z = .text:0x004749B0; // type:function size:0x10 scope:global
?ReactToHandPuttingStuffInStoragePitPriority@Living@@UAEEPAVReaction@@0@Z = .text:0x004749C0; // type:function size:0x10 scope:global
?ReactToDeathPriority@Living@@UAEEPAVReaction@@0@Z = .text:0x004749D0; // type:function size:0x10 scope:global
?GetFinalState@Living@@UBE?AW4VILLAGER_STATES@@XZ = .text:0x004749E0; // type:function size:0x10 scope:global
??_GLiving@@UAEPAXI@Z = .text:0x004749F0; // type:function size:0x30 scope:global
?Create@Creature@@SAPAV1@ABUMapCoords@@PBVCreatureInfo@@PAVGPlayer@@@Z = .text:0x00474A20; // type:function size:0x130 scope:global
?CreateCreature@Creature@@SAPAV1@ABUMapCoords@@PBVCreatureInfo@@PAVGPlayer@@@Z = .text:0x00474B50; // type:function size:0x50 scope:global
fn_00474C50 = .text:0x00474C50; // type:function size:0x1F5
fn_00474E45 = .text:0x00474E45; // type:label size:0xBB
?ToBeDeleted@Creature@@UAEXH@Z = .text:0x00474F00; // type:function size:0x270 scope:global
fn_00475170 = .text:0x00475170; // type:function size:0x250
?GetDestPos@Creature@@UAEPAUMapCoords@@XZ = .text:0x004753C0; // type:function size:0x10 scope:global
?GetFinalDestPos@Creature@@UAEPAUMapCoords@@PAU2@@Z = .text:0x004753D0; // type:function size:0x20 scope:global
fn_00475450 = .text:0x00475450; // type:function size:0x2E0
?FinishActionUnsuccessfully@Creature@@QAEXPADHH@Z = .text:0x00475730; // type:function size:0x100 scope:global
??_GCreatureValueSpinner@@QAEPAXI@Z = .text:0x00475830; // type:function size:0x50
?FinishActionGeneric@Creature@@QAEXHH@Z = .text:0x00475880; // type:function size:0x4A
?StopWhatIAmDoing@Creature@@QAEXHH@Z = .text:0x004758D0; // type:function size:0x3F0
fn_00475CC0 = .text:0x00475CC0; // type:function size:0x6B
fn_00475D30 = .text:0x00475D30; // type:function size:0x1F5
fn_00475FC0 = .text:0x00475FC0; // type:function size:0xB0
fn_00476070 = .text:0x00476070; // type:function size:0xC84
?ValidToSelectFightThisToMapCoord@Creature@@UAEIPAVGInterfaceStatus@@PBUMapCoords@@@Z = .text:0x00476DC0; // type:function size:0x10 scope:global
?ValidToApplyFightThisToMapCoord@Creature@@UAEIPAVGInterfaceStatus@@PBUMapCoords@@@Z = .text:0x00476DD0; // type:function size:0x20 scope:global
?ValidToFightThisToObject@Creature@@UAEIPAVGInterfaceStatus@@PBUMapCoords@@@Z = .text:0x00476DF0; // type:function size:0x20 scope:global
?ValidForLockedSelectProcess@Creature@@UAE_NPAVGInterfaceStatus@@@Z = .text:0x00476E10; // type:function size:0x60 scope:global
?NetworkFriendlyStartLockedSelect@Creature@@UAE_NPAVGInterfaceStatus@@@Z = .text:0x00476E70; // type:function size:0x20 scope:global
?NetworkFriendlyEndLockedSelect@Creature@@UAEIPAVGInterfaceStatus@@@Z = .text:0x00476E90; // type:function size:0x20 scope:global
?IsReadyForNetworkUnfriendlyLockedSelect@Creature@@UAEIXZ = .text:0x00476EB0; // type:function size:0x10 scope:global
?NetworkUnfriendlyLockedSelect@Creature@@UAEIPAUControlHandUpdateInfo@@@Z = .text:0x00476EC0; // type:function size:0x10 scope:global
?GetReadyForNetworkUnfriendlyEndLockedSelect@Creature@@UAEIXZ = .text:0x00476ED0; // type:function size:0x30 scope:global
?IsReadyForNetworkUnfriendlyEndLockedSelect@Creature@@UAEIXZ = .text:0x00476F00; // type:function size:0x60 scope:global
?NetworkUnfriendlyEndLockedSelect@Creature@@UAEIXZ = .text:0x00476F60; // type:function size:0x10 scope:global
?DestroyedByEffect@Creature@@UAEIPAVGPlayer@@M@Z = .text:0x00476F70; // type:function size:0x30 scope:global
?Faint@Creature@@QAEXXZ = .text:0x00476FA0; // type:function size:0xC0
fn_00477060 = .text:0x00477060; // type:function size:0x10
?SetHeadPos@Creature@@UAEXPAUMapCoords@@@Z = .text:0x004770D0; // type:function size:0x5A scope:global
fn_00477130 = .text:0x00477130; // type:function size:0xE0
fn_00477210 = .text:0x00477210; // type:function size:0x160
?CanSeePos@Creature@@QAEXABVMapCoords@@@Z = .text:0x00477440; // type:function size:0x90
fn_004774D0 = .text:0x004774D0; // type:function size:0x20
fn_004774F0 = .text:0x004774F0; // type:function size:0x2A
?IsLookingTowardsPos@Creature@@QAEXABVMapCoords@@I@Z = .text:0x00477520; // type:function size:0x2A
?IsDirectionClose@Creature@@QAEXABVMapCoords@@IM@Z = .text:0x00477550; // type:function size:0x7B
?GetInterfaceStatusLookingAtCreature@Creature@@QAEXXZ = .text:0x004775D0; // type:function size:0x1D0
fn_004777A0 = .text:0x004777A0; // type:function size:0x60
fn_00477800 = .text:0x00477800; // type:function size:0x50
?GetCreature3D@Creature@@QAEPAVLH3DCreature@@XZ = .text:0x00477850; // type:function size:0xA scope:global
?GetNearestEdgeOfObject@Creature@@UAEXPAVObject@@@Z = .text:0x00477860; // type:function size:0x20 scope:global
fn_00477A00 = .text:0x00477A00; // type:function size:0x90
?GetMovementDirection@Creature@@UAEXPAULHPoint@@@Z = .text:0x00477AC0; // type:function size:0x60 scope:global
?GoIntoStateOfFinishingAction@Creature@@QAEXXZ = .text:0x00477B20; // type:function size:0x130
fn_00477C50 = .text:0x00477C50; // type:function size:0xB0
fn_00477D00 = .text:0x00477D00; // type:function size:0x70
fn_00477D70 = .text:0x00477D70; // type:function size:0x10
?UpdateDesiresAfterObservingPlayerAction@Creature@@QAEXVCREATURE_DESIRES@@@Z = .text:0x00477D80; // type:function size:0x20
fn_00477DA0 = .text:0x00477DA0; // type:function size:0x30
fn_00477DD0 = .text:0x00477DD0; // type:function size:0x20
?GetCreatureBeliefListType@Creature@@UAEIXZ = .text:0x00477DF0; // type:function size:0x10 scope:global
?GetInfo@CreatureActionInfo@@QAEXXZ = .text:0x00477E00; // type:function size:0x10
?GetImpressiveType@Creature@@UAE?AW4IMPRESSIVE_TYPE@@XZ = .text:0x00477E10; // type:function size:0x20 scope:global
?IsObjectTurningTooFastForCameraToFollowSmoothly@Creature@@UAEIXZ = .text:0x00477E30; // type:function size:0x2C scope:global
?GetFacingDirection@Creature@@UAEMXZ = .text:0x00477EC0; // type:function size:0x20 scope:global
?GetFacingPitch@Creature@@UAEMXZ = .text:0x00477EE0; // type:function size:0x10 scope:global
?GetProjectileSpeed@Creature@@UAEMXZ = .text:0x00477EF0; // type:function size:0x10 scope:global
?IsScary@Creature@@UAEIXZ = .text:0x00477F00; // type:function size:0x20 scope:global
?GetFinalState@Creature@@QBEXXZ = .text:0x00477F20; // type:function size:0x10
?ResetStateAfterReacting@Creature@@UAEXXZ = .text:0x00477F30; // type:function size:0x10 scope:global
?Get2DRadius@Creature@@UAEMXZ = .text:0x00477F40; // type:function scope:global
?GetHeight@Creature@@UAEMXZ = .text:0x00477F50; // type:function size:0x20 scope:global
?SaveObject@Creature@@UAEIAAULHOSFile@@ABUMapCoords@@@Z = .text:0x00477F70; // type:function size:0x110 scope:global
?AddToCheckSum@Creature@@QAEXXZ = .text:0x004780D0; // type:function size:0x50
fn_00478120 = .text:0x00478120; // type:function size:0x1EB
fn_00478310 = .text:0x00478310; // type:function size:0x40
?OutputCreatureInformation@Creature@@QAEXXZ = .text:0x00478350; // type:function size:0x53B
fn_00478890 = .text:0x00478890; // type:function size:0x370
?FillInEffectDefenceMultiplier@Creature@@UAEXAAUEffectNumbers@@@Z = .text:0x00478C00; // type:function size:0x80 scope:global
?ApplyEffect@Creature@@UAEXAAVEffectValues@@H@Z = .text:0x00478C80; // type:function size:0x39A scope:global
?ApplySingleEffect@Creature@@UAEXW4EFFECT_TYPE@@MPAVGameThing@@PBUMapCoords@@@Z = .text:0x00479020; // type:function size:0x20 scope:global
?GetObject@SubArgumentPoint@@UAEPAVObject@@XZ = .text:0x004791B0; // type:function size:0x10 scope:global
?HasDestination@SubArgumentPoint@@UAEIXZ = .text:0x004791C0; // type:function size:0x10 scope:global
?GetDestination@SubArgumentPoint@@UAEPAULHPoint@@XZ = .text:0x004791D0; // type:function size:0x10 scope:global
fn_004791E0 = .text:0x004791E0; // type:function size:0xC0
?GetRadius@Creature@@UAEMXZ = .text:0x004792C0; // type:function size:0x10 scope:global
?GetCitadel@Creature@@UAEPAVCitadel@@XZ = .text:0x004792D0; // type:function size:0x20 scope:global
?IsDominantCreature@Creature@@UAEIPAVCreature@@@Z = .text:0x004792F0; // type:function size:0x50 scope:global
fn_00479440 = .text:0x00479440; // type:function size:0x10
?IsReadyForNewScriptAction@Creature@@UAEIXZ = .text:0x004794A0; // type:function size:0x30 scope:global
fn_00479520 = .text:0x00479520; // type:function size:0x90
fn_004795B0 = .text:0x004795B0; // type:function size:0x1A
fn_004796A0 = .text:0x004796A0; // type:function size:0x220
?GetBoundingSphere@Creature@@UAEXAAULHPoint@@AAM@Z = .text:0x00479970; // type:function size:0x1B scope:global
?ReactToPhysicsImpact@Creature@@UAEXPAVPhysicsObject@@_N@Z = .text:0x00479990; // type:function size:0x1F0 scope:global
?GetPhysicsConstantsType@Creature@@UAEIXZ = .text:0x00479B80; // type:function size:0x10 scope:global
?SetUpPhysOb@Creature@@UAEXPAUPhysOb@@@Z = .text:0x00479B90; // type:function size:0x180 scope:global
?CanBecomeAPhysicsObject@Creature@@UAEIXZ = .text:0x00479D10; // type:function size:0x10 scope:global
?InteractsWithPhysicsObjects@Creature@@UAEIXZ = .text:0x00479D20; // type:function size:0x10 scope:global
?UpdatePosition@CreatureValueSpinner@@QAEXM@Z = .text:0x00479E10; // type:function size:0x30
?IsMoving@Creature@@UBEIXZ = .text:0x00479E40; // type:function size:0x10 scope:global
?MoveMapObject@Creature@@UAEHPBUMapCoords@@@Z = .text:0x00479E50; // type:function size:0x60 scope:global
?ForceMoveMapObjectWithoutWalking@Creature@@QAEXABVMapCoords@@@Z = .text:0x00479EB0; // type:function size:0xC0
?MoveByTeleport@Creature@@QAEXABVMapCoords@@@Z = .text:0x00479F70; // type:function size:0x240
SubArgumentPointAndFloat_vfunc1 = .text:0x0047A1B0; // type:function size:0x10
SubArgumentPointAndFloat_vfunc2 = .text:0x0047A1C0; // type:function size:0x10
?InterfaceGiveObject@Creature@@UAEIPAVGInterfaceStatus@@PAVObject@@@Z = .text:0x0047A320; // type:function size:0x10 scope:global
?InterfaceValidToGiveObject@Creature@@UAEIPAVGInterfaceStatus@@PAVObject@@@Z = .text:0x0047A330; // type:function size:0x80 scope:global
fn_0047A980 = .text:0x0047A980; // type:function size:0xC0
fn_0047AB90 = .text:0x0047AB90; // type:function size:0x11B
fn_0047ACC0 = .text:0x0047ACC0; // type:function size:0x10
fn_0047B140 = .text:0x0047B140; // type:function size:0xB
?GetImpressiveIntensity@Creature@@UAEMW4IMPRESSIVE_TYPE@@@Z = .text:0x0047B150; // type:function size:0x10 scope:global
?SetScale@Creature@@UAEXM@Z = .text:0x0047B160; // type:function size:0x30 scope:global
?GetScale@Creature@@UAEMXZ = .text:0x0047B190; // type:function size:0x10 scope:global
?GetAge@Creature@@UAEIXZ = .text:0x0047B1A0; // type:function size:0xA scope:global
?SetAge@Creature@@UAEXI@Z = .text:0x0047B1B0; // type:function size:0x10 scope:global
?IsFighting@Creature@@QAEXXZ = .text:0x0047B1C0; // type:function size:0x20
?CanBeDestroyedBySpell@Creature@@UAEIPAVSpell@@@Z = .text:0x0047B1E0; // type:function size:0x10 scope:global
?GetMaxAlignmentChangePerGameTurn@Creature@@UAEMXZ = .text:0x0047B1F0; // type:function size:0xA scope:global
?GetImpressiveValue@Creature@@UAEMPAVLiving@@PAVReaction@@@Z = .text:0x0047B200; // type:function size:0xCB scope:global
fn_0047B440 = .text:0x0047B440; // type:function size:0x630
fn_0047BA70 = .text:0x0047BA70; // type:function size:0x170
fn_0047BBE0 = .text:0x0047BBE0; // type:function size:0x70
fn_0047BC50 = .text:0x0047BC50; // type:function size:0xE0
fn_0047BD30 = .text:0x0047BD30; // type:function size:0x60
fn_0047BD90 = .text:0x0047BD90; // type:function size:0x40
fn_0047C5F0 = .text:0x0047C5F0; // type:function size:0x20
fn_0047C610 = .text:0x0047C610; // type:function size:0x10
fn_0047C620 = .text:0x0047C620; // type:function size:0x10
?GetRunningSpeedInMetres@Creature@@UAEMXZ = .text:0x0047C630; // type:function size:0xA scope:global
?GetDefaultSpeedInMetres@Creature@@UAEMXZ = .text:0x0047C640; // type:function size:0xA scope:global
?SetAnimationTimeModify@Creature@@QAEX_N@Z = .text:0x0047C650; // type:function size:0x20 scope:global
?IsDancing@Creature@@UAEIXZ = .text:0x0047C670; // type:function size:0x20 scope:global
?IsOnHomeTeam@Creature@@QAE_NXZ = .text:0x0047C690; // type:function size:0x20 scope:global
fn_0047C6B0 = .text:0x0047C6B0; // type:function size:0xC0
fn_0047C770 = .text:0x0047C770; // type:function size:0x10
?HasDestination@SubArgumentObjectAndInteger@@UAEIXZ = .text:0x0047C880; // type:function size:0x10 scope:global
?GetDestination@SubArgumentObjectAndInteger@@UAEPAULHPoint@@XZ = .text:0x0047C890; // type:function size:0x10 scope:global
SubArgumentObject_vfunc3 = .text:0x0047C8A0; // type:function size:0x10
?GetScriptObjectType@Creature@@UAEIXZ = .text:0x0047C8B0; // type:function size:0x10 scope:global
fn_0047C960 = .text:0x0047C960; // type:function size:0x70
fn_0047C9D0 = .text:0x0047C9D0; // type:function size:0x200
fn_0047CBD0 = .text:0x0047CBD0; // type:function size:0x110
?IsConfinedToArea@Creature@@QAEXXZ = .text:0x0047CCE0; // type:function size:0x40
fn_0047CD20 = .text:0x0047CD20; // type:function size:0x40
?GetWeight@Creature@@UAEMXZ = .text:0x0047CD60; // type:function size:0x10 scope:global
?IsDead@Creature@@QAEXXZ = .text:0x0047CD70; // type:function size:0x30
fn_0047CDA0 = .text:0x0047CDA0; // type:function size:0xE0
fn_0047CE80 = .text:0x0047CE80; // type:function size:0x80
fn_0047CF00 = .text:0x0047CF00; // type:function size:0xB0
fn_0047CFB0 = .text:0x0047CFB0; // type:function size:0x310
?SetControlledByScript@Creature@@UAEXH@Z = .text:0x0047D2C0; // type:function size:0x30 scope:global
fn_0047D2F0 = .text:0x0047D2F0; // type:function size:0x20
fn_0047D310 = .text:0x0047D310; // type:function size:0x10
?CreatureMustAvoid@Creature@@UAE_NPAVCreature@@@Z = .text:0x0047D4B0; // type:function size:0x36 scope:global
?AddToRoutePlan@Creature@@UAEXPAURPHolder@@PAVCreature@@HP6AXHUPoint2D@@MH@Z@Z = .text:0x0047D500; // type:function size:0x80 scope:global
fn_0047D580 = .text:0x0047D580; // type:function size:0x10
fn_0047D590 = .text:0x0047D590; // type:function size:0x70
fn_0047D600 = .text:0x0047D600; // type:function size:0x40
?GetNearestCameraInterfaceStatus@Creature@@QAEXXZ = .text:0x0047D640; // type:function size:0x100
?SetSpeedInMetres@Creature@@UAEXMH@Z = .text:0x0047D810; // type:function size:0x20 scope:global
fn_0047D830 = .text:0x0047D830; // type:function size:0x2B
?GetQueryFirstEnumText@Creature@@UAE?AW4HELP_TEXT@@XZ = .text:0x0047D8F0; // type:function size:0x50 scope:global
?GetQueryLastEnumText@Creature@@UAE?AW4HELP_TEXT@@XZ = .text:0x0047D940; // type:function size:0x10 scope:global
fn_0047D950 = .text:0x0047D950; // type:function
fn_0047DC50 = .text:0x0047DC50; // type:function size:0xB0
?ReduceLife@Creature@@UAEXMPAVGPlayer@@@Z = .text:0x0047DD00; // type:function size:0x120 scope:global
?IncreaseLife@Creature@@UAEXM@Z = .text:0x0047DE20; // type:function size:0x60 scope:global
?SetHeight@Creature@@UAEXM@Z = .text:0x0047DE80; // type:function size:0x30 scope:global
fn_0047DEB0 = .text:0x0047DEB0; // type:function size:0x90
?CanBeHealedByHealSpell@Creature@@QAEXXZ = .text:0x0047DF40; // type:function size:0x10
fn_0047EF40 = .text:0x0047EF40; // type:function size:0x50
fn_0047EF90 = .text:0x0047EF90; // type:function size:0x70
fn_0047F000 = .text:0x0047F000; // type:function size:0x20
fn_0047F020 = .text:0x0047F020; // type:function size:0x50
fn_0047F070 = .text:0x0047F070; // type:function size:0x50
fn_0047F0C0 = .text:0x0047F0C0; // type:function size:0x50
crt_xc_fn_0047F110 = .text:0x0047F110; // type:function size:0x30
crt_xc_fn_0047F140 = .text:0x0047F140; // type:function size:0x30
crt_xc_fn_0047F170 = .text:0x0047F170; // type:function size:0x1B
crt_xc_fn_0047F190 = .text:0x0047F190; // type:function size:0x30
fn_0047F1C0 = .text:0x0047F1C0; // type:function size:0x30
crt_xc_fn_0047F450 = .text:0x0047F450; // type:function size:0x20
crt_xc_fn_0047F470 = .text:0x0047F470; // type:function size:0x20
??0LH3DCreature@@QAE@PAVCreature@@ABVLHPoint@@PAX@Z = .text:0x0047F490; // type:function size:0x240
??0LHReleasedFile@@QAE@XZ = .text:0x0047F6D0; // type:function size:0x50 scope:global
LH3DCreature_vfunc10 = .text:0x0047F720; // type:function size:0x50
fn_0x0047f770 = .text:0x0047F770; // type:function size:0x12A scope:global
fn_0047F8A0 = .text:0x0047F8A0; // type:function size:0x30
?GetBoundingSphere@LH3DCreature@@QAEXAAVLHPoint@@AAM@Z = .text:0x0047F8D0; // type:function size:0x150
?SetRequiredSpeed@LH3DCreature@@QAEXM@Z = .text:0x0047FA20; // type:function size:0x60
?GetMass@LH3DCreature@@QAEXXZ = .text:0x0047FA80; // type:function size:0x40
fn_0047FAC0 = .text:0x0047FAC0; // type:function size:0x130
?Init@LH3DCreature@@QAEXAAVLHPoint@@PAX@Z = .text:0x0047FC20; // type:function size:0x620
fn_00480240 = .text:0x00480240; // type:function size:0x140
?SetAnimTime@CreatureFalling@@UAEXHH@Z = .text:0x004803D0; // type:function size:0xF8 scope:global
?SetSize@LH3DCreature@@QAEXM@Z = .text:0x00480530; // type:function size:0x190
fn_004806C0 = .text:0x004806C0; // type:function size:0xB
fn_004806D0 = .text:0x004806D0; // type:function size:0xB
fn_004806E0 = .text:0x004806E0; // type:function size:0x50
?ReconnectToGame@LH3DCreature@@QAEXXZ = .text:0x00480730; // type:function size:0x20
?GetKissPosition@LH3DCreature@@QAEXMPAVLHPoint@@@Z = .text:0x00480750; // type:function size:0xC0
fn_00480810 = .text:0x00480810; // type:function size:0xF0
?CanKissCreature@LH3DCreature@@QAEXPAV1@@Z = .text:0x00480900; // type:function size:0x110
?GetNavRadius@LH3DCreature@@QAEXXZ = .text:0x00480A60; // type:function size:0x40
fn_00480C60 = .text:0x00480C60; // type:function size:0x30
?GetLookDirection@LH3DCreature@@QAEXXZ = .text:0x00480C90; // type:function size:0xA0
?IsPerformingFacialAction@LH3DCreature@@QAEXXZ = .text:0x00480D30; // type:function size:0x10
fn_00480D40 = .text:0x00480D40; // type:function size:0xD0
fn_00481040 = .text:0x00481040; // type:function size:0x90
fn_004810D0 = .text:0x004810D0; // type:function size:0x90
?StartTurningAction@LH3DCreature@@QAEXM@Z = .text:0x00481160; // type:function size:0x30
?GetMirrorBone@LH3DCreature@@QAEXH@Z = .text:0x00481390; // type:function size:0x1A
fn_004813B0 = .text:0x004813B0; // type:function size:0x1A
fn_004813D0 = .text:0x004813D0; // type:function size:0x1A
?GetBonePos@LH3DCreature@@QAEXH@Z = .text:0x004813F0; // type:function size:0x20 scope:global
?AddEvilGoodSparkles@LH3DCreature@@QAEXXZ = .text:0x00481410; // type:function size:0x31C
?UpdateBlood@LH3DCreature@@QAEXXZ = .text:0x00481760; // type:function size:0x170
fn_004818D0 = .text:0x004818D0; // type:function size:0x60
?TimeWarpHeal@LH3DCreature@@QAEXH@Z = .text:0x00481930; // type:function size:0x110
fn_00481A40 = .text:0x00481A40; // type:function size:0xD0
fn_00481B10 = .text:0x00481B10; // type:function size:0x14B
fn_00481C60 = .text:0x00481C60; // type:function size:0x18B
?UpdateTime@LH3DCreature@@QAEXH@Z = .text:0x00481DF0; // type:function size:0xEA0
fn_00482C90 = .text:0x00482C90; // type:function size:0xAA
fn_00482D40 = .text:0x00482D40; // type:function size:0x50
fn_00482D90 = .text:0x00482D90; // type:function size:0x2C0
fn_00483050 = .text:0x00483050; // type:function size:0x20
fn_00483070 = .text:0x00483070; // type:function size:0xF0
fn_00483160 = .text:0x00483160; // type:function size:0x50
?ResetLook@LH3DCreature@@QAEXXZ = .text:0x004831B0; // type:function size:0xE0
fn_00483290 = .text:0x00483290; // type:function size:0x35A
fn_00483670 = .text:0x00483670; // type:function size:0xA6
?ReachedLookDestination@LH3DCreature@@QAEXXZ = .text:0x00483750; // type:function size:0x30
fn_00483850 = .text:0x00483850; // type:function size:0x20
fn_00483890 = .text:0x00483890; // type:function size:0x140
fn_004839D0 = .text:0x004839D0; // type:function size:0xD0
?StopMoving@LH3DCreature@@QAEXXZ = .text:0x00484260; // type:function size:0x50
?GetSafeBuffer@LH3DCreature@@QAEPAEXZ = .text:0x004842B0; // type:function size:0x20 scope:global
?IsPerformingBodyAction@LH3DCreature@@QAE_NXZ = .text:0x004842D0; // type:function size:0x10 scope:global
fn_004842E0 = .text:0x004842E0; // type:function size:0x20
?IsMoving@LH3DCreature@@QBEXXZ = .text:0x00484300; // type:function size:0x10
fn_00484310 = .text:0x00484310; // type:function size:0x50
?StartConcurrentAction@LH3DCreature@@QAEXH@Z = .text:0x00484360; // type:function size:0x40
?StartStaticAction@LH3DCreature@@QAEXHH@Z = .text:0x004843A0; // type:function size:0x6B
fn_004845F0 = .text:0x004845F0; // type:function size:0xCB
?StartFightAction@LH3DCreature@@QAEXHM@Z = .text:0x004846E0; // type:function size:0xB0
fn_00484790 = .text:0x00484790; // type:function size:0x8C
fn_00484848 = .text:0x00484848; // type:function size:0x58
fn_004848A0 = .text:0x004848A0; // type:function size:0x20
fn_004848C0 = .text:0x004848C0; // type:function size:0x30
fn_004848F0 = .text:0x004848F0; // type:function size:0x30
fn_00484AE0 = .text:0x00484AE0; // type:function size:0x20
fn_00484B00 = .text:0x00484B00; // type:function size:0x80
fn_00484B80 = .text:0x00484B80; // type:function size:0x50
?ForceIndividualAction@LH3DCreature@@QAEXHH@Z = .text:0x00484C20; // type:function size:0x40
?GetBodyActionFraction@LH3DCreature@@QAEXXZ = .text:0x00484C60; // type:function size:0x1B
?IsActuallyDead@LH3DCreature@@QAEXXZ = .text:0x00484E10; // type:function size:0x10
fn_00484E20 = .text:0x00484E20; // type:function size:0x40
fn_00484E60 = .text:0x00484E60; // type:function size:0x5B
?StateSet@LH3DCreature@@QAEXH@Z = .text:0x00484EC0; // type:function size:0x248
fn_004851A0 = .text:0x004851A0; // type:function size:0x1A1
fn_00485341 = .text:0x00485341; // type:function size:0x88
fn_00485441 = .text:0x00485441; // type:function size:0x918
fn_00485DF0 = .text:0x00485DF0; // type:function size:0xF0
fn_00486390 = .text:0x00486390; // type:function size:0x150
fn_004866F0 = .text:0x004866F0; // type:function size:0xC0
fn_004867B0 = .text:0x004867B0; // type:function size:0x40
fn_004867F0 = .text:0x004867F0; // type:function size:0x10
fn_00486A00 = .text:0x00486A00; // type:function size:0x465
?DoLogin@LoginBox@@QAEXXZ = .text:0x00486E65; // type:function size:0x400
fn_00487265 = .text:0x00487265; // type:function size:0x2C5
fn_00489540 = .text:0x00489540; // type:function size:0x3F0
fn_00489930 = .text:0x00489930; // type:function size:0xF0
fn_00489A20 = .text:0x00489A20; // type:function size:0x170
?FightClickGround@LH3DCreature@@QAEXAAVLHPoint@@_N@Z = .text:0x00489B90; // type:function size:0x120
fn_00489CB0 = .text:0x00489CB0; // type:function size:0x30
?AttemptAttack@LH3DCreature@@QAEXHM@Z = .text:0x00489CE0; // type:function size:0x676
fn_0048A420 = .text:0x0048A420; // type:function size:0x70
fn_0048A580 = .text:0x0048A580; // type:function size:0x60
?GetObjectActionStatus@LH3DCreature@@QAEIXZ = .text:0x0048B780; // type:function size:0x10 scope:global
?InitialiseTurning@LH3DCreature@@QAEXM@Z = .text:0x0048B790; // type:function size:0x1E0
fn_0048CBB0 = .text:0x0048CBB0; // type:function size:0x70
fn_0048CC80 = .text:0x0048CC80; // type:function size:0xC0
fn_0048D250 = .text:0x0048D250; // type:function size:0x50
fn_0048D520 = .text:0x0048D520; // type:function size:0x1A
?MorphTexture@LH3DCreature@@QAEXXZ = .text:0x0048D540; // type:function size:0x210
fn_0048D750 = .text:0x0048D750; // type:function size:0x40
?MorphAnims@LH3DCreature@@QAEXXZ = .text:0x0048D790; // type:function size:0x20
?InitialiseDestructionBones@LH3DCreature@@QAEXXZ = .text:0x0048D7B0; // type:function size:0x130
?StartDestruction@LH3DCreature@@QAEXXZ = .text:0x0048D8E0; // type:function size:0x50
fn_0048D930 = .text:0x0048D930; // type:function size:0xB
fn_0048DD70 = .text:0x0048DD70; // type:function size:0x440
?AddForDrawing@LH3DCreature@@QAEXXZ = .text:0x0048E1C0; // type:function size:0xA0
fn_0048E260 = .text:0x0048E260; // type:function size:0xDDE
fn_0048F0F0 = .text:0x0048F0F0; // type:function size:0x90
fn_0048F280 = .text:0x0048F280; // type:function size:0x2D0
fn_0048F550 = .text:0x0048F550; // type:function size:0x60
fn_0048F5B0 = .text:0x0048F5B0; // type:function size:0x160
fn_0048F710 = .text:0x0048F710; // type:function size:0x40
?EndAnyAnimsRapidly@LH3DCreature@@QAEXXZ = .text:0x0048F750; // type:function size:0x28
fn_0048F7B0 = .text:0x0048F7B0; // type:function size:0x50
fn_0048F820 = .text:0x0048F820; // type:function size:0x10
fn_0048F830 = .text:0x0048F830; // type:function size:0xC30
fn_00490460 = .text:0x00490460; // type:function size:0x360
fn_004907C0 = .text:0x004907C0; // type:function size:0xA0
crt_xc_fn_00491690 = .text:0x00491690; // type:function size:0x30
crt_xc_fn_004916C0 = .text:0x004916C0; // type:function size:0x30
crt_xc_fn_004916F0 = .text:0x004916F0; // type:function size:0x1B
crt_xc_fn_00491710 = .text:0x00491710; // type:function size:0x10
fn_00491720 = .text:0x00491720; // type:function size:0x30
?GetBaseInfo@CreatureActionInfo@@UAEPAVGBaseInfo@@AAI@Z = .text:0x00491750; // type:function size:0x20 scope:global
??_GCreatureActionInfo@@UAEPAXI@Z = .text:0x004917C0; // type:function size:0x30 scope:global
crt_xc_fn_004917F0 = .text:0x004917F0; // type:function size:0x10
fn_00491800 = .text:0x00491800; // type:function size:0x30
?GetBaseInfo@CreatureInitialDesireInfo@@UAEPAVGBaseInfo@@AAI@Z = .text:0x00491830; // type:function size:0x20 scope:global
??_GCreatureInitialDesireInfo@@UAEPAXI@Z = .text:0x004918A0; // type:function size:0x30 scope:global
crt_xc_fn_004918D0 = .text:0x004918D0; // type:function size:0x10
fn_004918E0 = .text:0x004918E0; // type:function size:0x30
?GetBaseInfo@CreatureDesireActionEntry@@UAEPAVGBaseInfo@@AAI@Z = .text:0x00491910; // type:function size:0x20 scope:global
??_GCreatureDesireActionEntry@@UAEPAXI@Z = .text:0x00491980; // type:function size:0x30 scope:global
crt_xc_fn_004919B0 = .text:0x004919B0; // type:function size:0x10
fn_004919C0 = .text:0x004919C0; // type:function size:0x30
crt_xc_fn_00491A40 = .text:0x00491A40; // type:function size:0x10
fn_00491A50 = .text:0x00491A50; // type:function size:0x30
crt_xc_fn_00491AD0 = .text:0x00491AD0; // type:function size:0x10
fn_00491AE0 = .text:0x00491AE0; // type:function size:0x30
?GetBaseInfo@CreatureDesireAttributeEntry@@UAEPAVGBaseInfo@@AAI@Z = .text:0x00491B10; // type:function size:0x20 scope:global
??_GCreatureDesireAttributeEntry@@UAEPAXI@Z = .text:0x00491B70; // type:function size:0x20 scope:global
crt_xc_fn_00491B90 = .text:0x00491B90; // type:function size:0x8C10
SubArgumentObjectAndFloat_vfunc3 = .text:0x0049ADE0; // type:function size:0x10
?GetObjectA@SubArgumentObjectAndInteger@@QAEXXZ = .text:0x0049C680; // type:function size:0x10
SubArgumentPointIntegerFloatAndSpell_vfunc1 = .text:0x0049CFC0; // type:function size:0x10
SubArgumentPointIntegerFloatAndSpell_vfunc2 = .text:0x0049CFD0; // type:function size:0x10
SubArgumentObjectIntegerFloatAndSpell_vfunc3 = .text:0x004A0000; // type:function size:0x10
fn_004A0042 = .text:0x004A0042; // type:function size:0x19E
fn_004A1BA0 = .text:0x004A1BA0; // type:function size:0x30
fn_004A4A4A = .text:0x004A4A4A; // type:function size:0x66
fn_004A4E45 = .text:0x004A4E45; // type:function size:0x85
fn_004A7265 = .text:0x004A7265; // type:function size:0x36B
fn_004A9000 = .text:0x004A9000; // type:function size:0x120
fn_004A9134 = .text:0x004A9134; // type:function size:0x1AC
?Create@Intro@@QAEXH@Z = .text:0x004A9324; // type:function size:0xA6C
?ConstructSubActionsForAttackerThrowBallAtGoal@CreatureAgenda@@QAE_NK@Z = .text:0x004ACA70; // type:function size:0x240
fn_004B005A = .text:0x004B005A; // type:function size:0x1CA
fn_004B4B4B = .text:0x004B4B4B; // type:function size:0xA9
fn_004B5653 = .text:0x004B5653; // type:function size:0x533
fn_004B7265 = .text:0x004B7265; // type:function size:0x59B
fn_004C0000 = .text:0x004C0000; // type:function size:0x220
fn_004C2064 = .text:0x004C2064; // type:function size:0x2C
fn_004C2B90 = .text:0x004C2B90; // type:function size:0x20
crt_xc_fn_004C33A0 = .text:0x004C33A0; // type:function size:0x30
crt_xc_fn_004C38E0 = .text:0x004C38E0; // type:function size:0x30
crt_xc_fn_004C3910 = .text:0x004C3910; // type:function size:0x1B
??0CreatureActionOpinions@@QAE@PBVCreatureInfo@@@Z = .text:0x004C3930; // type:function size:0x30 scope:global
?GetActionPriority@Creature@@QAEXVCREATURE_ACTION@@AAVCreaturePlan@@@Z = .text:0x004C3990; // type:function size:0x60
fn_004C39F0 = .text:0x004C39F0; // type:function size:0x60
fn_004C4149 = .text:0x004C4149; // type:function size:0x57
crt_xc_fn_004C4320 = .text:0x004C4320; // type:function size:0x30
crt_xc_fn_004C4350 = .text:0x004C4350; // type:function size:0x30
crt_xc_fn_004C4380 = .text:0x004C4380; // type:function size:0x1B
?ForceActivityAndForceAction@Creature@@QAEXW4CREATURE_DESIRES@@PAVCreatureBelief@@W4CREATURE_ACTION@@11HH@Z = .text:0x004C4450; // type:function size:0x60 scope:global
?ForceActivityAndForceAction@Creature@@QAEXAAVCreaturePlan@@HH@Z = .text:0x004C44B0; // type:function size:0xD0 scope:global
fn_004C4843 = .text:0x004C4843; // type:function size:0x18
fn_004C48B0 = .text:0x004C48B0; // type:function size:0x40
crt_xc_fn_004C48F0 = .text:0x004C48F0; // type:function size:0x30
crt_xc_fn_004C4920 = .text:0x004C4920; // type:function size:0x30
crt_xc_fn_004C4950 = .text:0x004C4950; // type:function size:0x6
fn_004C4956 = .text:0x004C4956; // type:function size:0x15
?Read@CatInfo@@QAEXPAV_FILE@std@@@Z = .text:0x004C4970; // type:function size:0x10C scope:global
?Read@AnimInfo@@QAEXPAD@Z = .text:0x004C4AB0; // type:function size:0x130 scope:global
crt_xc_fn_004C4BE0 = .text:0x004C4BE0; // type:function size:0x30
crt_xc_fn_004C4C10 = .text:0x004C4C10; // type:function size:0x30
crt_xc_fn_004C4C40 = .text:0x004C4C40; // type:function size:0xC
fn_004C4C4C = .text:0x004C4C4C; // type:function size:0xF
fn_004C4C60 = .text:0x004C4C60; // type:function size:0x20
?GetAttitudeToCreature@CreatureMental@@QAEXPAVCreature@@@Z = .text:0x004C4C80; // type:function size:0xA0
fn_004C4D20 = .text:0x004C4D20; // type:function size:0x30
?UpdateHowNiceIsCreature@CreatureMental@@QAEXPAVCreature@@M@Z = .text:0x004C4D50; // type:function size:0x1C0
?UpdateHowImpressiveIsCreature@CreatureMental@@QAEXPAVCreature@@M@Z = .text:0x004C4F10; // type:function size:0x33
fn_004C4F43 = .text:0x004C4F43; // type:function size:0x17
?UpdateHowMuchAttentionPaidToMeByCreature@CreatureMental@@QAEXPAVCreature@@M@Z = .text:0x004C4F60; // type:function size:0x4A
crt_xc_fn_004C4FB0 = .text:0x004C4FB0; // type:function size:0x30
crt_xc_fn_004C4FE0 = .text:0x004C4FE0; // type:function size:0x30
crt_xc_fn_004C5010 = .text:0x004C5010; // type:function size:0x1B
fn_004C5030 = .text:0x004C5030; // type:function size:0x100
fn_004C5130 = .text:0x004C5130; // type:function size:0x116
fn_004C5246 = .text:0x004C5246; // type:function size:0x3A
?FindBestGoalForActivityObject@CreatureMental@@QAEXPAVCreatureBelief@@AAV?$LHStack@VCREATURE_DESIRES@@$0CJ@@@@Z = .text:0x004C5280; // type:function size:0x50
fn_004C52D0 = .text:0x004C52D0; // type:function size:0x66
fn_004C5336 = .text:0x004C5336; // type:label size:0x5A
fn_004C5390 = .text:0x004C5390; // type:function size:0x170
crt_xc_fn_004C5500 = .text:0x004C5500; // type:function size:0x30
crt_xc_fn_004C5530 = .text:0x004C5530; // type:function size:0x30
crt_xc_fn_004C5560 = .text:0x004C5560; // type:function size:0x1B
crt_xc_fn_004C5580 = .text:0x004C5580; // type:function size:0x350
fn_004C58D0 = .text:0x004C58D0; // type:function size:0x10
?MoveToDevelopmentPhase@Creature@@QAEXVDEVELOPMENT_PHASE@@H@Z = .text:0x004C59C0; // type:function size:0xF0
?FalseFunction@Creature@@UAEIXZ = .text:0x004C5E50; // type:function size:0x10 scope:global
crt_xc_fn_004C5F50 = .text:0x004C5F50; // type:function size:0x30
crt_xc_fn_004C5F90 = .text:0x004C5F90; // type:function size:0x30
crt_xc_fn_004C5FC0 = .text:0x004C5FC0; // type:function size:0x1B
?FightThisToObject@Creature@@UAEIPAVGInterfaceStatus@@PAVObject@@@Z = .text:0x004C5FE0; // type:function size:0x10 scope:global
?ForceActOnObject@Creature@@QAEXPAVObject@@@Z = .text:0x004C5FF0; // type:function size:0x470
?SelectFightThisToMapCoord@Creature@@UAEIPAVGInterfaceStatus@@PBUMapCoords@@@Z = .text:0x004C6460; // type:function size:0x70 scope:global
?ApplyFightThisToMapCoord@Creature@@UAEIPAVGInterfaceStatus@@PBUMapCoords@@@Z = .text:0x004C64D0; // type:function size:0x70 scope:global
fn_004C6540 = .text:0x004C6540; // type:function size:0xCE0
fn_004C7220 = .text:0x004C7220; // type:function size:0x170
??_GCreatureCommand@@UAEPAXI@Z = .text:0x004C7420; // type:function size:0x20 scope:global
fn_004C74E0 = .text:0x004C74E0; // type:function size:0xB0
fn_004C7590 = .text:0x004C7590; // type:function size:0x50
crt_xc_fn_004C75E0 = .text:0x004C75E0; // type:function size:0x30
crt_xc_fn_004C7610 = .text:0x004C7610; // type:function size:0x30
crt_xc_fn_004C7640 = .text:0x004C7640; // type:function size:0x1B
?Dump@CreatureBelief@@QAEXPAV_FILE@std@@I@Z = .text:0x004C7920; // type:function size:0xC0
?Dump@CreatureBeliefSmall@@QAEXPAV_FILE@std@@I@Z = .text:0x004C79E0; // type:function size:0x40
?Dump@CreatureBeliefAboutTown@@QAEXPAV_FILE@std@@I@Z = .text:0x004C7A20; // type:function size:0x40
?Dump@CreatureBeliefAboutFlock@@QAEXPAV_FILE@std@@I@Z = .text:0x004C7A60; // type:function size:0x40
?Dump@CreatureBeliefAboutCreature@@QAEXPAV_FILE@std@@I@Z = .text:0x004C7AA0; // type:function size:0x40
?Dump@CreatureBeliefAboutForest@@QAEXPAV_FILE@std@@I@Z = .text:0x004C7AE0; // type:function size:0x40
?Dump@CreatureBeliefAboutVillager@@QAEXPAV_FILE@std@@I@Z = .text:0x004C7B20; // type:function size:0x40
CreatureBeliefAboutMobileObject_vfunc16 = .text:0x004C7B60; // type:function size:0x40
?Dump@CreatureBeliefAboutAbode@@QAEXPAV_FILE@std@@I@Z = .text:0x004C7BA0; // type:function size:0x40
?Dump@CreatureBeliefAboutContext@@QAEXPAV_FILE@std@@I@Z = .text:0x004C7BE0; // type:function size:0x40
?Dump@CreatureBeliefAboutCitadel@@QAEXPAV_FILE@std@@I@Z = .text:0x004C7C20; // type:function size:0x40
fn_004C7D80 = .text:0x004C7D80; // type:function size:0x30
crt_xc_fn_004C7DB0 = .text:0x004C7DB0; // type:function size:0x30
crt_xc_fn_004C7DE0 = .text:0x004C7DE0; // type:function size:0x30
crt_xc_fn_004C7E10 = .text:0x004C7E10; // type:function size:0x1B
fn_004C7E30 = .text:0x004C7E30; // type:function size:0x20
fn_004C7E50 = .text:0x004C7E50; // type:function size:0x60
fn_004C7EB0 = .text:0x004C7EB0; // type:function size:0x20
?GetDominantDesire@CreaturePerceivedPlayerDesires@@QAEXPAVCreature@@@Z = .text:0x004C7ED0; // type:function size:0x50
fn_004C7F20 = .text:0x004C7F20; // type:function size:0x40
fn_004C7F60 = .text:0x004C7F60; // type:function size:0xA0
fn_004C8000 = .text:0x004C8000; // type:function size:0x50
fn_004C8050 = .text:0x004C8050; // type:function size:0x60
?MakeCreatureEmpathiseWithPlayer@GPlayer@@QAEXVCREATURE_DESIRES@@MABVMapCoords@@@Z = .text:0x004C80B0; // type:function size:0x3A
?MakeCreatureEmpathiseWithPlayerTownDesire@GPlayer@@QAEXVTOWN_DESIRE_INFO@@MABVMapCoords@@@Z = .text:0x004C80F0; // type:function size:0x3A
fn_004C8130 = .text:0x004C8130; // type:function size:0x70
??_GCreatureAttitudeToPlayer@@UAEPAXI@Z = .text:0x004C81A0; // type:function size:0x30 scope:global
fn_004C81D0 = .text:0x004C81D0; // type:function size:0x20
fn_004C81F0 = .text:0x004C81F0; // type:function size:0x40
fn_004C8230 = .text:0x004C8230; // type:function size:0x1DB
crt_xc_fn_004C8410 = .text:0x004C8410; // type:function size:0x30
crt_xc_fn_004C8440 = .text:0x004C8440; // type:function size:0x30
crt_xc_fn_004C8470 = .text:0x004C8470; // type:function size:0x1B
fn_004C8490 = .text:0x004C8490; // type:function size:0x20
crt_xc_fn_004C88A0 = .text:0x004C88A0; // type:function size:0x30
crt_xc_fn_004C88D0 = .text:0x004C88D0; // type:function size:0x30
crt_xc_fn_004C8900 = .text:0x004C8900; // type:function size:0x1B
crt_xc_fn_004C8920 = .text:0x004C8920; // type:function size:0x11A0
crt_xc_fn_004C9AC0 = .text:0x004C9AC0; // type:function size:0x170
??0CreatureHelpState@@QAE@XZ = .text:0x004C9C30; // type:function size:0x60 scope:global
fn_004C9C90 = .text:0x004C9C90; // type:function size:0x350
fn_004C9FE0 = .text:0x004C9FE0; // type:function size:0x1F9
fn_004CA240 = .text:0x004CA240; // type:function size:0x20
fn_004CA290 = .text:0x004CA290; // type:function size:0xB0
fn_004CA340 = .text:0x004CA340; // type:function size:0x150
fn_004CA490 = .text:0x004CA490; // type:function size:0xF0
fn_004CA600 = .text:0x004CA600; // type:function size:0x70
fn_004CA670 = .text:0x004CA670; // type:function size:0x80
??0CreatureHelpStackEntry@@QAE@IPAVGameThingWithPos@@ABVMapCoords@@@Z = .text:0x004CA6F0; // type:function size:0x50 scope:global
fn_004CA740 = .text:0x004CA740; // type:function size:0x50
crt_xc_fn_004CB340 = .text:0x004CB340; // type:function size:0x30
crt_xc_fn_004CB370 = .text:0x004CB370; // type:function size:0x30
crt_xc_fn_004CB3A0 = .text:0x004CB3A0; // type:function size:0x1B
fn_004CB3C0 = .text:0x004CB3C0; // type:function size:0x320
fn_004CB6E0 = .text:0x004CB6E0; // type:function size:0x10
?TypeName@Attribute@@QAEXXZ = .text:0x004CB6F0; // type:function size:0x10
?ValueRange@Attribute@@QAEXXZ = .text:0x004CB700; // type:function size:0x10
?ValueName@Attribute@@QAEXI@Z = .text:0x004CB710; // type:function size:0x10
_pef_10243350 = .text:0x004CB720; // type:function size:0x10
?GetType@Attribute@@QAEXXZ = .text:0x004CB730; // type:function size:0x10
?IsDynamic@Attribute@@QAEXXZ = .text:0x004CB740; // type:function size:0x10
??_GAttribute@@UAEPAXI@Z = .text:0x004CB750; // type:function size:0x20 scope:global
?IsDynamic@AttributeAllegiance@@QAEXXZ = .text:0x004CB770; // type:function size:0x10
?TypeName@AttributeAllegiance@@QAEXXZ = .text:0x004CB780; // type:function size:0x10
?ValueRange@AttributeAllegiance@@QAEXXZ = .text:0x004CB790; // type:function size:0x10
?ValueName@AttributeAllegiance@@QAEXI@Z = .text:0x004CB7A0; // type:function size:0x10
?GetType@AttributeAllegiance@@QAEXXZ = .text:0x004CB7B0; // type:function size:0x10
??_GAttributeAllegiance@@UAEPAXI@Z = .text:0x004CB7C0; // type:function size:0x20 scope:global
?IsDynamic@AttributeOrigin@@QAEXXZ = .text:0x004CB7E0; // type:function size:0x10
?TypeName@AttributeOrigin@@QAEXXZ = .text:0x004CB7F0; // type:function size:0x10
?ValueRange@AttributeOrigin@@QAEXXZ = .text:0x004CB800; // type:function size:0x10
?ValueName@AttributeOrigin@@QAEXI@Z = .text:0x004CB810; // type:function size:0x10
?GetType@AttributeOrigin@@QAEXXZ = .text:0x004CB820; // type:function size:0x10
??_GAttributeOrigin@@UAEPAXI@Z = .text:0x004CB830; // type:function size:0x20 scope:global
?IsDynamic@AttributeAnimate@@QAEXXZ = .text:0x004CB850; // type:function size:0x10
?TypeName@AttributeAnimate@@QAEXXZ = .text:0x004CB860; // type:function size:0x10
?ValueRange@AttributeAnimate@@QAEXXZ = .text:0x004CB870; // type:function size:0x10
?ValueName@AttributeAnimate@@QAEXI@Z = .text:0x004CB880; // type:function size:0x20
?GetType@AttributeAnimate@@QAEXXZ = .text:0x004CB8A0; // type:function size:0x10
??_GAttributeAnimate@@UAEPAXI@Z = .text:0x004CB8B0; // type:function size:0x20 scope:global
?IsDynamic@AttributeType@@QAEXXZ = .text:0x004CB8D0; // type:function size:0x10
?TypeName@AttributeType@@QAEXXZ = .text:0x004CB8E0; // type:function size:0x10
?ValueRange@AttributeType@@QAEXXZ = .text:0x004CB8F0; // type:function size:0x10
?GetType@AttributeType@@QAEXXZ = .text:0x004CB900; // type:function size:0x10
??_GAttributeType@@UAEPAXI@Z = .text:0x004CB910; // type:function size:0x20 scope:global
?IsDynamic@AttributeLife@@QAEXXZ = .text:0x004CB930; // type:function size:0x10
?TypeName@AttributeLife@@QAEXXZ = .text:0x004CB940; // type:function size:0x10
?ValueRange@AttributeLife@@QAEXXZ = .text:0x004CB950; // type:function size:0x10
?ValueName@AttributeLife@@QAEXI@Z = .text:0x004CB960; // type:function size:0x10
?GetType@AttributeLife@@QAEXXZ = .text:0x004CB970; // type:function size:0x10
??_GAttributeLife@@UAEPAXI@Z = .text:0x004CB980; // type:function size:0x20 scope:global
?IsDynamic@AttributeVillagerJob@@QAEXXZ = .text:0x004CB9A0; // type:function size:0x10
?TypeName@AttributeVillagerJob@@QAEXXZ = .text:0x004CB9B0; // type:function size:0x10
?ValueRange@AttributeVillagerJob@@QAEXXZ = .text:0x004CB9C0; // type:function size:0x10
?GetType@AttributeVillagerJob@@QAEXXZ = .text:0x004CB9D0; // type:function size:0x10
??_GAttributeVillagerJob@@UAEPAXI@Z = .text:0x004CB9E0; // type:function size:0x20 scope:global
?IsDynamic@AttributeSex@@QAEXXZ = .text:0x004CBA00; // type:function size:0x10
?TypeName@AttributeSex@@QAEXXZ = .text:0x004CBA10; // type:function size:0x10
?ValueRange@AttributeSex@@QAEXXZ = .text:0x004CBA20; // type:function size:0x10
?ValueName@AttributeSex@@QAEXI@Z = .text:0x004CBA30; // type:function size:0x10
?GetType@AttributeSex@@QAEXXZ = .text:0x004CBA40; // type:function size:0x10
??_GAttributeSex@@UAEPAXI@Z = .text:0x004CBA50; // type:function size:0x20 scope:global
?IsDynamic@AttributeOnFire@@QAEXXZ = .text:0x004CBA70; // type:function size:0x10
?TypeName@AttributeOnFire@@QAEXXZ = .text:0x004CBA80; // type:function size:0x10
?ValueRange@AttributeOnFire@@QAEXXZ = .text:0x004CBA90; // type:function size:0x10
?ValueName@AttributeOnFire@@QAEXI@Z = .text:0x004CBAA0; // type:function size:0x10
?GetType@AttributeOnFire@@QAEXXZ = .text:0x004CBAB0; // type:function size:0x10
??_GAttributeOnFire@@UAEPAXI@Z = .text:0x004CBAC0; // type:function size:0x20 scope:global
?IsDynamic@AttributePlayerNumber@@QAEXXZ = .text:0x004CBAE0; // type:function size:0x10
?TypeName@AttributePlayerNumber@@QAEXXZ = .text:0x004CBAF0; // type:function size:0x10
?ValueRange@AttributePlayerNumber@@QAEXXZ = .text:0x004CBB00; // type:function size:0x10
?GetType@AttributePlayerNumber@@QAEXXZ = .text:0x004CBB10; // type:function size:0x10
??_GAttributePlayerNumber@@UAEPAXI@Z = .text:0x004CBB20; // type:function size:0x20 scope:global
?IsDynamic@AttributeIsHarderThanMe@@QAEXXZ = .text:0x004CBB40; // type:function size:0x10
?TypeName@AttributeIsHarderThanMe@@QAEXXZ = .text:0x004CBB50; // type:function size:0x10
?ValueRange@AttributeIsHarderThanMe@@QAEXXZ = .text:0x004CBB60; // type:function size:0x10
?GetType@AttributeIsHarderThanMe@@QAEXXZ = .text:0x004CBB70; // type:function size:0x10
??_GAttributeIsHarderThanMe@@UAEPAXI@Z = .text:0x004CBB80; // type:function size:0x20 scope:global
?IsDynamic@AttributeCreatureType@@QAEXXZ = .text:0x004CBBA0; // type:function size:0x10
?TypeName@AttributeCreatureType@@QAEXXZ = .text:0x004CBBB0; // type:function size:0x10
?ValueRange@AttributeCreatureType@@QAEXXZ = .text:0x004CBBC0; // type:function size:0x10
?GetType@AttributeCreatureType@@QAEXXZ = .text:0x004CBBD0; // type:function size:0x10
??_GAttributeCreatureType@@UAEPAXI@Z = .text:0x004CBBE0; // type:function size:0x20 scope:global
??_GCreatureLearningEpisode@@UAEPAXI@Z = .text:0x004CBC00; // type:function size:0x20 scope:global
?IsDynamic@AttributeTribe@@QAEXXZ = .text:0x004CD650; // type:function size:0x10
?TypeName@AttributeTribe@@QAEXXZ = .text:0x004CD660; // type:function size:0x10
?ValueRange@AttributeTribe@@QAEXXZ = .text:0x004CD670; // type:function size:0x10
?ValueName@AttributeTribe@@QAEXI@Z = .text:0x004CD680; // type:function size:0x10
?GetType@AttributeTribe@@QAEXXZ = .text:0x004CD690; // type:function size:0x10
??_GAttributeTribe@@UAEPAXI@Z = .text:0x004CD6A0; // type:function size:0x20 scope:global
?IsDynamic@AttributeTownReligiousBeliefInYou@@QAEXXZ = .text:0x004CD6C0; // type:function size:0x10
?TypeName@AttributeTownReligiousBeliefInYou@@QAEXXZ = .text:0x004CD6D0; // type:function size:0x10
?ValueRange@AttributeTownReligiousBeliefInYou@@QAEXXZ = .text:0x004CD6E0; // type:function size:0x10
?ValueName@AttributeTownReligiousBeliefInYou@@QAEXI@Z = .text:0x004CD6F0; // type:function size:0x10
?GetType@AttributeTownReligiousBeliefInYou@@QAEXXZ = .text:0x004CD700; // type:function size:0x10
??_GAttributeTownReligiousBeliefInYou@@UAEPAXI@Z = .text:0x004CD710; // type:function size:0x20 scope:global
?IsDynamic@AttributeWhatTownNeedsMost@@QAEXXZ = .text:0x004CD730; // type:function size:0x10
?TypeName@AttributeWhatTownNeedsMost@@QAEXXZ = .text:0x004CD740; // type:function size:0x10
?ValueRange@AttributeWhatTownNeedsMost@@QAEXXZ = .text:0x004CD750; // type:function size:0x10
?GetType@AttributeWhatTownNeedsMost@@QAEXXZ = .text:0x004CD760; // type:function size:0x10
??_GAttributeWhatTownNeedsMost@@UAEPAXI@Z = .text:0x004CD770; // type:function size:0x20 scope:global
?IsDynamic@AttributeTownSize@@QAEXXZ = .text:0x004CD790; // type:function size:0x10
?TypeName@AttributeTownSize@@QAEXXZ = .text:0x004CD7A0; // type:function size:0x10
?ValueRange@AttributeTownSize@@QAEXXZ = .text:0x004CD7B0; // type:function size:0x10
?ValueName@AttributeTownSize@@QAEXI@Z = .text:0x004CD7C0; // type:function size:0x10
?GetType@AttributeTownSize@@QAEXXZ = .text:0x004CD7D0; // type:function size:0x10
??_GAttributeTownSize@@UAEPAXI@Z = .text:0x004CD7E0; // type:function size:0x20 scope:global
fn_004CE200 = .text:0x004CE200; // type:function size:0x5A
fn_004CE260 = .text:0x004CE260; // type:function size:0x20
crt_xc_fn_004CE2A0 = .text:0x004CE2A0; // type:function size:0x30
crt_xc_fn_004CE2D0 = .text:0x004CE2D0; // type:function size:0x30
crt_xc_fn_004CE300 = .text:0x004CE300; // type:function size:0x1B
?UpdateLeash@Creature@@QAEXXZ = .text:0x004CE320; // type:function size:0x3BB
fn_004CEFB0 = .text:0x004CEFB0; // type:function size:0x10
fn_004CEFC0 = .text:0x004CEFC0; // type:function size:0x60
fn_004CF040 = .text:0x004CF040; // type:function size:0x1A
?GetInterfaceStatusLeashOn@Creature@@QAEXXZ = .text:0x004CF060; // type:function size:0x3A
?IsLeashWorking@Creature@@QAEXXZ = .text:0x004CF0A0; // type:function size:0x3A
?GetObjectWhichLeashIsAttachedTo@Creature@@QAEXXZ = .text:0x004CF120; // type:function size:0x50
crt_xc_fn_004CF170 = .text:0x004CF170; // type:function size:0x30
crt_xc_fn_004CF1A0 = .text:0x004CF1A0; // type:function size:0x30
crt_xc_fn_004CF1D0 = .text:0x004CF1D0; // type:function size:0x1B
fn_004CF220 = .text:0x004CF220; // type:function size:0x50
fn_004CF270 = .text:0x004CF270; // type:function size:0x67B
?GetText@?$EditorIconNumber@MM@@QAEXXZ = .text:0x004CF8F0; // type:function size:0x10
fn_004CF900 = .text:0x004CF900; // type:function size:0xE0
fn_004CF9E0 = .text:0x004CF9E0; // type:function size:0x20
fn_004CFB10 = .text:0x004CFB10; // type:function size:0x40
fn_004CFB50 = .text:0x004CFB50; // type:function size:0x10
fn_004CFC80 = .text:0x004CFC80; // type:function size:0x1E0
??_GCreatureContext@@UAEPAXI@Z = .text:0x004CFE60; // type:function size:0x2A scope:global
fn_004CFE90 = .text:0x004CFE90; // type:function size:0x60
fn_004CFEF0 = .text:0x004CFEF0; // type:function size:0x90
fn_004CFF80 = .text:0x004CFF80; // type:function size:0xB0
fn_004D0030 = .text:0x004D0030; // type:function size:0xB0
fn_004D00E0 = .text:0x004D00E0; // type:function size:0xA0
?$EditorIconButton_VCreatureLessonChooser___vfunc1 = .text:0x004D0220; // type:function size:0x9B
crt_xc_fn_004D02C0 = .text:0x004D02C0; // type:function size:0x30
crt_xc_fn_004D02F0 = .text:0x004D02F0; // type:function size:0x30
crt_xc_fn_004D0320 = .text:0x004D0320; // type:function size:0x1B
fn_004D0340 = .text:0x004D0340; // type:function size:0x30
??_GCreatureVisionState@@UAEPAXI@Z = .text:0x004D0370; // type:function size:0x20 scope:global
fn_004D0390 = .text:0x004D0390; // type:function size:0x20
fn_004D03B0 = .text:0x004D03B0; // type:function size:0x2A0
?UpdateLongRangeVision@Creature@@QAEXXZ = .text:0x004D0650; // type:function size:0xB0
fn_004D0700 = .text:0x004D0700; // type:function size:0xA0
fn_004D07A0 = .text:0x004D07A0; // type:function size:0x190
fn_004D0930 = .text:0x004D0930; // type:function size:0xD6
fn_004D0A20 = .text:0x004D0A20; // type:function size:0x160
fn_004D0B80 = .text:0x004D0B80; // type:function size:0x50
fn_004D1870 = .text:0x004D1870; // type:function size:0x4B
?GetHowMuchCreatureWantsToLookAtMe@MobileStatic@@UAEMXZ = .text:0x004D1AF0; // type:function size:0x20 scope:global
?GetHowMuchCreatureWantsToLookAtMe@Dove@@UAEMXZ = .text:0x004D1B10; // type:function size:0x10 scope:global
?GetHowMuchCreatureWantsToLookAtMe@Animal@@UAEMXZ = .text:0x004D1B20; // type:function size:0x10 scope:global
?GetHowMuchCreatureWantsToLookAtMe@Creature@@UAEMXZ = .text:0x004D1B30; // type:function size:0x10 scope:global
?GetHowMuchCreatureWantsToLookAtMe@Villager@@UAEMXZ = .text:0x004D1B40; // type:function size:0x10 scope:global
?GetHowMuchCreatureWantsToLookAtMe@Citadel@@UAEMXZ = .text:0x004D1B50; // type:function size:0x10 scope:global
?GetHowMuchCreatureWantsToLookAtMe@Abode@@UAEMXZ = .text:0x004D1B60; // type:function size:0x10 scope:global
?GetHowMuchCreatureWantsToLookAtMe@Tree@@UAEMXZ = .text:0x004D1B70; // type:function size:0x10 scope:global
?GetHowMuchCreatureWantsToLookAtMe@Fixed@@UAEMXZ = .text:0x004D1B80; // type:function size:0x10 scope:global
??0CreatureInterestingThingToLookAt@@QAE@XZ = .text:0x004D1B90; // type:function size:0x20 scope:global
fn_004D1BB0 = .text:0x004D1BB0; // type:function size:0x6A
fn_004D1C20 = .text:0x004D1C20; // type:function size:0x90
fn_004D1CB0 = .text:0x004D1CB0; // type:function size:0xC0
fn_004D1D70 = .text:0x004D1D70; // type:function size:0x15A
?ConsiderNewMountainsToLookAt@CreatureInterestingThingToLookAt@@QAEXPAVCreature@@@Z = .text:0x004D1ED0; // type:function size:0x180
?ConsiderNewWaterToLookAt@CreatureInterestingThingToLookAt@@QAEXPAVCreature@@@Z = .text:0x004D2050; // type:function size:0x180
fn_004D21D0 = .text:0x004D21D0; // type:function size:0xA0
crt_xc_fn_004D2270 = .text:0x004D2270; // type:function size:0x30
crt_xc_fn_004D22A0 = .text:0x004D22A0; // type:function size:0x30
crt_xc_fn_004D22D0 = .text:0x004D22D0; // type:function size:0x1B
??0CreatureMental@@QAE@PAVCreature@@PBVCreatureInfo@@ABVMapCoords@@PAVGPlayer@@@Z = .text:0x004D22F0; // type:function size:0x200
??_GCreatureBeliefList@@UAEPAXI@Z = .text:0x004D24F0; // type:function size:0x20 scope:global
??_GCreatureBeliefs@@UAEPAXI@Z = .text:0x004D2510; // type:function size:0x30 scope:global
??_GCreatureMentalDebug@@UAEPAXI@Z = .text:0x004D2540; // type:function size:0x20 scope:global
??_GCreatureMental@@UAEPAXI@Z = .text:0x004D2560; // type:function size:0x30 scope:global
fn_004D2590 = .text:0x004D2590; // type:function size:0x150
fn_004D26E0 = .text:0x004D26E0; // type:function size:0x30
fn_004D2710 = .text:0x004D2710; // type:function size:0x30
fn_004D2740 = .text:0x004D2740; // type:function size:0x40
fn_004D2780 = .text:0x004D2780; // type:function size:0x80
fn_004D2870 = .text:0x004D2870; // type:function size:0x50
crt_xc_fn_004D28C0 = .text:0x004D28C0; // type:function size:0x30
crt_xc_fn_004D28F0 = .text:0x004D28F0; // type:function size:0x30
crt_xc_fn_004D2920 = .text:0x004D2920; // type:function size:0x1B
IsTimeRipeForEatingFromFields__8CreatureFR12CreaturePlan15CREATURE_ACTION = .text:0x004D2BA0; // type:function size:0x20
crt_xc_fn_004D3430 = .text:0x004D3430; // type:function size:0x30
crt_xc_fn_004D3460 = .text:0x004D3460; // type:function size:0x30
crt_xc_fn_004D3490 = .text:0x004D3490; // type:function size:0x1B
??0CreatureAgenda@@QAE@PAVCreature@@PBVCreatureInfo@@@Z = .text:0x004D34B0; // type:function size:0x130 scope:global
??_GCreatureCommandState@@UAEPAXI@Z = .text:0x004D35E0; // type:function size:0x20 scope:global
??_GCreatureAgenda@@UAEPAXI@Z = .text:0x004D3600; // type:function size:0xA0 scope:global
?ConstructSubActionsFromActionAgenda@CreatureAgenda@@QAEXVCREATURE_ACTION@@@Z = .text:0x004D36A0; // type:function size:0xC0
fn_004D3760 = .text:0x004D3760; // type:function size:0x90
fn_004D37F0 = .text:0x004D37F0; // type:function size:0x10
fn_004D3800 = .text:0x004D3800; // type:function size:0x3B
crt_xc_fn_004D3840 = .text:0x004D3840; // type:function size:0x30
crt_xc_fn_004D3870 = .text:0x004D3870; // type:function size:0x30
crt_xc_fn_004D38A0 = .text:0x004D38A0; // type:function size:0x1B
?UpdateValue@AttributeAllegiance@@QAEXPAVGameThingWithPos@@PAVGPlayer@@@Z = .text:0x004D38C0; // type:function size:0x40
?UpdateValue@AttributeOrigin@@QAEXPAVGameThingWithPos@@PAVGPlayer@@@Z = .text:0x004D3900; // type:function size:0x30
?UpdateValue@AttributeAnimate@@QAEXPAVGameThingWithPos@@PAVGPlayer@@@Z = .text:0x004D3930; // type:function size:0x30
?UpdateValue@AttributeType@@QAEXPAVGameThingWithPos@@PAVGPlayer@@@Z = .text:0x004D3960; // type:function size:0x30
?ValueName@AttributeType@@QAEXI@Z = .text:0x004D3990; // type:function size:0x10
?UpdateValue@AttributeLife@@QAEXPAVGameThingWithPos@@PAVGPlayer@@@Z = .text:0x004D39A0; // type:function size:0x70
?UpdateValue@AttributeTribe@@QAEXPAVGameThingWithPos@@PAVGPlayer@@@Z = .text:0x004D3A10; // type:function size:0x50
?UpdateValue@AttributeTownReligiousBeliefInYou@@QAEXPAVGameThingWithPos@@PAVGPlayer@@@Z = .text:0x004D3A60; // type:function size:0xB0
?UpdateValue@AttributeWhatTownNeedsMost@@QAEXPAVGameThingWithPos@@PAVGPlayer@@@Z = .text:0x004D3B10; // type:function size:0x50
?ValueName@AttributeWhatTownNeedsMost@@QAEXI@Z = .text:0x004D3B60; // type:function size:0x1A
?UpdateValue@AttributeTownSize@@QAEXPAVGameThingWithPos@@PAVGPlayer@@@Z = .text:0x004D3B80; // type:function size:0x70
?UpdateValue@AttributeCreatureDominantDesire@@QAEXPAVGameThingWithPos@@PAVGPlayer@@@Z = .text:0x004D3BF0; // type:function size:0x5B
?ValueName@AttributeCreatureDominantDesire@@QAEXI@Z = .text:0x004D3C50; // type:function size:0x20
?UpdateValue@AttributeCreatureHeight@@QAEXPAVGameThingWithPos@@PAVGPlayer@@@Z = .text:0x004D3C70; // type:function size:0xA0
?UpdateValue@AttributeCreatureSpellKnowledge@@QAEXPAVGameThingWithPos@@PAVGPlayer@@@Z = .text:0x004D3D10; // type:function size:0x4B
?ValueName@AttributeCreatureSpellKnowledge@@QAEXI@Z = .text:0x004D3D60; // type:function size:0x20
?UpdateValue@AttributeCreatureWhatHeIsCarrying@@QAEXPAVGameThingWithPos@@PAVGPlayer@@@Z = .text:0x004D3D80; // type:function size:0x5B
?ValueName@AttributeCreatureWhatHeIsCarrying@@QAEXI@Z = .text:0x004D3DE0; // type:function size:0x10
?UpdateValue@AttributeForestSize@@QAEXPAVGameThingWithPos@@PAVGPlayer@@@Z = .text:0x004D3DF0; // type:function size:0x70
?UpdateValue@AttributeVillagerJob@@QAEXPAVGameThingWithPos@@PAVGPlayer@@@Z = .text:0x004D3E60; // type:function size:0x60
?ValueName@AttributeVillagerJob@@QAEXI@Z = .text:0x004D3EC0; // type:function size:0x10
?UpdateValue@AttributeSex@@QAEXPAVGameThingWithPos@@PAVGPlayer@@@Z = .text:0x004D3ED0; // type:function size:0x50
?UpdateValue@AttributeMobileObjectType@@QAEXPAVGameThingWithPos@@PAVGPlayer@@@Z = .text:0x004D3F20; // type:function size:0x50
?UpdateValue@AttributeAbodeType@@QAEXPAVGameThingWithPos@@PAVGPlayer@@@Z = .text:0x004D3F70; // type:function size:0x50
?UpdateValue@AttributeAbodeBeingBuilt@@QAEXPAVGameThingWithPos@@PAVGPlayer@@@Z = .text:0x004D3FC0; // type:function size:0x60
?UpdateValue@AttributeOnFire@@QAEXPAVGameThingWithPos@@PAVGPlayer@@@Z = .text:0x004D4020; // type:function size:0x50
?UpdateValue@AttributePlayerNumber@@QAEXPAVGameThingWithPos@@PAVGPlayer@@@Z = .text:0x004D4070; // type:function size:0x50
?ValueName@AttributePlayerNumber@@QAEXI@Z = .text:0x004D40C0; // type:function size:0x20
?UpdateValue@AttributeIsHarderThanMe@@QAEXPAVGameThingWithPos@@PAVGPlayer@@@Z = .text:0x004D40E0; // type:function size:0x80
?ValueName@AttributeIsHarderThanMe@@QAEXI@Z = .text:0x004D4160; // type:function size:0x20
?UpdateValue@AttributeCreatureType@@QAEXPAVGameThingWithPos@@PAVGPlayer@@@Z = .text:0x004D4180; // type:function size:0x50
?ValueName@AttributeCreatureType@@QAEXI@Z = .text:0x004D41D0; // type:function size:0x20
crt_xc_fn_004D41F0 = .text:0x004D41F0; // type:function size:0x30
crt_xc_fn_004D4220 = .text:0x004D4220; // type:function size:0x30
crt_xc_fn_004D4250 = .text:0x004D4250; // type:function size:0x1B
fn_004D4270 = .text:0x004D4270; // type:function size:0x50
fn_004D4340 = .text:0x004D4340; // type:function size:0xA
fn_004D4350 = .text:0x004D4350; // type:function size:0x30
??0DecisionTree@@QAE@VDECISION_TREE_TYPE@@VCREATURE_DESIRES@@VCREATURE_ACTION@@@Z = .text:0x004D4380; // type:function size:0x50 scope:global
??0DecisionTreeAgenda@@QAE@VDECISION_TREE_TYPE@@VCREATURE_DESIRES@@@Z = .text:0x004D43F0; // type:function size:0x50 scope:global
fn_004D4490 = .text:0x004D4490; // type:function size:0x70
fn_004D4500 = .text:0x004D4500; // type:function size:0x20
fn_004D4520 = .text:0x004D4520; // type:function size:0x2D
fn_004D454D = .text:0x004D454D; // type:function size:0x3
fn_004D4550 = .text:0x004D4550; // type:function size:0x130
fn_004D4930 = .text:0x004D4930; // type:function size:0x1B0
fn_004D4B00 = .text:0x004D4B00; // type:function size:0x7A
fn_004D4B80 = .text:0x004D4B80; // type:function size:0x20
fn_004D4BA0 = .text:0x004D4BA0; // type:function size:0x30
fn_004D4BF0 = .text:0x004D4BF0; // type:function size:0x20
??0AttributeTest@@QAE@VDECISION_TREE_TYPE@@VCREATURE_DESIRES@@VCREATURE_ACTION@@@Z = .text:0x004D4C20; // type:function size:0x70 scope:global
fn_004D4C90 = .text:0x004D4C90; // type:function size:0xA0
fn_004D4D30 = .text:0x004D4D30; // type:function size:0xC0
fn_004D4DF0 = .text:0x004D4DF0; // type:function size:0x90
fn_004D4E80 = .text:0x004D4E80; // type:function size:0xF0
fn_004D4F70 = .text:0x004D4F70; // type:function size:0x180
fn_004D50F0 = .text:0x004D50F0; // type:function size:0x60
fn_004D5280 = .text:0x004D5280; // type:function size:0x2B
fn_004D52B0 = .text:0x004D52B0; // type:function size:0xAAB
?IsDynamic@AttributeCreatureDominantDesire@@QAEXXZ = .text:0x004D5D60; // type:function size:0x10
?TypeName@AttributeCreatureDominantDesire@@QAEXXZ = .text:0x004D5D70; // type:function size:0x10
?ValueRange@AttributeCreatureDominantDesire@@QAEXXZ = .text:0x004D5D80; // type:function size:0x10
?GetType@AttributeCreatureDominantDesire@@QAEXXZ = .text:0x004D5D90; // type:function size:0x10
??_GAttributeCreatureDominantDesire@@UAEPAXI@Z = .text:0x004D5DA0; // type:function size:0x20 scope:global
?IsDynamic@AttributeCreatureHeight@@QAEXXZ = .text:0x004D5DC0; // type:function size:0x10
?TypeName@AttributeCreatureHeight@@QAEXXZ = .text:0x004D5DD0; // type:function size:0x10
?ValueRange@AttributeCreatureHeight@@QAEXXZ = .text:0x004D5DE0; // type:function size:0x10
?ValueName@AttributeCreatureHeight@@QAEXI@Z = .text:0x004D5DF0; // type:function size:0x10
?GetType@AttributeCreatureHeight@@QAEXXZ = .text:0x004D5E00; // type:function size:0x10
??_GAttributeCreatureHeight@@UAEPAXI@Z = .text:0x004D5E10; // type:function size:0x20 scope:global
?IsDynamic@AttributeCreatureSpellKnowledge@@QAEXXZ = .text:0x004D5E30; // type:function size:0x10
?TypeName@AttributeCreatureSpellKnowledge@@QAEXXZ = .text:0x004D5E40; // type:function size:0x10
?ValueRange@AttributeCreatureSpellKnowledge@@QAEXXZ = .text:0x004D5E50; // type:function size:0x10
?GetType@AttributeCreatureSpellKnowledge@@QAEXXZ = .text:0x004D5E60; // type:function size:0x10
??_GAttributeCreatureSpellKnowledge@@UAEPAXI@Z = .text:0x004D5E70; // type:function size:0x20 scope:global
?IsDynamic@AttributeCreatureWhatHeIsCarrying@@QAEXXZ = .text:0x004D5E90; // type:function size:0x10
?TypeName@AttributeCreatureWhatHeIsCarrying@@QAEXXZ = .text:0x004D5EA0; // type:function size:0x10
?ValueRange@AttributeCreatureWhatHeIsCarrying@@QAEXXZ = .text:0x004D5EB0; // type:function size:0x10
?GetType@AttributeCreatureWhatHeIsCarrying@@QAEXXZ = .text:0x004D5EC0; // type:function size:0x10
??_GAttributeCreatureWhatHeIsCarrying@@UAEPAXI@Z = .text:0x004D5ED0; // type:function size:0x20 scope:global
?IsDynamic@AttributeForestSize@@QAEXXZ = .text:0x004D5EF0; // type:function size:0x10
?TypeName@AttributeForestSize@@QAEXXZ = .text:0x004D5F00; // type:function size:0x10
?ValueRange@AttributeForestSize@@QAEXXZ = .text:0x004D5F10; // type:function size:0x10
?ValueName@AttributeForestSize@@QAEXI@Z = .text:0x004D5F20; // type:function size:0x10
?GetType@AttributeForestSize@@QAEXXZ = .text:0x004D5F30; // type:function size:0x10
??_GAttributeForestSize@@UAEPAXI@Z = .text:0x004D5F40; // type:function size:0x20 scope:global
?IsDynamic@AttributeMobileObjectType@@QAEXXZ = .text:0x004D5F60; // type:function size:0x10
?TypeName@AttributeMobileObjectType@@QAEXXZ = .text:0x004D5F70; // type:function size:0x10
?ValueRange@AttributeMobileObjectType@@QAEXXZ = .text:0x004D5F80; // type:function size:0x10
?ValueName@AttributeMobileObjectType@@QAEXI@Z = .text:0x004D5F90; // type:function size:0x10
?GetType@AttributeMobileObjectType@@QAEXXZ = .text:0x004D5FA0; // type:function size:0x10
??_GAttributeMobileObjectType@@UAEPAXI@Z = .text:0x004D5FB0; // type:function size:0x20 scope:global
?IsDynamic@AttributeAbodeType@@QAEXXZ = .text:0x004D5FD0; // type:function size:0x10
?TypeName@AttributeAbodeType@@QAEXXZ = .text:0x004D5FE0; // type:function size:0x10
?ValueRange@AttributeAbodeType@@QAEXXZ = .text:0x004D5FF0; // type:function size:0x10
?ValueName@AttributeAbodeType@@QAEXI@Z = .text:0x004D6000; // type:function size:0x10
?GetType@AttributeAbodeType@@QAEXXZ = .text:0x004D6010; // type:function size:0x10
??_GAttributeAbodeType@@UAEPAXI@Z = .text:0x004D6020; // type:function size:0x20 scope:global
?IsDynamic@AttributeAbodeBeingBuilt@@QAEXXZ = .text:0x004D6040; // type:function size:0x10
?TypeName@AttributeAbodeBeingBuilt@@QAEXXZ = .text:0x004D6050; // type:function size:0x10
?ValueRange@AttributeAbodeBeingBuilt@@QAEXXZ = .text:0x004D6060; // type:function size:0x10
?ValueName@AttributeAbodeBeingBuilt@@QAEXI@Z = .text:0x004D6070; // type:function size:0x10
?GetType@AttributeAbodeBeingBuilt@@QAEXXZ = .text:0x004D6080; // type:function size:0x10
??_GAttributeAbodeBeingBuilt@@UAEPAXI@Z = .text:0x004D6090; // type:function size:0x20 scope:global
fn_004D60B0 = .text:0x004D60B0; // type:function size:0x30
fn_004D60E0 = .text:0x004D60E0; // type:function size:0x30
fn_004D6110 = .text:0x004D6110; // type:function size:0x20
fn_004D6130 = .text:0x004D6130; // type:function size:0x10
?CreateBelief@DecisionTreeAgenda@@QAEXVCREATURE_BELIEF_TYPE@@@Z = .text:0x004D6140; // type:function size:0x261
?GetType@CreatureBelief@@QAEXXZ = .text:0x004D63F0; // type:function size:0xB
?GetNumAttributes@CreatureBeliefSmall@@QAEXXZ = .text:0x004D6400; // type:function size:0x10
?GetNthAttribute@CreatureBeliefSmall@@QAEXI@Z = .text:0x004D6410; // type:function size:0xB
?GetNthAttributePtr@CreatureBeliefSmall@@QAEXI@Z = .text:0x004D6420; // type:function size:0xB
??_GCreatureBeliefSmall@@UAEPAXI@Z = .text:0x004D6430; // type:function size:0x20 scope:global
?GetNumAttributes@CreatureBeliefAboutVillager@@QAEXXZ = .text:0x004D6450; // type:function size:0x10
?GetNthAttribute@CreatureBeliefAboutVillager@@QAEXI@Z = .text:0x004D6460; // type:function size:0xB
?GetNthAttributePtr@CreatureBeliefAboutVillager@@QAEXI@Z = .text:0x004D6470; // type:function size:0xB
??_GCreatureBeliefAboutVillager@@UAEPAXI@Z = .text:0x004D6480; // type:function size:0x20 scope:global
?GetNumAttributes@CreatureBeliefAboutTown@@QAEXXZ = .text:0x004D64A0; // type:function size:0x10
?GetNthAttribute@CreatureBeliefAboutTown@@QAEXI@Z = .text:0x004D64B0; // type:function size:0xB
?GetNthAttributePtr@CreatureBeliefAboutTown@@QAEXI@Z = .text:0x004D64C0; // type:function size:0xB
??_GCreatureBeliefAboutTown@@UAEPAXI@Z = .text:0x004D64D0; // type:function size:0x20 scope:global
?GetNumAttributes@CreatureBeliefAboutFlock@@QAEXXZ = .text:0x004D64F0; // type:function size:0x10
?GetNthAttribute@CreatureBeliefAboutFlock@@QAEXI@Z = .text:0x004D6500; // type:function size:0xB
?GetNthAttributePtr@CreatureBeliefAboutFlock@@QAEXI@Z = .text:0x004D6510; // type:function size:0xB
??_GCreatureBeliefAboutFlock@@UAEPAXI@Z = .text:0x004D6520; // type:function size:0x20 scope:global
?GetNumAttributes@CreatureBeliefAboutCitadel@@QAEXXZ = .text:0x004D6540; // type:function size:0x10
?GetNthAttribute@CreatureBeliefAboutCitadel@@QAEXI@Z = .text:0x004D6550; // type:function size:0xB
?GetNthAttributePtr@CreatureBeliefAboutCitadel@@QAEXI@Z = .text:0x004D6560; // type:function size:0xB
??_GCreatureBeliefAboutCitadel@@UAEPAXI@Z = .text:0x004D6570; // type:function size:0x20 scope:global
?GetNumAttributes@CreatureBeliefAboutCreature@@QAEXXZ = .text:0x004D6590; // type:function size:0x10
?GetNthAttribute@CreatureBeliefAboutCreature@@QAEXI@Z = .text:0x004D65A0; // type:function size:0xB
?GetNthAttributePtr@CreatureBeliefAboutCreature@@QAEXI@Z = .text:0x004D65B0; // type:function size:0xB
??_GCreatureBeliefAboutCreature@@UAEPAXI@Z = .text:0x004D65C0; // type:function size:0x20 scope:global
?GetNumAttributes@CreatureBeliefAboutForest@@QAEXXZ = .text:0x004D65E0; // type:function size:0x10
?GetNthAttribute@CreatureBeliefAboutForest@@QAEXI@Z = .text:0x004D65F0; // type:function size:0xB
?GetNthAttributePtr@CreatureBeliefAboutForest@@QAEXI@Z = .text:0x004D6600; // type:function size:0xB
??_GCreatureBeliefAboutForest@@UAEPAXI@Z = .text:0x004D6610; // type:function size:0x20 scope:global
?GetNumAttributes@CreatureBeliefAboutAbode@@QAEXXZ = .text:0x004D6630; // type:function size:0x10
?GetNthAttribute@CreatureBeliefAboutAbode@@QAEXI@Z = .text:0x004D6640; // type:function size:0xB
?GetNthAttributePtr@CreatureBeliefAboutAbode@@QAEXI@Z = .text:0x004D6650; // type:function size:0xB
??_GCreatureBeliefAboutAbode@@UAEPAXI@Z = .text:0x004D6660; // type:function size:0x20 scope:global
?GetNumAttributes@CreatureBeliefAboutContext@@QAEXXZ = .text:0x004D6680; // type:function size:0x10
?GetNthAttribute@CreatureBeliefAboutContext@@QAEXI@Z = .text:0x004D6690; // type:function size:0x10
?GetNthAttributePtr@CreatureBeliefAboutContext@@QAEXI@Z = .text:0x004D66A0; // type:function size:0x10
?GetType@CreatureBeliefAboutContext@@QAEXXZ = .text:0x004D66B0; // type:function size:0x10
??_GCreatureBeliefAboutContext@@UAEPAXI@Z = .text:0x004D66C0; // type:function size:0x20 scope:global
fn_004D66E0 = .text:0x004D66E0; // type:function size:0x20
fn_004D6700 = .text:0x004D6700; // type:function size:0x80
fn_004D6780 = .text:0x004D6780; // type:function size:0xF0
fn_004D6870 = .text:0x004D6870; // type:function size:0x80
fn_004D68F0 = .text:0x004D68F0; // type:function size:0x60
fn_004D6950 = .text:0x004D6950; // type:function size:0x50
fn_004D69A0 = .text:0x004D69A0; // type:function size:0x10
fn_004D69B0 = .text:0x004D69B0; // type:function size:0xA0
fn_004D6A50 = .text:0x004D6A50; // type:function size:0xBB
fn_004D6B10 = .text:0x004D6B10; // type:function size:0x1C0
fn_004D6CD0 = .text:0x004D6CD0; // type:function size:0x150
fn_004D6E20 = .text:0x004D6E20; // type:function size:0x1A
fn_004D6E40 = .text:0x004D6E40; // type:function size:0x30
fn_004D6E70 = .text:0x004D6E70; // type:function size:0x30
fn_004D6EA0 = .text:0x004D6EA0; // type:function size:0x10
??0DecisionTreeCollection@@QAE@XZ = .text:0x004D7220; // type:function size:0x70 scope:global
fn_004D7290 = .text:0x004D7290; // type:function size:0x50
fn_004D72E0 = .text:0x004D72E0; // type:function size:0x30
fn_004D74A0 = .text:0x004D74A0; // type:function size:0x120
fn_004D7670 = .text:0x004D7670; // type:function size:0x80
fn_004D7720 = .text:0x004D7720; // type:function size:0x50
fn_004D7770 = .text:0x004D7770; // type:function size:0x20
crt_xc_fn_004D7790 = .text:0x004D7790; // type:function size:0x30
crt_xc_fn_004D77C0 = .text:0x004D77C0; // type:function size:0x30
crt_xc_fn_004D77F0 = .text:0x004D77F0; // type:function size:0x1B
??0CreatureBelief@@QAE@XZ = .text:0x004D7810; // type:function size:0x80
?GetNumAttributes@CreatureBelief@@QAEXXZ = .text:0x004D7890; // type:function size:0x10
?GetNthAttribute@CreatureBelief@@QAEXI@Z = .text:0x004D78A0; // type:function size:0x10
?GetNthAttributePtr@CreatureBelief@@QAEXI@Z = .text:0x004D78B0; // type:function size:0x10
?FindBestObjectToActOn@CreatureBelief@@QAEXVCREATURE_DESIRES@@PAVCreatureMental@@VCREATURE_ACTION@@PAM@Z = .text:0x004D78C0; // type:function size:0x10
??_GCreatureBelief@@UAEPAXI@Z = .text:0x004D78D0; // type:function size:0x20 scope:global
fn_004D78F0 = .text:0x004D78F0; // type:function size:0x1A
??_GAllocatedBeliefList@@UAEPAXI@Z = .text:0x004D7910; // type:function size:0x20 scope:global
fn_004D7930 = .text:0x004D7930; // type:function size:0x1A
fn_004D7950 = .text:0x004D7950; // type:function size:0x110
fn_004D7A60 = .text:0x004D7A60; // type:function size:0x50
fn_004D7AB0 = .text:0x004D7AB0; // type:function size:0x40
fn_004D7AF0 = .text:0x004D7AF0; // type:function size:0x10
fn_004D7B00 = .text:0x004D7B00; // type:function size:0x50
fn_004D7B50 = .text:0x004D7B50; // type:function size:0x30
?GetBeliefAboutObject@CreatureMental@@QAEXPAVGameThingWithPos@@@Z = .text:0x004D7B80; // type:function size:0x30
?GetBeliefAboutObject@CreatureBeliefList@@QAEPAXPAVGameThingWithPos@@@Z = .text:0x004D7BB0; // type:function size:0x20
?AddBeliefAboutObject@CreatureMental@@QAEPAXPAVCreature@@PAVGameThingWithPos@@@Z = .text:0x004D7BD0; // type:function size:0xD0 scope:global
?AddBeliefAboutObject@CreatureBeliefList@@QAEPAXPAVCreature@@PAVGameThingWithPos@@@Z = .text:0x004D7CE0; // type:function size:0x7B
fn_004D7D60 = .text:0x004D7D60; // type:function size:0x30
?IsBeliefCurrentlyUsedInAgenda@CreatureMental@@QAEXPAVCreatureBelief@@@Z = .text:0x004D7D90; // type:function size:0x8B
fn_004D7E20 = .text:0x004D7E20; // type:function size:0x60
?UpdateAttributes@CreatureBelief@@QAEXPAVCreature@@PAVGameThingWithPos@@PAVGPlayer@@@Z = .text:0x004D7E80; // type:function size:0x100
?UpdateAttributes@CreatureBeliefAboutAbode@@QAEXPAVCreature@@PAVGameThingWithPos@@PAVGPlayer@@@Z = .text:0x004D7F80; // type:function size:0x40
?UpdateAttributes@CreatureBeliefAboutTown@@QAEXPAVCreature@@PAVGameThingWithPos@@PAVGPlayer@@@Z = .text:0x004D7FC0; // type:function size:0xB0
?UpdateAttributes@CreatureBeliefAboutVillager@@QAEXPAVCreature@@PAVGameThingWithPos@@PAVGPlayer@@@Z = .text:0x004D8070; // type:function size:0x190
?UpdateAttributes@CreatureBeliefAboutCreature@@QAEXPAVCreature@@PAVGameThingWithPos@@PAVGPlayer@@@Z = .text:0x004D8230; // type:function size:0x6B
fn_004D82A0 = .text:0x004D82A0; // type:function size:0x60
fn_004D8300 = .text:0x004D8300; // type:function size:0x60
fn_004D8360 = .text:0x004D8360; // type:function size:0x60
?RemoveBeliefsAboutDeletedObjects@CreatureMental@@QAEXXZ = .text:0x004D83C0; // type:function size:0x5C0
fn_004D8980 = .text:0x004D8980; // type:function size:0xA0
fn_004D8A20 = .text:0x004D8A20; // type:function size:0x70
fn_004D8A90 = .text:0x004D8A90; // type:function size:0x20
fn_004D8AB0 = .text:0x004D8AB0; // type:function size:0x20
fn_004D8AF0 = .text:0x004D8AF0; // type:function size:0x50
?Copy@CreatureBelief@@QAEXXZ = .text:0x004D8B40; // type:function size:0x10
fn_004D8B50 = .text:0x004D8B50; // type:function size:0x60
?AddBeliefAboutAssociatedObject@Creature@@QAEXPAVCreatureBelief@@@Z = .text:0x004D8BB0; // type:function size:0x1FE
fn_004D8E10 = .text:0x004D8E10; // type:function size:0x90
?Initialise@CreatureBeliefs@@QAEXXZ = .text:0x004D8EA0; // type:function size:0x770 scope:global
crt_xc_fn_004D9610 = .text:0x004D9610; // type:function size:0x30
crt_xc_fn_004D9640 = .text:0x004D9640; // type:function size:0x30
crt_xc_fn_004D9670 = .text:0x004D9670; // type:function size:0x1B
?CreateCommonAttributes@CreatureBelief@@QAEXXZ = .text:0x004D9690; // type:function size:0x170
fn_004D9800 = .text:0x004D9800; // type:function size:0x1E0
fn_004D99E0 = .text:0x004D99E0; // type:function size:0x10
fn_004D99F0 = .text:0x004D99F0; // type:function size:0xB0
fn_004D9AA0 = .text:0x004D9AA0; // type:function size:0x10
fn_004D9AB0 = .text:0x004D9AB0; // type:function size:0xB0
fn_004D9B60 = .text:0x004D9B60; // type:function size:0x40
fn_004D9BA0 = .text:0x004D9BA0; // type:function size:0xB0
fn_004D9C50 = .text:0x004D9C50; // type:function size:0x40
fn_004D9C90 = .text:0x004D9C90; // type:function size:0xB0
fn_004D9D40 = .text:0x004D9D40; // type:function size:0x10
??4CreatureBelief@@QAEXABV0@@Z = .text:0x004D9D50; // type:function size:0x10
?Copy@CreatureBeliefSmall@@QAEXXZ = .text:0x004D9D60; // type:function size:0x120
?Copy@CreatureBeliefAboutTown@@QAEXXZ = .text:0x004D9E80; // type:function size:0x18A
fn_004DA010 = .text:0x004DA010; // type:function size:0x90
?Copy@CreatureBeliefAboutFlock@@QAEXXZ = .text:0x004DA0A0; // type:function size:0x120
?Copy@CreatureBeliefAboutCreature@@QAEXXZ = .text:0x004DA1C0; // type:function size:0x1A0
?Copy@CreatureBeliefAboutForest@@QAEXXZ = .text:0x004DA360; // type:function size:0xF0
?Copy@CreatureBeliefAboutVillager@@QAEXXZ = .text:0x004DA450; // type:function size:0x18A
CreatureBeliefAboutMobileObject_vfunc13 = .text:0x004DA5E0; // type:function size:0xF0
CreatureBeliefAboutMobileObject_vfunc7 = .text:0x004DA6D0; // type:function size:0x10
CreatureBeliefAboutMobileObject_vfunc8 = .text:0x004DA6E0; // type:function size:0xB
CreatureBeliefAboutMobileObject_vfunc9 = .text:0x004DA6F0; // type:function size:0xB
??_GCreatureBeliefAboutMobileObject@@UAEPAXI@Z = .text:0x004DA700; // type:function size:0x20 scope:global
?Copy@CreatureBeliefAboutAbode@@QAEXXZ = .text:0x004DA720; // type:function size:0x18A
?Copy@CreatureBeliefAboutCitadel@@QAEXXZ = .text:0x004DA8B0; // type:function size:0x120
?Copy@CreatureBeliefAboutContext@@QAEXXZ = .text:0x004DA9D0; // type:function size:0xE0
fn_004DAAB0 = .text:0x004DAAB0; // type:function size:0x40
fn_004DAAF0 = .text:0x004DAAF0; // type:function size:0x40
fn_004DAB30 = .text:0x004DAB30; // type:function size:0x40
fn_004DAB70 = .text:0x004DAB70; // type:function size:0x40
fn_004DABB0 = .text:0x004DABB0; // type:function size:0x40
fn_004DABF0 = .text:0x004DABF0; // type:function size:0x40
fn_004DAC30 = .text:0x004DAC30; // type:function size:0x40
fn_004DAC70 = .text:0x004DAC70; // type:function size:0x40
fn_004DACB0 = .text:0x004DACB0; // type:function size:0x40
fn_004DACF0 = .text:0x004DACF0; // type:function size:0x10
?FindBestObjectToActOn@CreatureBeliefSmall@@QAEXVCREATURE_DESIRES@@PAVCreatureMental@@VCREATURE_ACTION@@PAM@Z = .text:0x004DAD00; // type:function size:0x10
?FindBestObjectToActOn@CreatureBeliefAboutTown@@QAEXVCREATURE_DESIRES@@PAVCreatureMental@@VCREATURE_ACTION@@PAM@Z = .text:0x004DAD10; // type:function size:0xAA
?FindBestObjectToActOn@CreatureBeliefAboutFlock@@QAEXVCREATURE_DESIRES@@PAVCreatureMental@@VCREATURE_ACTION@@PAM@Z = .text:0x004DADC0; // type:function size:0xB0
?FindBestObjectToActOn@CreatureBeliefAboutCreature@@QAEXVCREATURE_DESIRES@@PAVCreatureMental@@VCREATURE_ACTION@@PAM@Z = .text:0x004DAE70; // type:function size:0x20
?FindBestObjectToActOn@CreatureBeliefAboutForest@@QAEXVCREATURE_DESIRES@@PAVCreatureMental@@VCREATURE_ACTION@@PAM@Z = .text:0x004DAE90; // type:function size:0xD0
?FindBestObjectToActOn@CreatureBeliefAboutCitadel@@QAEXVCREATURE_DESIRES@@PAVCreatureMental@@VCREATURE_ACTION@@PAM@Z = .text:0x004DAF60; // type:function size:0xD0
?FindBestObjectToActOn@CreatureBeliefAboutVillager@@QAEXVCREATURE_DESIRES@@PAVCreatureMental@@VCREATURE_ACTION@@PAM@Z = .text:0x004DB030; // type:function size:0x10
CreatureBeliefAboutMobileObject_vfunc12 = .text:0x004DB040; // type:function size:0x10
?FindBestObjectToActOn@CreatureBeliefAboutAbode@@QAEXVCREATURE_DESIRES@@PAVCreatureMental@@VCREATURE_ACTION@@PAM@Z = .text:0x004DB050; // type:function size:0x10
?FindBestObjectToActOn@CreatureBeliefAboutContext@@QAEXVCREATURE_DESIRES@@PAVCreatureMental@@VCREATURE_ACTION@@PAM@Z = .text:0x004DB060; // type:function size:0x10
fn_004DB110 = .text:0x004DB110; // type:function size:0x70
crt_xc_fn_004DB220 = .text:0x004DB220; // type:function size:0x30
crt_xc_fn_004DB250 = .text:0x004DB250; // type:function size:0x30
crt_xc_fn_004DB280 = .text:0x004DB280; // type:function size:0x1B
crt_xc_fn_004DB2A0 = .text:0x004DB2A0; // type:function size:0x10
fn_004DB2B0 = .text:0x004DB2B0; // type:function size:0x30
?GetBaseInfo@CreatureDesireDependency@@UAEPAVGBaseInfo@@AAI@Z = .text:0x004DB2E0; // type:function size:0x20 scope:global
??_GCreatureDesireDependency@@UAEPAXI@Z = .text:0x004DB350; // type:function size:0x30 scope:global
crt_xc_fn_004DB380 = .text:0x004DB380; // type:function size:0x10
fn_004DB390 = .text:0x004DB390; // type:function size:0x30
?GetBaseInfo@CreatureDesireForType@@UAEPAVGBaseInfo@@AAI@Z = .text:0x004DB3C0; // type:function size:0x20 scope:global
??_GCreatureDesireForType@@UAEPAXI@Z = .text:0x004DB420; // type:function size:0x20 scope:global
crt_xc_fn_004DB440 = .text:0x004DB440; // type:function size:0x10
fn_004DB450 = .text:0x004DB450; // type:function size:0x30
?GetBaseInfo@CreatureDevelopmentPhaseEntry@@UAEPAVGBaseInfo@@AAI@Z = .text:0x004DB480; // type:function size:0x20 scope:global
??_GCreatureDevelopmentPhaseEntry@@UAEPAXI@Z = .text:0x004DB4F0; // type:function size:0x30 scope:global
crt_xc_fn_004DB520 = .text:0x004DB520; // type:function size:0x10
fn_004DB530 = .text:0x004DB530; // type:function size:0x30
?GetBaseInfo@CreatureDevelopmentDurationEntry@@UAEPAVGBaseInfo@@AAI@Z = .text:0x004DB560; // type:function size:0x20 scope:global
??_GCreatureDevelopmentDurationEntry@@UAEPAXI@Z = .text:0x004DB5C0; // type:function size:0x20 scope:global
crt_xc_fn_004DB5E0 = .text:0x004DB5E0; // type:function size:0xA0B
??0CreatureDesires@@QAE@PAVCreature@@PBVCreatureInfo@@@Z = .text:0x004DBFF0; // type:function size:0x50 scope:global
??_GCreatureDesires@@UAEPAXI@Z = .text:0x004DC040; // type:function size:0x30 scope:global
fn_004DC070 = .text:0x004DC070; // type:function size:0x90
?Initialise@CreatureDesires@@QAEXPAVCreature@@PBVCreatureInfo@@@Z = .text:0x004DC100; // type:function size:0x110
?SuppressDesiresAfterDecidingOnActivity@CreatureDesires@@QAEXI@Z = .text:0x004DC210; // type:function size:0x50
?SuppressDesire@CreatureDesires@@QAEXIM@Z = .text:0x004DC260; // type:function size:0x70
fn_004DC2D0 = .text:0x004DC2D0; // type:function size:0x20
fn_004DC2F0 = .text:0x004DC2F0; // type:function size:0x20
fn_004DC310 = .text:0x004DC310; // type:function size:0x60
fn_004DC3D0 = .text:0x004DC3D0; // type:function size:0x5B
fn_004DC430 = .text:0x004DC430; // type:function size:0xD0
fn_004DC500 = .text:0x004DC500; // type:function size:0x10
fn_004DC510 = .text:0x004DC510; // type:function size:0xA0
?FindDominantDesire@CreatureDesires@@QAEXI@Z = .text:0x004DC5B0; // type:function size:0x50
fn_004DC600 = .text:0x004DC600; // type:function size:0x80
fn_004DC680 = .text:0x004DC680; // type:function size:0x70
fn_004DC760 = .text:0x004DC760; // type:function size:0x50
fn_004DC7B0 = .text:0x004DC7B0; // type:function size:0x4B
?MakeDesireMostDominant@CreatureDesires@@QAEXIPBVCreatureInfo@@M@Z = .text:0x004DC8A0; // type:function size:0x80
fn_004DC920 = .text:0x004DC920; // type:function size:0x50
?MakeDesireFullyDominantAndChangeSource@Creature@@QAEXIPBVCreatureInfo@@@Z = .text:0x004DC9A0; // type:function size:0x50
fn_004DC9F0 = .text:0x004DC9F0; // type:function size:0x70
fn_004DCA60 = .text:0x004DCA60; // type:function size:0x2F0
fn_004DCD50 = .text:0x004DCD50; // type:function size:0x50
?IsActivated@CreatureDesires@@QAEXVCREATURE_DESIRES@@@Z = .text:0x004DCDA0; // type:function size:0x30
fn_004DCDD0 = .text:0x004DCDD0; // type:function size:0x10
?SetCheatDominantDesire@CreatureMental@@QAEXVCREATURE_DESIRES@@MH@Z = .text:0x004DCE20; // type:function size:0xC8
fn_004DCF20 = .text:0x004DCF20; // type:function size:0x50
crt_xc_fn_004DD000 = .text:0x004DD000; // type:function size:0x30
crt_xc_fn_004DD0F0 = .text:0x004DD0F0; // type:function size:0x30
crt_xc_fn_004DD120 = .text:0x004DD120; // type:function size:0x1B
crt_xc_fn_004DD140 = .text:0x004DD140; // type:function size:0x10
fn_004DD150 = .text:0x004DD150; // type:function size:0x30
?GetBaseInfo@CreatureDesireSourceTable@@UAEPAVGBaseInfo@@AAI@Z = .text:0x004DD180; // type:function size:0x20 scope:global
??_GCreatureDesireSourceTable@@UAEPAXI@Z = .text:0x004DD1F0; // type:function size:0x30 scope:global
crt_xc_fn_004DD220 = .text:0x004DD220; // type:function size:0x10
fn_004DD230 = .text:0x004DD230; // type:function size:0x30
?GetBaseInfo@CreatureInitialSourceInfo@@UAEPAVGBaseInfo@@AAI@Z = .text:0x004DD260; // type:function size:0x20 scope:global
??_GCreatureInitialSourceInfo@@UAEPAXI@Z = .text:0x004DD2C0; // type:function size:0x20 scope:global
crt_xc_fn_004DD2E0 = .text:0x004DD2E0; // type:function size:0x10
fn_004DD2F0 = .text:0x004DD2F0; // type:function size:0x30
crt_xc_fn_004DD360 = .text:0x004DD360; // type:function size:0x10
fn_004DD370 = .text:0x004DD370; // type:function size:0x30
?GetBaseInfo@CreatureSourceBoundsInfo@@UAEPAVGBaseInfo@@AAI@Z = .text:0x004DD3A0; // type:function size:0x20 scope:global
??_GCreatureSourceBoundsInfo@@UAEPAXI@Z = .text:0x004DD400; // type:function size:0x20 scope:global
crt_xc_fn_004DD420 = .text:0x004DD420; // type:function size:0xD30
??0CreatureDesireSource@@QAE@VCREATURE_DESIRE_SOURCE@@PAVCreature@@@Z = .text:0x004DE150; // type:function size:0x11B scope:global
?InitialiseSources@CreatureDesires@@QAEXXZ = .text:0x004DE270; // type:function size:0x100
?GetSource@CreatureDesires@@QAEXVCREATURE_DESIRE_SOURCE@@@Z = .text:0x004DE370; // type:function size:0x30
fn_004DE550 = .text:0x004DE550; // type:function size:0x7A
fn_004DE5D0 = .text:0x004DE5D0; // type:function size:0x50
fn_004DE620 = .text:0x004DE620; // type:function size:0xA0
fn_004DE6C0 = .text:0x004DE6C0; // type:function size:0x70
?ChangeSource@CreatureDesires@@QAEXVCREATURE_DESIRE_SOURCE@@M@Z = .text:0x004DE730; // type:function size:0x50
fn_004DE780 = .text:0x004DE780; // type:function size:0x3B
fn_004DE7C0 = .text:0x004DE7C0; // type:function size:0x40
?UpdateSourcesFromBelief@CreatureMental@@QAEXPAVCreatureBelief@@@Z = .text:0x004DE800; // type:function size:0x60
crt_xc_fn_004DE860 = .text:0x004DE860; // type:function size:0x30
crt_xc_fn_004DE890 = .text:0x004DE890; // type:function size:0x30
crt_xc_fn_004DE8C0 = .text:0x004DE8C0; // type:function size:0x1B
crt_xc_fn_004DF010 = .text:0x004DF010; // type:function size:0x30
crt_xc_fn_004DF040 = .text:0x004DF040; // type:function size:0x30
crt_xc_fn_004DF070 = .text:0x004DF070; // type:function size:0x1B
crt_xc_fn_004DF1F0 = .text:0x004DF1F0; // type:function size:0x30
crt_xc_fn_004DF220 = .text:0x004DF220; // type:function size:0x30
crt_xc_fn_004DF250 = .text:0x004DF250; // type:function size:0x1B
fn_004DF2B0 = .text:0x004DF2B0; // type:function size:0x10
fn_004DF2E0 = .text:0x004DF2E0; // type:function size:0x10
fn_004DF310 = .text:0x004DF310; // type:function size:0x10
fn_004DF320 = .text:0x004DF320; // type:function size:0x10
fn_004DF340 = .text:0x004DF340; // type:function size:0x10
crt_xc_fn_004DF350 = .text:0x004DF350; // type:function size:0x30
crt_xc_fn_004DF380 = .text:0x004DF380; // type:function size:0x30
crt_xc_fn_004DF3B0 = .text:0x004DF3B0; // type:function size:0x1B
crt_xc_fn_004DF3D0 = .text:0x004DF3D0; // type:function size:0x10
fn_004DF3E0 = .text:0x004DF3E0; // type:function size:0x50
??_GCreatureExplorationRegionEntry@@UAEPAXI@Z = .text:0x004DF430; // type:function size:0x20 scope:global
??_GCreatureGlobalExplorationMap@@UAEPAXI@Z = .text:0x004DF450; // type:function size:0x50 scope:global
fn_004DF4F0 = .text:0x004DF4F0; // type:function size:0xD0
??_GCreatureExplorationMap@@UAEPAXI@Z = .text:0x004DF5C0; // type:function size:0x30 scope:global
fn_004DF620 = .text:0x004DF620; // type:function size:0x80
fn_004DF6E0 = .text:0x004DF6E0; // type:function size:0x40
fn_004DF720 = .text:0x004DF720; // type:function size:0x190
?Dump@CreatureExplorationMap@@QAEXXZ = .text:0x004DF9B0; // type:function size:0x10
fn_004DF9C0 = .text:0x004DF9C0; // type:function size:0x50
fn_004DFA10 = .text:0x004DFA10; // type:function size:0x140
fn_004DFB50 = .text:0x004DFB50; // type:function size:0x7A
?Dump@CreatureGlobalExplorationMap@@UAEXXZ = .text:0x004DFBD0; // type:function size:0x10 scope:global
fn_004DFBE0 = .text:0x004DFBE0; // type:function size:0x90
fn_004DFC70 = .text:0x004DFC70; // type:function size:0x10
?SetHighGFXDetail@GScript@@QAEXXZ = .text:0x004DFC80; // type:function size:0x370
fn_004E0020 = .text:0x004E0020; // type:function size:0x1E0
crt_xc_fn_004E0210 = .text:0x004E0210; // type:function size:0x30
crt_xc_fn_004E0240 = .text:0x004E0240; // type:function size:0x30
crt_xc_fn_004E0270 = .text:0x004E0270; // type:function size:0x1B
??0CreatureLearning@@QAE@PAVCreature@@@Z = .text:0x004E0290; // type:function size:0x110 scope:global
??_GCreaturePreviousLesson@@UAEPAXI@Z = .text:0x004E03A0; // type:function size:0x30 scope:global
??_GCreatureLearning@@UAEPAXI@Z = .text:0x004E03D0; // type:function size:0x40 scope:global
fn_004E0410 = .text:0x004E0410; // type:function size:0x1F0
fn_004E0600 = .text:0x004E0600; // type:function size:0xA0
fn_004E0DE0 = .text:0x004E0DE0; // type:function size:0x1DB
?UpdateAttitudeToPlayerFromFeedback@CreatureMental@@QAEXM@Z = .text:0x004E1080; // type:function size:0x80
?LearnParticularLessonFromFeedback@CreatureMental@@QAEXAAVCreatureContext@@MVLESSON_TYPE@@HPAIVLESSON_ORIGIN_TYPE@@@Z = .text:0x004E11C0; // type:function size:0x2E0
?ReconsiderDecision@CreatureMental@@QAEXXZ = .text:0x004E1570; // type:function size:0x30
fn_004E15A0 = .text:0x004E15A0; // type:function size:0x40
fn_004E1670 = .text:0x004E1670; // type:function size:0x4B4
fn_004E1B40 = .text:0x004E1B40; // type:function size:0x40
??0CreatureContext@@QAE@PAVCreature@@AAVCreaturePlan@@VCREATURE_DESIRE_SOURCE@@HPAVCreatureBelief@@@Z = .text:0x004E1B80; // type:function size:0xD0
?CleanUp@CreatureContext@@QAEXXZ = .text:0x004E1C50; // type:function size:0x40
fn_004E1CF0 = .text:0x004E1CF0; // type:function size:0x40
??_GCreatureLearningContext@@UAEPAXI@Z = .text:0x004E1D30; // type:function size:0x20 scope:global
fn_004E1D50 = .text:0x004E1D50; // type:function size:0x20
fn_004E1E00 = .text:0x004E1E00; // type:function size:0x20
fn_004E1E20 = .text:0x004E1E20; // type:function size:0x350
crt_xc_fn_004E2170 = .text:0x004E2170; // type:function size:0x30
crt_xc_fn_004E21A0 = .text:0x004E21A0; // type:function size:0x30
crt_xc_fn_004E21D0 = .text:0x004E21D0; // type:function size:0x1B
fn_004E21F0 = .text:0x004E21F0; // type:function size:0x40
??_GCreatureActionsKnownAbout@@UAEPAXI@Z = .text:0x004E2230; // type:function size:0x20 scope:global
fn_004E2250 = .text:0x004E2250; // type:function size:0x90
fn_004E22E0 = .text:0x004E22E0; // type:function size:0x70
?ConsiderLearningAction@CreatureMental@@QAEXVCREATURE_ACTION_LEARNING_TYPE@@I@Z = .text:0x004E2380; // type:function size:0x3DB
?KnowsAction@CreatureActionsKnownAbout@@QAEXVCREATURE_ACTION_LEARNING_TYPE@@I@Z = .text:0x004E2890; // type:function size:0x2B
?AddActionLearnt@CreatureActionsKnownAbout@@QAEXPAVCreature@@VCREATURE_ACTION_LEARNING_TYPE@@IH@Z = .text:0x004E28C0; // type:function size:0xF0
??_GCreatureActionKnownAbout@@UAEPAXI@Z = .text:0x004E29B0; // type:function size:0x20 scope:global
crt_xc_fn_004E2C90 = .text:0x004E2C90; // type:function size:0x30
crt_xc_fn_004E2CC0 = .text:0x004E2CC0; // type:function size:0x30
crt_xc_fn_004E2CF0 = .text:0x004E2CF0; // type:function size:0x1B
crt_xc_fn_004E2D10 = .text:0x004E2D10; // type:function size:0x10
fn_004E2D20 = .text:0x004E2D20; // type:function size:0x30
?GetBaseInfo@CreatureActionKnownAboutEntry@@UAEPAVGBaseInfo@@AAI@Z = .text:0x004E2D50; // type:function size:0x20 scope:global
??_GCreatureActionKnownAboutEntry@@UAEPAXI@Z = .text:0x004E2DB0; // type:function size:0x20 scope:global
crt_xc_fn_004E2DD0 = .text:0x004E2DD0; // type:function size:0x10
fn_004E2DE0 = .text:0x004E2DE0; // type:function size:0x30
??_GCreatureMagicActionKnownAboutEntry@@UAEPAXI@Z = .text:0x004E2E50; // type:function size:0x20 scope:global
fn_004E2E70 = .text:0x004E2E70; // type:function size:0x5D0
??_GCreatureTimeToWait@@UAEPAXI@Z = .text:0x004E34E0; // type:function size:0x20 scope:global
fn_004E3500 = .text:0x004E3500; // type:function size:0x20
??_GCreatureObjectsInspected@@UAEPAXI@Z = .text:0x004E3520; // type:function size:0x20 scope:global
crt_xc_fn_004E3540 = .text:0x004E3540; // type:function size:0x30
crt_xc_fn_004E3570 = .text:0x004E3570; // type:function size:0x30
crt_xc_fn_004E35A0 = .text:0x004E35A0; // type:function size:0x1B
crt_xc_fn_004E3640 = .text:0x004E3640; // type:function size:0x30
crt_xc_fn_004E3670 = .text:0x004E3670; // type:function size:0x30
crt_xc_fn_004E36A0 = .text:0x004E36A0; // type:function size:0x1B
fn_004E36C0 = .text:0x004E36C0; // type:function size:0x70
fn_004E3730 = .text:0x004E3730; // type:function size:0xD0
fn_004E3800 = .text:0x004E3800; // type:function size:0x20
fn_004E3820 = .text:0x004E3820; // type:function size:0x60
fn_004E3880 = .text:0x004E3880; // type:function size:0x60
fn_004E38E0 = .text:0x004E38E0; // type:function size:0x7A
?CanBePickedUpByCreatureIgnoringWhetherItIsInTheMap@Object@@QAEXPAVCreature@@@Z = .text:0x004E3960; // type:function size:0xBB
?CanBePickedUpByCreature@Object@@UAEIPAVCreature@@@Z = .text:0x004E3A20; // type:function size:0xE0 scope:global
?CanBeStrokedByCreature@Object@@UAEIPAVCreature@@@Z = .text:0x004E3B00; // type:function size:0x3A scope:global
?CanBeInspectedByCreature@Object@@UAEIPAVCreature@@@Z = .text:0x004E3B40; // type:function size:0x20 scope:global
?IsDoingSomethingInteresting@Villager@@UAEIPAVCreature@@@Z = .text:0x004E3B60; // type:function size:0x50 scope:global
?CanBeBroughtBackToCitadel@Object@@UAEIPAVCreature@@@Z = .text:0x004E3BB0; // type:function size:0x60 scope:global
?CanBeStompedOnByCreature@Object@@UAEIPAVCreature@@@Z = .text:0x004E3C10; // type:function size:0x60 scope:global
?CanBeStompedOnByCreature@Creature@@UAEIPAVCreature@@@Z = .text:0x004E3C70; // type:function size:0x80 scope:global
?CanBeThrownByCreature@Object@@UAEIPAVCreature@@@Z = .text:0x004E3CF0; // type:function size:0x40 scope:global
fn_004E3D30 = .text:0x004E3D30; // type:function size:0x10
?CanBePutInAStoragePit@Object@@UAEIPAVCreature@@@Z = .text:0x004E3D40; // type:function size:0x50 scope:global
?CanBePutInFoodPile@Object@@UAEIPAVCreature@@@Z = .text:0x004E3D90; // type:function size:0x40 scope:global
?CanBePutInWoodPile@Object@@UAEIPAVCreature@@@Z = .text:0x004E3DD0; // type:function size:0x4A scope:global
?DoesVillagerBelongToATownWhichIsAlreadyImpressed@Villager@@UAEIPAVCreature@@@Z = .text:0x004E3E20; // type:function size:0x40 scope:global
?DoesTotemBelongToATownWhichIsVeryImpressedIndeed@Totem@@UAEIPAVCreature@@@Z = .text:0x004E3E60; // type:function size:0x10 scope:global
?DoesTotemBelongToATownWhichIsVeryImpressedIndeed@TotemStatue@@UAEIPAVCreature@@@Z = .text:0x004E3E70; // type:function size:0x40 scope:global
?CanBePoodUponByCreature@Object@@UAEIPAVCreature@@@Z = .text:0x004E3EB0; // type:function size:0x30 scope:global
?IsInsideCreatureHome@GameThingWithPos@@QAEXPAVCreature@@@Z = .text:0x004E3EE0; // type:function size:0x30
?CanBeKissedByCreature@Creature@@UAEIPAVCreature@@@Z = .text:0x004E3F10; // type:function size:0x20 scope:global
?CanBeBroughtHomeByCreature@GameThingWithPos@@UAEIPAVCreature@@@Z = .text:0x004E3F30; // type:function size:0x70 scope:global
?CanBeKickedByCreature@Abode@@UAEIPAVCreature@@@Z = .text:0x004E3FA0; // type:function size:0x20 scope:global
?CanBePickedUpByCreature@Scaffold@@UAEIPAVCreature@@@Z = .text:0x004E3FC0; // type:function size:0x30 scope:global
?CanBeStolenByCreature@Scaffold@@UAEIPAVCreature@@@Z = .text:0x004E3FF0; // type:function size:0x50 scope:global
?IsStealableSpell@OneOffSpellSeed@@UAEIPAVCreature@@@Z = .text:0x004E4040; // type:function size:0x30 scope:global
?IsStealableScaffold@Scaffold@@UAEIPAVCreature@@@Z = .text:0x004E4070; // type:function size:0x10 scope:global
?IsCreatureNotTooNear@Creature@@UAEIPAVCreature@@@Z = .text:0x004E4080; // type:function size:0x60 scope:global
?IsActivityObjectWhichAngerAppliesTo@Citadel@@UAEIPAVCreature@@@Z = .text:0x004E40E0; // type:function size:0x30 scope:global
?CanBeStolenByCreature@TotemStatue@@UAEIPAVCreature@@@Z = .text:0x004E4110; // type:function size:0x30 scope:global
?IsTownBelongingToOtherPlayer@Town@@UAEIPAVCreature@@@Z = .text:0x004E4140; // type:function size:0x30 scope:global
?IsTotemWithStealableSpell@TotemStatue@@UAEIPAVCreature@@@Z = .text:0x004E4170; // type:function size:0x50 scope:global
?IsBuildingWhichIsBeingBuilt@MultiMapFixed@@UAEIPAVCreature@@@Z = .text:0x004E41C0; // type:function size:0x50 scope:global
?IsStealableByCreature@GameThingWithPos@@UAEIPAVCreature@@@Z = .text:0x004E4210; // type:function size:0x70 scope:global
?CanBeAttackedByCreature@Creature@@UAEIPAVCreature@@@Z = .text:0x004E4280; // type:function size:0x90 scope:global
?IsActivityObjectWhichAngerAppliesTo@Creature@@UAEIPAVCreature@@@Z = .text:0x004E4310; // type:function size:0x10 scope:global
?CanBeKickedByCreature@Object@@UAEIPAVCreature@@@Z = .text:0x004E4320; // type:function size:0xD0 scope:global
?CanBeStompedOnByCreature@Abode@@UAEIPAVCreature@@@Z = .text:0x004E43F0; // type:function size:0x40 scope:global
?IsCreatureAvailableForJointActivity@Creature@@UAEIPAVCreature@@@Z = .text:0x004E4430; // type:function size:0x20 scope:global
?IsCreatureNotAvailableForJointActivity@Creature@@UAEIPAVCreature@@@Z = .text:0x004E4450; // type:function size:0x30 scope:global
?NothingScareyNearMe@GameThingWithPos@@UBE_NXZ = .text:0x004E4480; // type:function size:0x10 scope:global
?NothingScareyNearPos@Creature@@QAEXABVMapCoords@@@Z = .text:0x004E44B0; // type:function size:0x60
?IsVillagerInTownWithoutManyBreeders@Villager@@UAEIPAVCreature@@@Z = .text:0x004E4510; // type:function size:0xD0 scope:global
?IsCreatureWhoSeemsFriendly@Creature@@UAEIPAVCreature@@@Z = .text:0x004E45E0; // type:function size:0xA0 scope:global
?IsVillagerNotWorshipping@Villager@@UAEIPAVCreature@@@Z = .text:0x004E46D0; // type:function size:0x10 scope:global
?IsTreeNotTooNearPlannedForest@Tree@@UAEIPAVCreature@@@Z = .text:0x004E46E0; // type:function size:0x70 scope:global
?IsTownBelongingToAnotherPlayer@Town@@UAEIPAVCreature@@@Z = .text:0x004E4750; // type:function size:0xA0 scope:global
?IsActivityObjectWhichAngerAppliesTo@Town@@UAEIPAVCreature@@@Z = .text:0x004E47F0; // type:function size:0x50 scope:global
?IsVillagerWhoHasNotBeenImpressedRecently@Villager@@UAEIPAVCreature@@@Z = .text:0x004E4840; // type:function size:0x50 scope:global
?IsVillagerWhoHasNotBeenDancedWithRecently@Villager@@UAEIPAVCreature@@@Z = .text:0x004E4890; // type:function size:0x30 scope:global
?CanBeEatenByCreature@Object@@UAEIPAVCreature@@@Z = .text:0x004E48C0; // type:function size:0x10 scope:global
?CanBeEatenByCreature@MobileStatic@@UAEIPAVCreature@@@Z = .text:0x004E48D0; // type:function size:0x20 scope:global
?CanBeEatenByCreature@OneOffSpellSeed@@UAEIPAVCreature@@@Z = .text:0x004E48F0; // type:function size:0x10 scope:global
?IsFieldBelongingToAnotherPlayer@Field@@UAEIPAVCreature@@@Z = .text:0x004E4900; // type:function size:0x30 scope:global
?IsFieldWithFoodInIt@Field@@UAEIPAVCreature@@@Z = .text:0x004E4930; // type:function size:0x40 scope:global
?IsFieldWhichNeedsWatering@Field@@UAEIPAVCreature@@@Z = .text:0x004E4970; // type:function size:0x20 scope:global
?IsStoragePit@StoragePit@@UAEIPAVCreature@@@Z = .text:0x004E4990; // type:function size:0xB scope:global
?IsStoragePitBelongingToAnotherPlayer@StoragePit@@UAEIPAVCreature@@@Z = .text:0x004E49A0; // type:function size:0x40 scope:global
?IsStoragePitBelongingToMyPlayer@StoragePit@@UAEIPAVCreature@@@Z = .text:0x004E49E0; // type:function size:0x40 scope:global
?IsAFoodPileOutsideStoragePit@MagicFood@@UAEIPAVCreature@@@Z = .text:0x004E4A20; // type:function size:0x60 scope:global
?CanBePickedUpByCreature@Tree@@UAEIPAVCreature@@@Z = .text:0x004E4A80; // type:function size:0x30 scope:global
?IsOneOffSpellBelongingToOtherPlayer@OneOffSpellSeed@@UAEIPAVCreature@@@Z = .text:0x004E4AB0; // type:function size:0x30 scope:global
?IsAnimalBelongingToOtherPlayer@Animal@@UAEIPAVCreature@@@Z = .text:0x004E4AE0; // type:function size:0x30 scope:global
?IsVillagerBelongingToOtherPlayer@Villager@@UAEIPAVCreature@@@Z = .text:0x004E4B10; // type:function size:0x30 scope:global
?CanHaveMagicFoodCastOnMe@Villager@@UAEIPAVCreature@@@Z = .text:0x004E4B40; // type:function size:0x10 scope:global
?CanHaveMagicFoodCastOnMe@StoragePit@@UAEIPAVCreature@@@Z = .text:0x004E4B50; // type:function size:0xB scope:global
?CanHaveMagicFoodCastOnMe@WorshipSite@@UAEIPAVCreature@@@Z = .text:0x004E4B60; // type:function size:0xB scope:global
?CanHaveMagicWoodCastOnMe@StoragePit@@UAEIPAVCreature@@@Z = .text:0x004E4B70; // type:function size:0x10 scope:global
?CanCreatureEatMe@GameThingWithPos@@UAEIPAVCreature@@@Z = .text:0x004E4B90; // type:function size:0xB0 scope:global
?IsToyAwayFromHome@MobileStatic@@UAEIPAVCreature@@@Z = .text:0x004E4C40; // type:function size:0x4A scope:global
?CanBeHealedByCreature@Villager@@UAEIPAVCreature@@@Z = .text:0x004E4C90; // type:function size:0x30 scope:global
?CanBePickedUpByCreature@MobileStatic@@UAEIPAVCreature@@@Z = .text:0x004E4CC0; // type:function size:0x10 scope:global
?CanBePickedUpByCreature@Creature@@UAEIPAVCreature@@@Z = .text:0x004E4CD0; // type:function size:0x10 scope:global
?IsMushroom@MobileObject@@UAEIPAVCreature@@@Z = .text:0x004E4CE0; // type:function size:0x20 scope:global
fn_004E4D00 = .text:0x004E4D00; // type:function size:0x50
?IsVillagerFarFromHome@Villager@@UAEIPAVCreature@@@Z = .text:0x004E4D50; // type:function size:0x40 scope:global
?IsStoragePitWithFoodInIt@StoragePit@@UAEIPAVCreature@@@Z = .text:0x004E4D90; // type:function size:0x60 scope:global
crt_xc_fn_004E4DF0 = .text:0x004E4DF0; // type:function size:0x30
crt_xc_fn_004E4E20 = .text:0x004E4E20; // type:function size:0x2E
fn_004E4E4E = .text:0x004E4E4E; // type:function size:0x1D
crt_xc_fn_004E4E70 = .text:0x004E4E70; // type:function size:0x30
?Save@Creature@@UAEIAAVGameOSFile@@@Z = .text:0x004E4EA0; // type:function size:0xAA0 scope:global
fn_004E5940 = .text:0x004E5940; // type:function size:0x340
fn_004E5C80 = .text:0x004E5C80; // type:function size:0x36B
?Load@Creature@@UAEIAAVGameOSFile@@@Z = .text:0x004E5FF0; // type:function size:0x990 scope:global
fn_004E6980 = .text:0x004E6980; // type:function size:0x1A
fn_004E69A0 = .text:0x004E69A0; // type:function size:0x110
?ResolveLoad@Creature@@UAEXXZ = .text:0x004E6AB0; // type:function size:0x5E0 scope:global
fn_004E70C0 = .text:0x004E70C0; // type:function size:0x210
?CanLoad3D@Creature@@QAEXPAD@Z = .text:0x004E72D0; // type:function size:0x40
fn_004E7660 = .text:0x004E7660; // type:function size:0x1C0
fn_004E7820 = .text:0x004E7820; // type:function size:0x1B0
fn_004E79D0 = .text:0x004E79D0; // type:function size:0x620
fn_004E8330 = .text:0x004E8330; // type:function size:0x110
fn_004E8440 = .text:0x004E8440; // type:function size:0x60
fn_004E84A0 = .text:0x004E84A0; // type:function size:0x7B0
fn_004E8C50 = .text:0x004E8C50; // type:function size:0x50
fn_004E8CA0 = .text:0x004E8CA0; // type:function size:0xF0
?Save@CreatureBelief@@QAEXAAVArchive@@@Z = .text:0x004E8D90; // type:function size:0x70
?Load@CreatureBelief@@QAEXAAVArchive@@@Z = .text:0x004E8E00; // type:function size:0x70
fn_004E8E70 = .text:0x004E8E70; // type:function size:0x180
fn_004E8FF0 = .text:0x004E8FF0; // type:function size:0x160
fn_004E9150 = .text:0x004E9150; // type:function size:0x40
fn_004E9190 = .text:0x004E9190; // type:function size:0x50
fn_004E91E0 = .text:0x004E91E0; // type:function size:0x30
fn_004E9210 = .text:0x004E9210; // type:function size:0x40
fn_004E9250 = .text:0x004E9250; // type:function size:0x40
fn_004E9290 = .text:0x004E9290; // type:function size:0x40
fn_004E92D0 = .text:0x004E92D0; // type:function size:0x6B
fn_004E9340 = .text:0x004E9340; // type:function size:0x150
fn_004E9490 = .text:0x004E9490; // type:function size:0x10
fn_004E94A0 = .text:0x004E94A0; // type:function size:0x50
fn_004E94F0 = .text:0x004E94F0; // type:function size:0x50
fn_004E9540 = .text:0x004E9540; // type:function size:0x50
fn_004E9590 = .text:0x004E9590; // type:function size:0x50
fn_004E95E0 = .text:0x004E95E0; // type:function size:0x50
fn_004E9630 = .text:0x004E9630; // type:function size:0x50
fn_004E9680 = .text:0x004E9680; // type:function size:0x50
fn_004E96D0 = .text:0x004E96D0; // type:function size:0x50
fn_004E9720 = .text:0x004E9720; // type:function size:0x50
fn_004E9770 = .text:0x004E9770; // type:function size:0x50
fn_004E97C0 = .text:0x004E97C0; // type:function size:0xBB
crt_xc_fn_004E9880 = .text:0x004E9880; // type:function size:0x30
crt_xc_fn_004E98B0 = .text:0x004E98B0; // type:function size:0x30
crt_xc_fn_004E98E0 = .text:0x004E98E0; // type:function size:0x1B
?GetActivityObjectUsefulness@CreatureMental@@QAEXPAVCreatureBelief@@VCREATURE_DESIRES@@@Z = .text:0x004E9900; // type:function size:0x170
?GetObjectToActOnUsefulness@CreatureMental@@QAEXPAVCreatureBelief@@VCREATURE_DESIRES@@@Z = .text:0x004E9A70; // type:function size:0x130
?GetUsefulnessOfUsingObject@CreatureMental@@QAEXPAVCreatureBelief@@VCREATURE_ACTION@@@Z = .text:0x004E9BB0; // type:function size:0x10
crt_xc_fn_004E9BC0 = .text:0x004E9BC0; // type:function size:0x30
crt_xc_fn_004E9BF0 = .text:0x004E9BF0; // type:function size:0x30
crt_xc_fn_004E9C20 = .text:0x004E9C20; // type:function size:0x1B
crt_xc_fn_004E9C40 = .text:0x004E9C40; // type:function size:0x10
fn_004E9C50 = .text:0x004E9C50; // type:function size:0x30
?GetBaseInfo@CreatureMimicInfo@@UAEPAVGBaseInfo@@AAI@Z = .text:0x004E9C80; // type:function size:0x20 scope:global
??_GCreatureMimicInfo@@UAEPAXI@Z = .text:0x004E9CF0; // type:function size:0x30 scope:global
??0CreatureMimicState@@QAE@XZ = .text:0x004E9D20; // type:function size:0x1A scope:global
??_GCreatureMimicState@@UAEPAXI@Z = .text:0x004E9D40; // type:function size:0x20 scope:global
fn_004E9D60 = .text:0x004E9D60; // type:function size:0x8B
fn_004E9DF0 = .text:0x004E9DF0; // type:function size:0x10D
?ProcessMimicState@Creature@@QAEXXZ = .text:0x004E9F40; // type:function size:0x15B
?GetMimickingAction@Creature@@QAEXVDETECTED_PLAYER_ACTION@@IVMAGIC_TYPE@@@Z = .text:0x004EA0A0; // type:function size:0x40
fn_004EA0E0 = .text:0x004EA0E0; // type:function size:0x50
?MimicForceCopyingAction@Creature@@QAEXXZ = .text:0x004EA130; // type:function size:0x410
fn_004EA540 = .text:0x004EA540; // type:function size:0x130
?DecideOnNewPlan@Creature@@QAEXAAVCreaturePlan@@@Z = .text:0x004EA670; // type:function size:0x290 scope:global
?ConsiderMakingCreatureMimicPlayer@GPlayer@@QAEXPAVGInterfaceStatus@@VDETECTED_PLAYER_ACTION@@PAVGameThingWithPos@@VMAGIC_TYPE@@@Z = .text:0x004EA900; // type:function size:0x1B0
?ConsiderCreatureMimickingWhenObjectLands@Object@@QAEXXZ = .text:0x004EAAB0; // type:function size:0xEB
?GetCreatureMimicType@Villager@@UAEIXZ = .text:0x004EABA0; // type:function size:0x30 scope:global
?GetCreatureMimicType@Animal@@UAEIXZ = .text:0x004EABD0; // type:function size:0x10 scope:global
crt_xc_fn_004EABE0 = .text:0x004EABE0; // type:function size:0x30
crt_xc_fn_004EAC10 = .text:0x004EAC10; // type:function size:0x30
crt_xc_fn_004EAC40 = .text:0x004EAC40; // type:function size:0x1B
crt_xc_fn_004EAC60 = .text:0x004EAC60; // type:function size:0x30
?LoadBase@LH3DCreature@@QAEXPAD@Z = .text:0x004EAC90; // type:function size:0x140 scope:global
?LoadBinary@LH3DCreature@@QAEXPADH@Z = .text:0x004EB430; // type:function size:0x9E0
fn_004EBE10 = .text:0x004EBE10; // type:function size:0x2B0
fn_004EC0C0 = .text:0x004EC0C0; // type:function size:0x330
fn_004EC3F0 = .text:0x004EC3F0; // type:function size:0x60
?GetExtraHeadScale@LH3DCreature@@QAEXXZ = .text:0x004EC450; // type:function size:0x60
?GetExtraFeetScale@LH3DCreature@@QAEXXZ = .text:0x004EC4B0; // type:function size:0x60
fn_004EC510 = .text:0x004EC510; // type:function size:0x60
fn_004EC580 = .text:0x004EC580; // type:function size:0x10
fn_004EC590 = .text:0x004EC590; // type:function size:0xBCE
fn_004ED180 = .text:0x004ED180; // type:function size:0xD0
fn_004ED250 = .text:0x004ED250; // type:function size:0xD0
?PrepareForDrawing@LH3DCreature@@QAEXXZ = .text:0x004ED320; // type:function size:0x320
?SaveBinary@LH3DCreature@@QAEXPAD@Z = .text:0x004ED640; // type:function size:0x5B0
fn_004EDE40 = .text:0x004EDE40; // type:function size:0x1B0
fn_004EDFF0 = .text:0x004EDFF0; // type:function size:0x140
fn_004EE130 = .text:0x004EE130; // type:function size:0x180
fn_004EE2B0 = .text:0x004EE2B0; // type:function size:0x280
fn_004EE530 = .text:0x004EE530; // type:function size:0x1A0
fn_004EEBD0 = .text:0x004EEBD0; // type:function size:0x100
fn_004EECD0 = .text:0x004EECD0; // type:function size:0x30
crt_xc_fn_004EED00 = .text:0x004EED00; // type:function size:0x30
crt_xc_fn_004EED30 = .text:0x004EED30; // type:function size:0x30
crt_xc_fn_004EED60 = .text:0x004EED60; // type:function size:0x1B
crt_xc_fn_004EED80 = .text:0x004EED80; // type:function size:0x10
fn_004EED90 = .text:0x004EED90; // type:function size:0x30
?GetBaseInfo@GCreaturePenInfo@@UAEPAVGBaseInfo@@AAI@Z = .text:0x004EEDC0; // type:function size:0x20 scope:global
??_GGCreaturePenInfo@@UAEPAXI@Z = .text:0x004EEE30; // type:function size:0x30 scope:global
fn_004EEE60 = .text:0x004EEE60; // type:function size:0x70
??_GCreaturePen@@UAEPAXI@Z = .text:0x004EEED0; // type:function size:0x30 scope:global
fn_004EEF00 = .text:0x004EEF00; // type:function size:0x5B
fn_004EEF60 = .text:0x004EEF60; // type:function size:0x60
?ConvertToPlanned@CreaturePen@@UAEPAVPlannedMultiMapFixed@@XZ = .text:0x004EEFC0; // type:function size:0x80 scope:global
?GetText@PlannedCreaturePen@@UAEPBDXZ = .text:0x004EF040; // type:function size:0x10 scope:global
??_GPlannedCreaturePen@@UAEPAXI@Z = .text:0x004EF050; // type:function size:0x20 scope:global
?CreatePlanned@PlannedCreaturePen@@QAEXM@Z = .text:0x004EF070; // type:function size:0x90
?SaveObject@CreaturePen@@UAEIAAULHOSFile@@ABUMapCoords@@@Z = .text:0x004EF100; // type:function size:0x140 scope:global
crt_xc_fn_004EF240 = .text:0x004EF240; // type:function size:0x30
crt_xc_fn_004EF270 = .text:0x004EF270; // type:function size:0x30
crt_xc_fn_004EF2A0 = .text:0x004EF2A0; // type:function size:0x1B
??0CreaturePhysical@@QAE@ABVMapCoords@@GPBVCreatureInfo@@PAVCreature@@@Z = .text:0x004EF2C0; // type:function size:0x1E0 scope:global
??_GCreatureDamageMap@@UAEPAXI@Z = .text:0x004EF4A0; // type:function size:0x20 scope:global
??_GCreaturePhysical@@UAEPAXI@Z = .text:0x004EF4C0; // type:function size:0x2A scope:global
?GetUserSize@CreaturePhysical@@QAEXXZ = .text:0x004EF4F0; // type:function size:0xA
fn_004EF510 = .text:0x004EF510; // type:function size:0x430
fn_004EFA60 = .text:0x004EFA60; // type:function size:0x100
fn_004EFB60 = .text:0x004EFB60; // type:function size:0xC0
fn_004EFC20 = .text:0x004EFC20; // type:function size:0x20
fn_004EFC40 = .text:0x004EFC40; // type:function size:0x30
fn_004EFC70 = .text:0x004EFC70; // type:function size:0x30
fn_004EFCA0 = .text:0x004EFCA0; // type:function size:0x3A
fn_004EFCE0 = .text:0x004EFCE0; // type:function size:0x1A0
fn_004F0000 = .text:0x004F0000; // type:function size:0x30
fn_004F0042 = .text:0x004F0042; // type:function size:0x4E
fn_004F00E0 = .text:0x004F00E0; // type:function size:0x20
?SetStrength@CreaturePhysical@@QAEXM@Z = .text:0x004F0100; // type:function size:0x70
fn_004F0170 = .text:0x004F0170; // type:function size:0xA0
fn_004F0210 = .text:0x004F0210; // type:function size:0xA0
fn_004F02B0 = .text:0x004F02B0; // type:function size:0x40
crt_xc_fn_004F02F0 = .text:0x004F02F0; // type:function size:0x30
crt_xc_fn_004F0320 = .text:0x004F0320; // type:function size:0x30
crt_xc_fn_004F0350 = .text:0x004F0350; // type:function size:0x1B
fn_004F0370 = .text:0x004F0370; // type:function size:0x190
fn_004F0500 = .text:0x004F0500; // type:function size:0x60
?DecideWhatToDo@Creature@@UAEIXZ = .text:0x004F0560; // type:function size:0x80 scope:global
fn_004F05E0 = .text:0x004F05E0; // type:function size:0x20
fn_004F0600 = .text:0x004F0600; // type:function size:0x20
fn_004F0620 = .text:0x004F0620; // type:function size:0x1F0
fn_004F0810 = .text:0x004F0810; // type:function size:0xC0
fn_004F08D0 = .text:0x004F08D0; // type:function size:0xB0
fn_004F0A70 = .text:0x004F0A70; // type:function size:0x1A0
fn_004F0C10 = .text:0x004F0C10; // type:function size:0x20
fn_004F0C30 = .text:0x004F0C30; // type:function size:0x20
fn_004F0C50 = .text:0x004F0C50; // type:function size:0x50
?GetActionPriorityModificationFromWhenLastDone@Creature@@QAEXVCREATURE_ACTION@@@Z = .text:0x004F0CA0; // type:function size:0x90
?FillInActionPriorityAndNoveltyModification@Creature@@QAEXVCREATURE_ACTION@@AAVCreaturePlan@@PAM2@Z = .text:0x004F0D30; // type:function size:0x30
fn_004F0D60 = .text:0x004F0D60; // type:function size:0x210
fn_004F0F70 = .text:0x004F0F70; // type:function size:0x130
fn_004F10A0 = .text:0x004F10A0; // type:function size:0x10B
?FindBestObjectToUseIfNecessary@Creature@@QAEXAAVCreaturePlan@@@Z = .text:0x004F11B0; // type:function size:0x80
??0CreaturePlan@@QAE@W4CREATURE_DESIRES@@W4CREATURE_ACTION@@PAVCreatureBelief@@22M@Z = .text:0x004F1230; // type:function size:0x3B scope:global
fn_004F1270 = .text:0x004F1270; // type:function size:0x3B
?SetToZero@?$LHStack@VCREATURE_DESIRES@@$0CJ@@@QAEXXZ = .text:0x004F12B0; // type:function size:0x20
??_G?$LHLinkedList@PAVCreatureCommand@@@@QAEPAXI@Z = .text:0x004F12D0; // type:function size:0x10
?IsValid@CreaturePlan@@QAEXXZ = .text:0x004F12E0; // type:function size:0x60
fn_004F1340 = .text:0x004F1340; // type:function size:0x40
??0CreaturePlanState@@QAE@XZ = .text:0x004F1380; // type:function size:0x60 scope:global
?Initialise@CreaturePlanState@@QAEXPAVCreatureMental@@@Z = .text:0x004F13E0; // type:function size:0x30 scope:global
fn_004F1410 = .text:0x004F1410; // type:function size:0x40
fn_004F1450 = .text:0x004F1450; // type:function size:0x30
?SetupRemainingGoalsToPlanFor@CreaturePlanState@@QAEXPAVCreature@@@Z = .text:0x004F1480; // type:function size:0x60 scope:global
fn_004F1530 = .text:0x004F1530; // type:function size:0x30
?ConstructCurrentPlanFromPlan@Creature@@QAEXAAVCreaturePlan@@H@Z = .text:0x004F1560; // type:function size:0xA0
?CopyPlanToPreviousContext@Creature@@QAEXH@Z = .text:0x004F1600; // type:function size:0xC0
fn_004F16C0 = .text:0x004F16C0; // type:function size:0x130
?GetNthActionForPlan@CreatureMental@@QAEXAAVCreaturePlan@@I@Z = .text:0x004F17F0; // type:function size:0x220
fn_004F1A10 = .text:0x004F1A10; // type:function size:0x14B
?CanCreatureCurrentlyPerformAction@Creature@@QAEXVCREATURE_ACTION@@AAVCreaturePlan@@@Z = .text:0x004F1B60; // type:function size:0xE0
fn_004F1C40 = .text:0x004F1C40; // type:function size:0x110
fn_004F1D50 = .text:0x004F1D50; // type:function size:0xC0
fn_004F1E10 = .text:0x004F1E10; // type:function size:0x20
?FindBestObjectToUseForAction@CreatureMental@@QAEXVCREATURE_DESIRES@@VCREATURE_ACTION@@PAVCreatureBelief@@@Z = .text:0x004F1E30; // type:function size:0xC0
fn_004F1EF0 = .text:0x004F1EF0; // type:function size:0x100
fn_004F1FF0 = .text:0x004F1FF0; // type:function size:0x50
??_GCreaturePreviousActions@@UAEPAXI@Z = .text:0x004F2040; // type:function size:0x2C scope:global
fn_004F206C = .text:0x004F206C; // type:function size:0x4
fn_004F2070 = .text:0x004F2070; // type:function size:0xA0
crt_xc_fn_004F2110 = .text:0x004F2110; // type:function size:0x30
crt_xc_fn_004F2140 = .text:0x004F2140; // type:function size:0x30
crt_xc_fn_004F2170 = .text:0x004F2170; // type:function size:0x1B
fn_004F2190 = .text:0x004F2190; // type:function size:0x30
crt_xc_fn_004F22A0 = .text:0x004F22A0; // type:function size:0x30
crt_xc_fn_004F22D0 = .text:0x004F22D0; // type:function size:0x30
crt_xc_fn_004F2300 = .text:0x004F2300; // type:function size:0x1B
fn_004F2320 = .text:0x004F2320; // type:function size:0x50
??_GPreviousContextStack@@QAEPAXI@Z = .text:0x004F2370; // type:function size:0x50
fn_004F23D0 = .text:0x004F23D0; // type:function size:0x1F0
fn_004F25D0 = .text:0x004F25D0; // type:function size:0x20
fn_004F25F0 = .text:0x004F25F0; // type:function size:0x10
crt_xc_fn_004F2600 = .text:0x004F2600; // type:function size:0x30
crt_xc_fn_004F2630 = .text:0x004F2630; // type:function size:0x30
crt_xc_fn_004F2660 = .text:0x004F2660; // type:function size:0x1B
?AddReaction@Creature@@UAEXPAVReaction@@W4VILLAGER_STATES@@@Z = .text:0x004F2680; // type:function size:0x50 scope:global
?StartReacting@Creature@@UAEXW4REACTION@@PAVGameThingWithPos@@PAVReaction@@@Z = .text:0x004F26D0; // type:function size:0xB0 scope:global
?UpdateHowImpressed@Creature@@UAEXPAVReaction@@H@Z = .text:0x004F2780; // type:function size:0xA0 scope:global
?IsAvailableForReaction@Creature@@UAE_NW4REACTION@@@Z = .text:0x004F2820; // type:function size:0x110 scope:global
??0?$LHPTR@VGameThingWithPos@@@@QAE@ABV?$LHPTR@VGameThingWithPos@@@@@Z = .text:0x004F2930; // type:function size:0x20
?StandardNumGameTurnsToReactFunction@Creature@@UAEIPAVGameThingWithPos@@IM@Z = .text:0x004F29C0; // type:function size:0x60 scope:global
?StandardNumGameTurnsBeforeReactingAgainFunction@Creature@@UAEIPAVGameThingWithPos@@IM@Z = .text:0x004F2A20; // type:function size:0x50 scope:global
?NumGameTurnsToReactToCreatureFunction@Creature@@UAEIPAVGameThingWithPos@@IM@Z = .text:0x004F2A70; // type:function size:0x20 scope:global
?NumGameTurnsBeforeReactingAgainToCreatureFunction@Creature@@UAEIPAVGameThingWithPos@@IM@Z = .text:0x004F2A90; // type:function size:0x20 scope:global
?FleeFromSpellPriority@Creature@@UAEEPAVReaction@@0@Z = .text:0x004F2AB0; // type:function size:0x50 scope:global
?SetupFleeFromObject@Creature@@UAEXPAVGameThingWithPos@@PAVReaction@@@Z = .text:0x004F2B00; // type:function size:0x40 scope:global
?SetupLookAtNiceSpell@Creature@@UAEXPAVGameThingWithPos@@PAVReaction@@@Z = .text:0x004F2B40; // type:function size:0x40 scope:global
?SetupReactToHandPuttingStuffInStoragePit@Creature@@UAEXPAVGameThingWithPos@@PAVReaction@@@Z = .text:0x004F2B80; // type:function size:0x40 scope:global
?ReactToHandPuttingStuffInStoragePitPriority@Creature@@UAEEPAVReaction@@0@Z = .text:0x004F2BC0; // type:function size:0x2B scope:global
?ReactToCreaturePriority@Creature@@UAEEPAVReaction@@0@Z = .text:0x004F2BF0; // type:function size:0xF0 scope:global
?SetupReactToCreature@Creature@@UAEXPAVGameThingWithPos@@PAVReaction@@@Z = .text:0x004F2CE0; // type:function size:0xB0 scope:global
?ReactToFoodPriority@Creature@@UAEEPAVReaction@@0@Z = .text:0x004F2D90; // type:function size:0x50 scope:global
?SetupReactToFood@Creature@@UAEXPAVGameThingWithPos@@PAVReaction@@@Z = .text:0x004F2DE0; // type:function size:0x40 scope:global
?ReactToMagicTreePriority@Creature@@UAEEPAVReaction@@0@Z = .text:0x004F2E20; // type:function size:0x2B scope:global
?SetupReactToMagicTree@Creature@@UAEXPAVGameThingWithPos@@PAVReaction@@@Z = .text:0x004F2E50; // type:function size:0x20 scope:global
?ReactToBallPriority@Creature@@UAEEPAVReaction@@0@Z = .text:0x004F2E70; // type:function size:0x2B scope:global
?SetupReactToBall@Creature@@UAEXPAVGameThingWithPos@@PAVReaction@@@Z = .text:0x004F2EA0; // type:function size:0x3B scope:global
?ReactToFirePriority@Creature@@UAEEPAVReaction@@0@Z = .text:0x004F2EE0; // type:function size:0x90 scope:global
?SetupReactToFire@Creature@@UAEXPAVGameThingWithPos@@PAVReaction@@@Z = .text:0x004F2F70; // type:function size:0x120 scope:global
?SetupReactToMagicShield@Creature@@UAEXPAVGameThingWithPos@@PAVReaction@@@Z = .text:0x004F3090; // type:function size:0x20 scope:global
?SetupReactToNiceMagic@Creature@@QAEXPAVReaction@@VMAGIC_TYPE@@PAVGameThingWithPos@@@Z = .text:0x004F30B0; // type:function size:0x160
?SetupReactToNastyMagic@Creature@@QAEXPAVReaction@@VMAGIC_TYPE@@PAVGameThingWithPos@@@Z = .text:0x004F3210; // type:function size:0x270
?ReactToFlyingObjectPriority@Creature@@UAEEPAVReaction@@0@Z = .text:0x004F3480; // type:function size:0x11B scope:global
?SetupReactToFlyingObject@Creature@@UAEXPAVGameThingWithPos@@PAVReaction@@@Z = .text:0x004F35A0; // type:function size:0x80 scope:global
?ReactToHandPickUpPriority@Creature@@UAEEPAVReaction@@0@Z = .text:0x004F3620; // type:function size:0x90 scope:global
?SetupReactToHandPickUp@Creature@@UAEXPAVGameThingWithPos@@PAVReaction@@@Z = .text:0x004F36B0; // type:function size:0x120 scope:global
?ReactToHandUsingTotemPriority@Creature@@UAEEPAVReaction@@0@Z = .text:0x004F37D0; // type:function size:0x50 scope:global
?SetupReactToHandUsingTotem@Creature@@UAEXPAVGameThingWithPos@@PAVReaction@@@Z = .text:0x004F3820; // type:function size:0x50 scope:global
?ReactToObjectCrushedPriority@Creature@@UAEEPAVReaction@@0@Z = .text:0x004F3870; // type:function size:0xC0 scope:global
?SetupReactToObjectCrushed@Creature@@UAEXPAVGameThingWithPos@@PAVReaction@@@Z = .text:0x004F3930; // type:function size:0x60 scope:global
?ReactToFightPriority@Creature@@UAEEPAVReaction@@0@Z = .text:0x004F3990; // type:function size:0x70 scope:global
?SetupReactToFight@Creature@@UAEXPAVGameThingWithPos@@PAVReaction@@@Z = .text:0x004F3A00; // type:function size:0x10 scope:global
?ReactToTeleportPriority@Creature@@UAEEPAVReaction@@0@Z = .text:0x004F3A10; // type:function size:0x50 scope:global
?SetupReactToTeleport@Creature@@UAEXPAVGameThingWithPos@@PAVReaction@@@Z = .text:0x004F3A60; // type:function size:0xC0 scope:global
?ReactToDeathPriority@Creature@@UAEEPAVReaction@@0@Z = .text:0x004F3B20; // type:function size:0x30 scope:global
?SetupReactToDeath@Creature@@UAEXPAVGameThingWithPos@@PAVReaction@@@Z = .text:0x004F3B50; // type:function size:0x40 scope:global
?SetupReactToFainting@Creature@@UAEXPAVGameThingWithPos@@PAVReaction@@@Z = .text:0x004F3B90; // type:function size:0x40 scope:global
?SetupReactToConfused@Creature@@UAEXPAVGameThingWithPos@@PAVReaction@@@Z = .text:0x004F3BD0; // type:function size:0x50 scope:global
crt_xc_fn_004F3C20 = .text:0x004F3C20; // type:function size:0x30
crt_xc_fn_004F3C50 = .text:0x004F3C50; // type:function size:0x30
crt_xc_fn_004F3C80 = .text:0x004F3C80; // type:function size:0x1B
crt_xc_fn_004F3CA0 = .text:0x004F3CA0; // type:function size:0x30
crt_xc_fn_004F3CD0 = .text:0x004F3CD0; // type:function size:0x9F0
fn_004F46C0 = .text:0x004F46C0; // type:function size:0x10
fn_004F4700 = .text:0x004F4700; // type:function size:0x7A
fn_004F4780 = .text:0x004F4780; // type:function size:0x60
fn_004F47E0 = .text:0x004F47E0; // type:function size:0x80
fn_004F4860 = .text:0x004F4860; // type:function size:0x30
fn_004F4890 = .text:0x004F4890; // type:function size:0x30
fn_004F48C0 = .text:0x004F48C0; // type:function size:0x239
fn_004F4B10 = .text:0x004F4B10; // type:function size:0x30
fn_004F4B40 = .text:0x004F4B40; // type:function size:0x20
fn_004F4B60 = .text:0x004F4B60; // type:function size:0x30
fn_004F4C30 = .text:0x004F4C30; // type:function size:0x1A
fn_004F4C50 = .text:0x004F4C50; // type:function size:0x70
fn_004F4D20 = .text:0x004F4D20; // type:function size:0x80
fn_004F4DA0 = .text:0x004F4DA0; // type:function size:0x20
fn_004F4DC0 = .text:0x004F4DC0; // type:function size:0xA0
fn_004F4F30 = .text:0x004F4F30; // type:function size:0x1F
fn_004F4F4F = .text:0x004F4F4F; // type:label size:0x111
fn_004F5060 = .text:0x004F5060; // type:function size:0x80
fn_004F50E0 = .text:0x004F50E0; // type:function size:0x100
?IsCreatureSpellActive@CreatureReceiveSpell@@QAEXVCREATURE_RECEIVE_SPELL_TYPE@@@Z = .text:0x004F51E0; // type:function size:0x20
?IsCreatureSubTypeSpellActive@CreatureReceiveSpell@@QAEXVCREATURE_SPELL_SUBTYPE@@@Z = .text:0x004F5200; // type:function size:0x30
fn_004F5230 = .text:0x004F5230; // type:function size:0x10
??0CreatureReceiveSpell@@QAE@PAVCreature@@@Z = .text:0x004F5240; // type:function size:0xD0 scope:global
fn_004F5310 = .text:0x004F5310; // type:function size:0x30
fn_004F5340 = .text:0x004F5340; // type:function size:0x20
fn_004F5360 = .text:0x004F5360; // type:function size:0xA8
fn_004F5420 = .text:0x004F5420; // type:function size:0x10
fn_004F5454 = .text:0x004F5454; // type:function size:0x17
fn_004F5754 = .text:0x004F5754; // type:function size:0x17
fn_004F5E60 = .text:0x004F5E60; // type:function size:0x40
fn_004F5EA0 = .text:0x004F5EA0; // type:function size:0x60
fn_004F5F00 = .text:0x004F5F00; // type:function size:0x40
fn_004F5F40 = .text:0x004F5F40; // type:function size:0x60
fn_004F5FA0 = .text:0x004F5FA0; // type:function size:0x40
fn_004F5FE0 = .text:0x004F5FE0; // type:function size:0x50
crt_xc_fn_004F6030 = .text:0x004F6030; // type:function size:0x30
crt_xc_fn_004F6060 = .text:0x004F6060; // type:function size:0x30
crt_xc_fn_004F6090 = .text:0x004F6090; // type:function size:0x1B
crt_xc_fn_004F6590 = .text:0x004F6590; // type:function size:0x30
crt_xc_fn_004F65C0 = .text:0x004F65C0; // type:function size:0x30
crt_xc_fn_004F65F0 = .text:0x004F65F0; // type:function size:0x1B
?SetFocus@Creature@@UAEXPBULHPoint@@@Z = .text:0x004F6760; // type:function size:0xF0 scope:global
fn_004F6A90 = .text:0x004F6A90; // type:function size:0xD0
fn_004F6E30 = .text:0x004F6E30; // type:function size:0xE0
fn_004F6F10 = .text:0x004F6F10; // type:function size:0xF0
crt_xc_fn_004F7110 = .text:0x004F7110; // type:function size:0x30
crt_xc_fn_004F7140 = .text:0x004F7140; // type:function size:0x30
crt_xc_fn_004F7170 = .text:0x004F7170; // type:function size:0x1B
?StringFunction@Prss@@QAEXHPADH@Z = .text:0x004F7200; // type:function size:0x10 scope:global
?ProcessTurn@CreatureSelect@@UAEHXZ = .text:0x004F7210; // type:function size:0x40 scope:global
?Display@CreatureSelect@@UAEXXZ = .text:0x004F7250; // type:function size:0x280 scope:global
?ClickFunction@CreatureSelect@@UAEXHHH@Z = .text:0x004F74D0; // type:function size:0xC8 scope:global
crt_xc_fn_004F7640 = .text:0x004F7640; // type:function size:0x30
crt_xc_fn_004F7670 = .text:0x004F7670; // type:function size:0x30
crt_xc_fn_004F76A0 = .text:0x004F76A0; // type:function size:0x1B
crt_xc_fn_004F7840 = .text:0x004F7840; // type:function size:0x30
crt_xc_fn_004F7870 = .text:0x004F7870; // type:function size:0x30
crt_xc_fn_004F78A0 = .text:0x004F78A0; // type:function size:0x1B
fn_004F78C0 = .text:0x004F78C0; // type:function size:0x2B
crt_xc_fn_004F78F0 = .text:0x004F78F0; // type:function size:0x30
crt_xc_fn_004F7920 = .text:0x004F7920; // type:function size:0x30
crt_xc_fn_004F7950 = .text:0x004F7950; // type:function size:0x1B
fn_004F7970 = .text:0x004F7970; // type:function size:0x4B0
fn_004F81B0 = .text:0x004F81B0; // type:function size:0x3B
fn_004F81F0 = .text:0x004F81F0; // type:function size:0x6A
fn_004F8260 = .text:0x004F8260; // type:function size:0x40
fn_004F82A0 = .text:0x004F82A0; // type:function size:0x50
fn_004F82F0 = .text:0x004F82F0; // type:function size:0x60
?MaintainSpell@Creature@@UAEXIM@Z = .text:0x004F8350; // type:function size:0x240 scope:global
fn_004F8590 = .text:0x004F8590; // type:function size:0x1BB
?UpdateSpellInfo@Creature@@UAEXPAVSpell@@PAUPSysProcessInfo@@@Z = .text:0x004F8750; // type:function size:0x100 scope:global
fn_004F8850 = .text:0x004F8850; // type:function size:0x5A
?CanBeSuckedIntoVortex@Creature@@UAE_NPAVLandscapeVortex@@@Z = .text:0x004F8A10; // type:function size:0x2B scope:global
fn_004F8A40 = .text:0x004F8A40; // type:function size:0xA0
fn_004F8AE0 = .text:0x004F8AE0; // type:function size:0x50
?GetPSysBeamTargetPos@Creature@@UAEXPAULHPoint@@@Z = .text:0x004F8B30; // type:function size:0x50 scope:global
?ProcessSpells@Creature@@QAEXXZ = .text:0x004F8B80; // type:function size:0x120 scope:global
?NumTimesMagicActionMustBeSeenBeforeItIsLearnt@Creature@@QAEXI@Z = .text:0x004F8CA0; // type:function size:0x50
crt_xc_fn_004F8CF0 = .text:0x004F8CF0; // type:function size:0x30
crt_xc_fn_004F8D20 = .text:0x004F8D20; // type:function size:0x30
crt_xc_fn_004F8D50 = .text:0x004F8D50; // type:function size:0x1B
crt_xc_fn_004F8D70 = .text:0x004F8D70; // type:function size:0x6030
fn_004FEDA0 = .text:0x004FEDA0; // type:function size:0x410
??0CreatureSubActionAgenda@@QAE@PAVCreature@@@Z = .text:0x004FF1B0; // type:function size:0x90 scope:global
?AddSubAction@CreatureSubActionAgenda@@QAEXW4CREATURE_SUB_STATE_ACTIONS@@PAVSubArgument@@P8Creature@@AEHPBXPAXPAUMapCoords@@@ZP84@AEX23@Z@Z = .text:0x004FF240; // type:function size:0x160 scope:global
?AddMainSubAction@CreatureSubActionAgenda@@QAEXW4CREATURE_SUB_STATE_ACTIONS@@PAVSubArgument@@P8Creature@@AEHPBXPAXPAUMapCoords@@@ZP84@AEX23@Z@Z = .text:0x004FF3A0; // type:function size:0x80 scope:global
fn_004FF420 = .text:0x004FF420; // type:function size:0x90
fn_004FF4B0 = .text:0x004FF4B0; // type:function size:0x90
fn_004FF540 = .text:0x004FF540; // type:function size:0x30
fn_004FF570 = .text:0x004FF570; // type:function size:0x40
fn_004FF5B0 = .text:0x004FF5B0; // type:function size:0x10
fn_004FF5C0 = .text:0x004FF5C0; // type:function size:0x50
crt_xc_fn_004FF610 = .text:0x004FF610; // type:function size:0x30
crt_xc_fn_004FF640 = .text:0x004FF640; // type:function size:0x30
crt_xc_fn_004FF670 = .text:0x004FF670; // type:function size:0x1B
SubArgumentObject_vfunc0 = .text:0x004FF690; // type:function size:0x20
SubArgumentObjectAndFloat_vfunc0 = .text:0x004FF6B0; // type:function size:0x20
?SetArgumentOfSubActionAgenda@SubArgumentObjectAndInteger@@UAEXPAVCreatureSubActionAgenda@@I@Z = .text:0x004FF6D0; // type:function size:0x20 scope:global
?SetArgumentOfSubActionAgenda@SubArgumentInteger@@UAEXPAVCreatureSubActionAgenda@@I@Z = .text:0x004FF6F0; // type:function size:0x20 scope:global
SubArgumentFloat_vfunc0 = .text:0x004FF710; // type:function size:0x20
SubArgumentIntegerAndFloat_vfunc0 = .text:0x004FF730; // type:function size:0x20
?SetArgumentOfSubActionAgenda@SubArgumentPoint@@UAEXPAVCreatureSubActionAgenda@@I@Z = .text:0x004FF780; // type:function size:0x30 scope:global
SubArgumentPointIntegerFloatAndSpell_vfunc0 = .text:0x004FF7B0; // type:function size:0x40
SubArgumentObjectIntegerFloatAndSpell_vfunc0 = .text:0x004FF7F0; // type:function size:0x2B
SubArgumentPointAndFloat_vfunc0 = .text:0x004FF820; // type:function size:0x40
SubArgumentObjectIntegerPosFloatAndSpell_vfunc0 = .text:0x004FF860; // type:function size:0x50
crt_xc_fn_004FF8E0 = .text:0x004FF8E0; // type:function size:0x30
crt_xc_fn_004FF910 = .text:0x004FF910; // type:function size:0x30
crt_xc_fn_004FF940 = .text:0x004FF940; // type:function size:0x1B
crt_xc_fn_004FF960 = .text:0x004FF960; // type:function size:0x30
crt_xc_fn_004FF990 = .text:0x004FF990; // type:function size:0x30
?SubStatePerformPickUpParameter@Creature@@QAEIPAVCreatureBelief@@@Z = .text:0x004FFDD0; // type:function size:0x100 scope:global
fn_00500000 = .text:0x00500000; // type:function size:0x1B
fn_0050001B = .text:0x0050001B; // type:function size:0x1D5
?SubStatePerformAddVillagersToDance@Creature@@QAE_NXZ = .text:0x00501D10; // type:function size:0x1FB scope:global
fn_00504143 = .text:0x00504143; // type:function size:0x1D
fn_00504341 = .text:0x00504341; // type:function size:0xCF
fn_00504665 = .text:0x00504665; // type:function size:0x1
fn_00504952 = .text:0x00504952; // type:function size:0x5
fn_00504D45 = .text:0x00504D45; // type:function size:0xB
fn_00504F50 = .text:0x00504F50; // type:function size:0x19
fn_00505050 = .text:0x00505050; // type:function size:0x8
fn_00505345 = .text:0x00505345; // type:function size:0x3B
SubArgumentObjectIntegerPosFloatAndSpell_vfunc1 = .text:0x00506550; // type:function size:0x10
SubArgumentObjectIntegerPosFloatAndSpell_vfunc2 = .text:0x00506560; // type:function size:0x10
SubArgumentObjectIntegerPosFloatAndSpell_vfunc3 = .text:0x00506570; // type:function size:0x10
fn_00507265 = .text:0x00507265; // type:function size:0x65
crt_xc_fn_00508E40 = .text:0x00508E40; // type:function size:0x30
crt_xc_fn_00508E70 = .text:0x00508E70; // type:function size:0x30
crt_xc_fn_00508EA0 = .text:0x00508EA0; // type:function size:0x1B
crt_xc_fn_00508F90 = .text:0x00508F90; // type:function size:0x30
crt_xc_fn_00508FC0 = .text:0x00508FC0; // type:function size:0x30
crt_xc_fn_00508FF0 = .text:0x00508FF0; // type:function size:0x1B
fn_00509C50 = .text:0x00509C50; // type:function size:0x270
crt_xc_fn_0050A8F0 = .text:0x0050A8F0; // type:function size:0x30
crt_xc_fn_0050A920 = .text:0x0050A920; // type:function size:0x30
fn_0050A950 = .text:0x0050A950; // type:function size:0x40
?GetArrivePos@Creche@@UAEPAUMapCoords@@PAU2@@Z = .text:0x0050A990; // type:function size:0x20 scope:global
?CanActAsAContainer@Creche@@UAEIPAVCreature@@@Z = .text:0x0050A9B0; // type:function size:0x10 scope:global
?IsStoragePit@Creche@@UAEIPAVCreature@@@Z = .text:0x0050A9C0; // type:function size:0x10 scope:global
?Get3DType@Creche@@UAE?AW4LH3DObject__ObjectType@@XZ = .text:0x0050A9D0; // type:function size:0x10 scope:global
?GetSaveType@Creche@@UAEIXZ = .text:0x0050A9E0; // type:function size:0x10 scope:global
?GetDebugText@Creche@@UAEPADXZ = .text:0x0050A9F0; // type:function size:0x10 scope:global
??_GCreche@@UAEPAXI@Z = .text:0x0050AA00; // type:function size:0x30 scope:global
?ToBeDeleted@Creche@@UAEXH@Z = .text:0x0050AA30; // type:function size:0x1B scope:global
?DeleteDependancys@Creche@@UAEXXZ = .text:0x0050AA50; // type:function size:0x80 scope:global
?Create@Creche@@SAPAV1@ABUMapCoords@@PBVGAbodeInfo@@PAVTown@@MMIIMHH@Z = .text:0x0050AAD0; // type:function size:0x6A scope:global
?MakeFunctional@Creche@@UAEXXZ = .text:0x0050AB50; // type:function size:0x40 scope:global
?ReduceLife@Creche@@UAEXMPAVGPlayer@@@Z = .text:0x0050AB90; // type:function size:0x20 scope:global
crt_xc_fn_0050ABB0 = .text:0x0050ABB0; // type:function size:0x30
crt_xc_fn_0050ABE0 = .text:0x0050ABE0; // type:function size:0x1B
crt_xc_fn_0050AC00 = .text:0x0050AC00; // type:function size:0x30
crt_xc_fn_0050AC30 = .text:0x0050AC30; // type:function size:0x20
Reset__14CreditTextItemFf = .text:0x0050AC50; // type:function size:0x50
fn_0050B040 = .text:0x0050B040; // type:function size:0x40
crt_xc_fn_0050B2E0 = .text:0x0050B2E0; // type:function size:0x30
?InteractsWithPhysicsObjects@Creed@@UAEIXZ = .text:0x0050B330; // type:function size:0x10 scope:global
?CanBecomeAPhysicsObject@Creed@@UAEIXZ = .text:0x0050B340; // type:function size:0x10 scope:global
?GetSaveType@Creed@@UAEIXZ = .text:0x0050B350; // type:function size:0x10 scope:global
?GetDebugText@Creed@@UAEPADXZ = .text:0x0050B360; // type:function size:0x10 scope:global
??_GCreed@@UAEPAXI@Z = .text:0x0050B370; // type:function size:0x20 scope:global
?CallVirtualFunctionsForCreation@Creed@@UAEXABUMapCoords@@@Z = .text:0x0050B3A0; // type:function size:0x30 scope:global
?ToBeDeleted@Creed@@UAEXH@Z = .text:0x0050B3D0; // type:function size:0x50 scope:global
?Create3DObject@Creed@@UAEXXZ = .text:0x0050B420; // type:function size:0x7B scope:global
?SetScale@Creed@@UAEXM@Z = .text:0x0050B4A0; // type:function size:0x20 scope:global
?Save@Creed@@UAEIAAVGameOSFile@@@Z = .text:0x0050B4C0; // type:function size:0x20 scope:global
?Load@Creed@@UAEIAAVGameOSFile@@@Z = .text:0x0050B4E0; // type:function size:0x20 scope:global
?CanBePickedUpByCreature@Creed@@UAEIPAVCreature@@@Z = .text:0x0050B500; // type:function size:0x10 scope:global
crt_xc_fn_0050B510 = .text:0x0050B510; // type:function size:0x30
crt_xc_fn_0050B540 = .text:0x0050B540; // type:function size:0x30
crt_xc_fn_0050B570 = .text:0x0050B570; // type:function size:0x1B
crt_xc_fn_0050B590 = .text:0x0050B590; // type:function size:0x30
crt_xc_fn_0050B5C0 = .text:0x0050B5C0; // type:function size:0x10
fn_0050B5D0 = .text:0x0050B5D0; // type:function size:0x30
?GetBaseInfo@GDanceInfo@@UAEPAVGBaseInfo@@AAI@Z = .text:0x0050B600; // type:function size:0x20 scope:global
??_GGDanceInfo@@UAEPAXI@Z = .text:0x0050B670; // type:function size:0x30 scope:global
??0Dance@@QAE@ABVMapCoords@@PBVGDanceInfo@@PAVGameThingWithPos@@IHPAVTown@@@Z = .text:0x0050B6A0; // type:function size:0x70 scope:global
?IsScriptContainer@Dance@@UBEIXZ = .text:0x0050B710; // type:function size:0x10 scope:global
?GetFootpathLink@Dance@@UAEPAVGFootpathLink@@XZ = .text:0x0050B720; // type:function size:0x10 scope:global
?IsDance@Dance@@UBEIXZ = .text:0x0050B730; // type:function size:0x10 scope:global
?GetText@Dance@@UAEPBDXZ = .text:0x0050B740; // type:function size:0x10 scope:global
?GetSaveType@Dance@@UAEIXZ = .text:0x0050B750; // type:function size:0x10 scope:global
?GetDebugText@Dance@@UAEPADXZ = .text:0x0050B760; // type:function size:0x10 scope:global
??_GDance@@UAEPAXI@Z = .text:0x0050B770; // type:function size:0x30 scope:global
?Initialise@Dance@@QAEXPBDVDANCE_INFO@@ABVMapCoords@@PAVGameThingWithPos@@IHPAVTown@@@Z = .text:0x0050B7A0; // type:function size:0x1C0
fn_0050B960 = .text:0x0050B960; // type:function size:0x10
?ToBeDeleted@Dance@@UAEXH@Z = .text:0x0050B970; // type:function size:0x180 scope:global
fn_0050BAF0 = .text:0x0050BAF0; // type:function size:0x40
?CleanUpBeforeReset@Dance@@UAEXXZ = .text:0x0050BB30; // type:function size:0xB scope:global
?StartDance@Dance@@QAEXXZ = .text:0x0050BB40; // type:function size:0x20 scope:global
fn_0050BB60 = .text:0x0050BB60; // type:function size:0x2B
?Process@Dance@@UAEXXZ = .text:0x0050BB90; // type:function size:0x200 scope:global
fn_0050BEB0 = .text:0x0050BEB0; // type:function size:0x70
?CalculateFoodNeededByDancers@Dance@@QAEXXZ = .text:0x0050BF20; // type:function size:0x90
fn_0050C090 = .text:0x0050C090; // type:function size:0x60
fn_0050C0F0 = .text:0x0050C0F0; // type:function size:0x60
?Get3DSoundPos@Dance@@UAEHPAULHPoint@@@Z = .text:0x0050C250; // type:function size:0x40 scope:global
fn_0050C290 = .text:0x0050C290; // type:function size:0x80
?GetAngle@Dance@@UAEMXZ = .text:0x0050C310; // type:function size:0x30 scope:global
fn_0050C340 = .text:0x0050C340; // type:function size:0x80
?GetScriptObjectType@Dance@@UAEIXZ = .text:0x0050C3C0; // type:function size:0x10 scope:global
fn_0050C3D0 = .text:0x0050C3D0; // type:function size:0x70
fn_0050C440 = .text:0x0050C440; // type:function size:0x20
fn_0050C460 = .text:0x0050C460; // type:function size:0x20
?Save@Dance@@UAEIAAVGameOSFile@@@Z = .text:0x0050C480; // type:function size:0x2E0 scope:global
?Load@Dance@@UAEIAAVGameOSFile@@@Z = .text:0x0050C760; // type:function size:0x2C0 scope:global
fn_0050CA20 = .text:0x0050CA20; // type:function size:0x40
?AddFootpath@Dance@@UAEIPAVGFootpath@@@Z = .text:0x0050CA60; // type:function size:0x70 scope:global
?GetSaveType@GFootpathLink@@UAEIXZ = .text:0x0050CAD0; // type:function size:0x10 scope:global
?GetDebugText@GFootpathLink@@UAEPADXZ = .text:0x0050CAE0; // type:function size:0x10 scope:global
??_GGFootpathLink@@UAEPAXI@Z = .text:0x0050CAF0; // type:function size:0x20 scope:global
?RemoveFootpath@Dance@@UAEIPAVGFootpath@@@Z = .text:0x0050CB10; // type:function size:0x30 scope:global
?GetArrivePos@Dance@@UAEPAUMapCoords@@PAU2@@Z = .text:0x0050CB40; // type:function size:0x30 scope:global
crt_xc_fn_0050CB70 = .text:0x0050CB70; // type:function size:0x30
crt_xc_fn_0050CBA0 = .text:0x0050CBA0; // type:function size:0x30
crt_xc_fn_0050CBD0 = .text:0x0050CBD0; // type:function size:0x30
crt_xc_fn_0050CC00 = .text:0x0050CC00; // type:function size:0x1B
?GetAngle@GroupBehaviour@@QAEXXZ = .text:0x0050CC40; // type:function size:0x10 scope:global
??_GDanceEditState@@UAEPAXI@Z = .text:0x0050CC50; // type:function size:0x30 scope:global
fn_0050CC80 = .text:0x0050CC80; // type:function size:0x10
?ToBeDeleted@DanceEditState@@UAEXH@Z = .text:0x0050CC90; // type:function size:0x10 scope:global
fn_0050CCC0 = .text:0x0050CCC0; // type:function size:0x10
fn_0050CCD0 = .text:0x0050CCD0; // type:function size:0x10
crt_xc_fn_0050CCE0 = .text:0x0050CCE0; // type:function size:0x30
crt_xc_fn_0050CD10 = .text:0x0050CD10; // type:function size:0x30
crt_xc_fn_0050CD40 = .text:0x0050CD40; // type:function size:0x30
crt_xc_fn_0050CD70 = .text:0x0050CD70; // type:function size:0x30
crt_xc_fn_0050CDA0 = .text:0x0050CDA0; // type:function size:0x1B
crt_xc_fn_0050CDC0 = .text:0x0050CDC0; // type:function size:0x30
crt_xc_fn_0050CDF0 = .text:0x0050CDF0; // type:function size:0x30
crt_xc_fn_0050CE20 = .text:0x0050CE20; // type:function size:0x1B
??0DanceGroup@@QAE@XZ = .text:0x0050CE40; // type:function size:0xA0
?GetSaveType@DanceGroup@@UAEIXZ = .text:0x0050CEE0; // type:function size:0x10 scope:global
?GetDebugText@DanceGroup@@UAEPADXZ = .text:0x0050CEF0; // type:function size:0x10 scope:global
??_GDanceGroup@@UAEPAXI@Z = .text:0x0050CF00; // type:function size:0x30 scope:global
fn_0050CF30 = .text:0x0050CF30; // type:function size:0xC0
fn_0050CFF0 = .text:0x0050CFF0; // type:function size:0x1A2
fn_0050D1C0 = .text:0x0050D1C0; // type:function size:0xE0
fn_0050D2A0 = .text:0x0050D2A0; // type:function size:0x7B
fn_0050D320 = .text:0x0050D320; // type:function size:0x140
fn_0050D460 = .text:0x0050D460; // type:function size:0x2A
fn_0050D490 = .text:0x0050D490; // type:function size:0x1A
fn_0050D510 = .text:0x0050D510; // type:function size:0x90
fn_0050D5A0 = .text:0x0050D5A0; // type:function size:0x10
fn_0050D5F0 = .text:0x0050D5F0; // type:function size:0x10
?Save@DanceGroup@@UAEIAAVGameOSFile@@@Z = .text:0x0050D640; // type:function size:0x380 scope:global
?Load@DanceGroup@@UAEIAAVGameOSFile@@@Z = .text:0x0050D9C0; // type:function size:0x390 scope:global
fn_0050DD50 = .text:0x0050DD50; // type:function size:0x50
fn_0050DDA0 = .text:0x0050DDA0; // type:function size:0x50
fn_0050DDF0 = .text:0x0050DDF0; // type:function size:0x50
fn_0050DE40 = .text:0x0050DE40; // type:function size:0x50
fn_0050DE90 = .text:0x0050DE90; // type:function size:0x50
fn_0050DEE0 = .text:0x0050DEE0; // type:function size:0xEA
fn_0050DFD0 = .text:0x0050DFD0; // type:function size:0x50
fn_0050E020 = .text:0x0050E020; // type:function size:0x50
fn_0050E070 = .text:0x0050E070; // type:function size:0x50
fn_0050E0C0 = .text:0x0050E0C0; // type:function size:0x50
fn_0050E110 = .text:0x0050E110; // type:function size:0x50
fn_0050E160 = .text:0x0050E160; // type:function size:0xD0
fn_0050E230 = .text:0x0050E230; // type:function size:0x50
fn_0050E280 = .text:0x0050E280; // type:function size:0x5A
crt_xc_fn_0050E2E0 = .text:0x0050E2E0; // type:function size:0x30
crt_xc_fn_0050E310 = .text:0x0050E310; // type:function size:0x30
fn_0050E340 = .text:0x0050E340; // type:function size:0x40
?GetSaveType@DanceKeyAction@@UAEIXZ = .text:0x0050E380; // type:function size:0x10 scope:global
?GetDebugText@DanceKeyAction@@UAEPADXZ = .text:0x0050E390; // type:function size:0x10 scope:global
??_GDanceKeyAction@@UAEPAXI@Z = .text:0x0050E3A0; // type:function size:0x40 scope:global
fn_0050E3E0 = .text:0x0050E3E0; // type:function size:0xB0
?Save@DanceKeyAction@@UAEIAAVGameOSFile@@@Z = .text:0x0050E880; // type:function size:0x17B scope:global
?Load@DanceKeyAction@@UAEIAAVGameOSFile@@@Z = .text:0x0050EA00; // type:function size:0x160 scope:global
??0DanceKeyFrame@@QAE@HAAVLHDynamicStack_Ul_@@VDANCE_GROUP_ACTION_TYPE@@ABVDanceGroupActionArgument@@@Z = .text:0x0050EB60; // type:function size:0x50 scope:global
?GetSaveType@DanceKeyFrame@@UAEIXZ = .text:0x0050EBB0; // type:function size:0x10 scope:global
?GetDebugText@DanceKeyFrame@@UAEPADXZ = .text:0x0050EBC0; // type:function size:0x10 scope:global
??_GDanceKeyFrame@@UAEPAXI@Z = .text:0x0050EBD0; // type:function size:0x20 scope:global
?ToBeDeleted@DanceKeyFrame@@UAEXH@Z = .text:0x0050EBF0; // type:function size:0x80 scope:global
fn_0050EC70 = .text:0x0050EC70; // type:function size:0x60
fn_0050ECD0 = .text:0x0050ECD0; // type:function size:0x60
fn_0050ED30 = .text:0x0050ED30; // type:function size:0x50
fn_0050ED80 = .text:0x0050ED80; // type:function size:0x110
fn_0050EE90 = .text:0x0050EE90; // type:function size:0x300
?Save@DanceKeyFrame@@UAEIAAVGameOSFile@@@Z = .text:0x0050F1C0; // type:function size:0x130 scope:global
?Load@DanceKeyFrame@@UAEIAAVGameOSFile@@@Z = .text:0x0050F2F0; // type:function size:0x150 scope:global
fn_0050F440 = .text:0x0050F440; // type:function size:0x20
fn_0050F460 = .text:0x0050F460; // type:function size:0x30
fn_0050F490 = .text:0x0050F490; // type:function size:0x20
crt_xc_fn_0050F4B0 = .text:0x0050F4B0; // type:function size:0x30
crt_xc_fn_0050F4E0 = .text:0x0050F4E0; // type:function size:0x30
crt_xc_fn_0050F510 = .text:0x0050F510; // type:function size:0x10
fn_0050F520 = .text:0x0050F520; // type:function size:0x10
fn_0050F630 = .text:0x0050F630; // type:function size:0x90
?Process@DanceLight@@QAEXXZ = .text:0x0050F6C0; // type:function size:0xBB
fn_0050F780 = .text:0x0050F780; // type:function size:0x30
?InitialiseBitmaps@DanceLight@@QAEXXZ = .text:0x0050F7B0; // type:function size:0x60 scope:global
crt_xc_fn_0050F930 = .text:0x0050F930; // type:function size:0x30
?InitialiseShapes@GData@@QAEXXZ = .text:0x0050F960; // type:function size:0x3B
fn_0050F9A0 = .text:0x0050F9A0; // type:function size:0x60
?MakeShapeWaveyCircle@MakeShape@@QAEXI@Z = .text:0x0050FA00; // type:function size:0x80
?MakeShapeSpiral@MakeShape@@QAEXI@Z = .text:0x0050FA80; // type:function size:0x70
fn_0050FB70 = .text:0x0050FB70; // type:function size:0xB0
fn_0050FCD0 = .text:0x0050FCD0; // type:function size:0x40
fn_0050FD10 = .text:0x0050FD10; // type:function size:0x40
fn_0050FD50 = .text:0x0050FD50; // type:function size:0x40
fn_0050FD90 = .text:0x0050FD90; // type:function size:0x70
fn_0050FE70 = .text:0x0050FE70; // type:function size:0xC0
fn_0050FF30 = .text:0x0050FF30; // type:function size:0x20
?MakeShapeTriangle@MakeShape@@QAEXI@Z = .text:0x0050FF50; // type:function size:0x140
?MakeShapeHeart@MakeShape@@QAEXI@Z = .text:0x00510090; // type:function size:0x180
fn_00510210 = .text:0x00510210; // type:function size:0x120
fn_00510330 = .text:0x00510330; // type:function size:0x10
?LoadShape@GData@@QAEXPBDI@Z = .text:0x00510340; // type:function size:0xC0
?CalculatePointOnLine@GData@@QAEXAAVJustXZ@@AAV2@HH@Z = .text:0x00510400; // type:function size:0xB0
crt_xc_fn_005104B0 = .text:0x005104B0; // type:function size:0x30
crt_xc_fn_005104E0 = .text:0x005104E0; // type:function size:0x1B
??0GData@@QAE@XZ = .text:0x00510500; // type:function size:0x10A scope:global
??_GGData@@UAEPAXI@Z = .text:0x00510610; // type:function size:0x20 scope:global
?SetupDataTables@GGame@@QAEXXZ = .text:0x00510630; // type:function size:0x20 scope:global
?Rand@GData@@QAEXH@Z = .text:0x00510650; // type:function size:0x60 scope:global
fn_005106B0 = .text:0x005106B0; // type:function size:0xA0
?Reset@GData@@QAEXXZ = .text:0x00510750; // type:function size:0x1B scope:global
crt_xc_fn_00510770 = .text:0x00510770; // type:function size:0x30
crt_xc_fn_005107A0 = .text:0x005107A0; // type:function size:0x30
crt_xc_fn_005107D0 = .text:0x005107D0; // type:function size:0x1B
?Draw@DeadTree@@UAEXXZ = .text:0x005107F0; // type:function size:0x90 scope:global
fn_00510880 = .text:0x00510880; // type:function size:0xF0
?GetInHandImmersionTexture@DeadTree@@UAE?AW4IMMERSION_EFFECT_TYPE@@XZ = .text:0x00510970; // type:function size:0x10 scope:global
?IsAnyKindOfTree@DeadTree@@UAEIXZ = .text:0x00510980; // type:function size:0x10 scope:global
?IsDeadTree@DeadTree@@UAEIXZ = .text:0x00510990; // type:function size:0x10 scope:global
?InterfaceValidToTap@DeadTree@@UAEIPAVGInterfaceStatus@@@Z = .text:0x005109A0; // type:function size:0x10 scope:global
?InterfaceTap@DeadTree@@UAEIPAVGInterfaceStatus@@@Z = .text:0x005109B0; // type:function size:0x10 scope:global
?HandShouldFeelWithMeshIntersect@DeadTree@@UAEIXZ = .text:0x005109C0; // type:function size:0x10 scope:global
?IsRock@DeadTree@@UAEIXZ = .text:0x005109D0; // type:function size:0x10 scope:global
?GetSaveType@DeadTree@@UAEIXZ = .text:0x005109E0; // type:function size:0x10 scope:global
?GetDebugText@DeadTree@@UAEPADXZ = .text:0x005109F0; // type:function size:0x10 scope:global
??_GDeadTree@@UAEPAXI@Z = .text:0x00510A00; // type:function size:0x30 scope:global
fn_00510A30 = .text:0x00510A30; // type:function size:0x4B
fn_00510A80 = .text:0x00510A80; // type:function size:0xB
?CallVirtualFunctionsForCreation@DeadTree@@UAEXABUMapCoords@@@Z = .text:0x00510A90; // type:function size:0xE0 scope:global
fn_00510B70 = .text:0x00510B70; // type:function size:0x3B
fn_00510BB0 = .text:0x00510BB0; // type:function size:0xB0
?GetDeadTreeMesh@DeadTree@@QAEXXZ = .text:0x00510C60; // type:function size:0x30
?ToBeDeleted@DeadTree@@UAEXH@Z = .text:0x00510C90; // type:function size:0x10 scope:global
?ReactToPhysicsImpact@DeadTree@@UAEXPAVPhysicsObject@@_N@Z = .text:0x00510CA0; // type:function size:0x3B scope:global
?GetDefaultFireCentrePos@DeadTree@@UAEPAULHPoint@@PAU2@@Z = .text:0x00510CE0; // type:function size:0x130 scope:global
?GetDefaultFireRadius@DeadTree@@UAEMXZ = .text:0x00510E10; // type:function size:0x10 scope:global
?StartOnFire@DeadTree@@UAEXXZ = .text:0x00510E20; // type:function size:0x10 scope:global
?CreatureMustAvoid@DeadTree@@UAE_NPAVCreature@@@Z = .text:0x00510E30; // type:function size:0x30 scope:global
?EndOnFire@DeadTree@@UAEXXZ = .text:0x00510E60; // type:function size:0x30 scope:global
?ValidToApplyThisToObject@DeadTree@@UAEIPAVGInterfaceStatus@@PAVObject@@@Z = .text:0x00510E90; // type:function size:0x50 scope:global
?ApplyThisToObject@DeadTree@@UAEIPAVGInterfaceStatus@@PAVObject@@PAUGestureSystemPacketData@@@Z = .text:0x00510EE0; // type:function size:0x16B scope:global
?ApplyThisToMapCoord@DeadTree@@UAEIPAVGInterfaceStatus@@ABUMapCoords@@PAUGestureSystemPacketData@@@Z = .text:0x00511050; // type:function size:0x70 scope:global
?GetResourceType@DeadTree@@UAE?AW4RESOURCE_TYPE@@XZ = .text:0x005110C0; // type:function size:0x10 scope:global
?GetHoldType@DeadTree@@UAE?AW4HOLD_TYPE@@XZ = .text:0x005110D0; // type:function size:0x10 scope:global
?GetHoldRadius@DeadTree@@UAEMXZ = .text:0x005110E0; // type:function size:0x10 scope:global
?GetHoldLoweringMultiplier@DeadTree@@UAEMXZ = .text:0x005110F0; // type:function size:0x10 scope:global
?GetPhysicsConstantsType@DeadTree@@UAEIXZ = .text:0x00511100; // type:function size:0x30 scope:global
?GetCollideSoundType@DeadTree@@UAE?AW4SOUND_COLLISION_TYPE@@XZ = .text:0x00511130; // type:function size:0x3A scope:global
?SetUpPhysOb@DeadTree@@UAEXPAUPhysOb@@@Z = .text:0x00511170; // type:function size:0x80 scope:global
?InteractsWithPhysicsObjects@DeadTree@@UAEIXZ = .text:0x005111F0; // type:function size:0x10 scope:global
?IsARootedObject@DeadTree@@UAEIXZ = .text:0x00511200; // type:function size:0x10 scope:global
fn_00511210 = .text:0x00511210; // type:function size:0x40
fn_00511250 = .text:0x00511250; // type:function size:0x1A
fn_00511270 = .text:0x00511270; // type:function size:0xC0
?GetDefaultResource@DeadTree@@UAEHXZ = .text:0x00511330; // type:function size:0x3B scope:global
?RemoveResource@DeadTree@@UAEIW4RESOURCE_TYPE@@IPAVGInterfaceStatus@@PA_N@Z = .text:0x00511370; // type:function size:0x80 scope:global
?EndPhysics@DeadTree@@UAEXPAVPhysicsObject@@_N@Z = .text:0x005113F0; // type:function size:0x40 scope:global
?SaveObject@DeadTree@@UAEIAAULHOSFile@@ABUMapCoords@@@Z = .text:0x00511430; // type:function size:0x160 scope:global
?GetWeight@DeadTree@@UAEMXZ = .text:0x00511590; // type:function size:0x20 scope:global
?GetScriptObjectType@DeadTree@@UAEIXZ = .text:0x005115B0; // type:function size:0x10 scope:global
?Save@DeadTree@@UAEIAAVGameOSFile@@@Z = .text:0x005115C0; // type:function size:0x70 scope:global
?Load@DeadTree@@UAEIAAVGameOSFile@@@Z = .text:0x00511630; // type:function size:0x70 scope:global
?Create@FelledTree@@QAEXPAVTree@@PAVObject@@@Z = .text:0x005116A0; // type:function size:0x210
?IsARootedObject@FelledTree@@QAEXXZ = .text:0x005118B0; // type:function size:0x10
?GetSaveType@FelledTree@@UAEIXZ = .text:0x005118C0; // type:function size:0x10 scope:global
?GetDebugText@FelledTree@@UAEPADXZ = .text:0x005118D0; // type:function size:0x10 scope:global
??_GFelledTree@@UAEPAXI@Z = .text:0x005118E0; // type:function size:0x30 scope:global
?GetPhysicsConstantsType@FelledTree@@QAEXXZ = .text:0x00511910; // type:function size:0x10
?SetUpPhysOb@FelledTree@@QAEXPAVPhysOb@@@Z = .text:0x00511920; // type:function size:0x50
?EndPhysics@FelledTree@@QAEXPAVPhysicsObject@@_N@Z = .text:0x00511970; // type:function size:0x20
?Draw@FelledTree@@QAEXXZ = .text:0x00511990; // type:function size:0x80
?CanBecomeAPhysicsObject@DeadTree@@UAEIXZ = .text:0x00511A10; // type:function size:0x10 scope:global
?GetCarriedTreeType@DeadTree@@UAEIXZ = .text:0x00511A20; // type:function size:0xB0 scope:global
?GetWoodValue@DeadTree@@UAEMXZ = .text:0x00511AD0; // type:function size:0x50 scope:global
crt_xc_fn_00511B20 = .text:0x00511B20; // type:function size:0x30
crt_xc_fn_00511B50 = .text:0x00511B50; // type:function size:0x30
crt_xc_fn_00511B80 = .text:0x00511B80; // type:function size:0x1B
fn_00511BA0 = .text:0x00511BA0; // type:function size:0x1D0
?SetMessage@GDebug@@SAXPADZZ = .text:0x00511D80; // type:function size:0x20 scope:global
?SetMessage@GDebug@@SAXGPADZZ = .text:0x00511DA0; // type:function size:0x30 scope:global
fn_00511DD0 = .text:0x00511DD0; // type:function size:0x60
?ClearMessages@GDebug@@QAEXH@Z = .text:0x00511F50; // type:function size:0x50
?GetObjectTypeDebugString@GDebug@@SAPEBDPEAVObject@@@Z = .text:0x00511FA0; // type:function size:0x18C
crt_xc_fn_005122B0 = .text:0x005122B0; // type:function size:0x10
fn_005122C0 = .text:0x005122C0; // type:function size:0x10
crt_xc_fn_00512780 = .text:0x00512780; // type:function size:0x30
??0DialogBoxKeyBinding@@QAE@XZ = .text:0x005127B0; // type:function size:0x20 scope:global
?InitSubDialogs@DialogBoxBase@@QAEXXZ = .text:0x005127D0; // type:function size:0x10 scope:global
?CloseNotification@DialogBoxBase@@QAEXXZ = .text:0x005127E0; // type:function size:0x10 scope:global
?WantsKeyControl@DialogBoxBase@@QAEXXZ = .text:0x005127F0; // type:function size:0x10 scope:global
?WantsMouseControl@DialogBoxBase@@QAEXXZ = .text:0x00512800; // type:function size:0x10 scope:global
?CanESCOut@DialogBoxBase@@QAEXXZ = .text:0x00512810; // type:function size:0x10 scope:global
fn_00512820 = .text:0x00512820; // type:function size:0x10
?Init@DialogBoxKeyBinding@@UAEXIIP6AXHPAVSetupBox@@PAVSetupControl@@HH@Z@Z = .text:0x005129D0; // type:function size:0x1F0 scope:global
?Destroy@DialogBoxKeyBinding@@UAEXXZ = .text:0x00512BC0; // type:function size:0x10 scope:global
?InitControls@DialogBoxKeyBinding@@QAEXXZ = .text:0x00512BD0; // type:function size:0xBA scope:global
crt_xc_fn_005132D0 = .text:0x005132D0; // type:function size:0x10
fn_005132E0 = .text:0x005132E0; // type:function size:0x10
crt_xc_fn_00513320 = .text:0x00513320; // type:function size:0x10
fn_00513330 = .text:0x00513330; // type:function size:0x10
crt_xc_fn_00513370 = .text:0x00513370; // type:function size:0x30
??0DialogBoxBase@@QAE@XZ = .text:0x005133A0; // type:function size:0x20 scope:global
fn_005133C0 = .text:0x005133C0; // type:function size:0x40
?Init@DialogBoxBase@@QAEXIIP6AXHPAVSetupBox@@PAVSetupControl@@HH@Z@Z = .text:0x00513400; // type:function size:0x190 scope:global
?Destroy@DialogBoxBase@@UAEXXZ = .text:0x00513590; // type:function size:0x60 scope:global
?Show@DialogBoxBase@@UAEXXZ = .text:0x005135F0; // type:function size:0x50 scope:global
?Hide@DialogBoxBase@@QAEXXZ = .text:0x00513640; // type:function size:0x40
?UpdateLastShown@DialogBoxBase@@QAEXPAVSetupBox@@@Z = .text:0x00513680; // type:function size:0x2A
?HideAll@DialogBoxBase@@QAEXXZ = .text:0x005136E0; // type:function size:0x90 scope:global
?IsVisible@DialogBoxBase@@QAEXXZ = .text:0x00513770; // type:function size:0x20
crt_xc_fn_00513790 = .text:0x00513790; // type:function size:0x30
crt_xc_fn_005137C0 = .text:0x005137C0; // type:function size:0x1B
crt_xc_fn_005137E0 = .text:0x005137E0; // type:function size:0x30
??0DialogBoxOptions@@QAE@XZ = .text:0x00513810; // type:function size:0x20 scope:global
?CanESCOut@DialogBoxOptions@@UAEIXZ = .text:0x00513830; // type:function size:0x20 scope:global
fn_00513850 = .text:0x00513850; // type:function size:0x10
?Init@DialogBoxOptions@@UAEXIIP6AXHPAVSetupBox@@PAVSetupControl@@HH@Z@Z = .text:0x00513860; // type:function size:0x540 scope:global
?Destroy@DialogBoxOptions@@UAEXXZ = .text:0x00513DA0; // type:function size:0x20 scope:global
?InitControls@DialogBoxOptions@@UAEXXZ = .text:0x00513DC0; // type:function size:0x50 scope:global
fn_00513E10 = .text:0x00513E10; // type:function size:0x90
fn_00513EB0 = .text:0x00513EB0; // type:function size:0xD0
fn_00513F80 = .text:0x00513F80; // type:function size:0x10
fn_00513F90 = .text:0x00513F90; // type:function size:0x80
fn_00514020 = .text:0x00514020; // type:function size:0x8B
?ReadRegistrySettings@DialogBoxOptions@@QAEXXZ = .text:0x00514620; // type:function size:0x28B
??0DialogBoxImmersion@@QAE@XZ = .text:0x005149D0; // type:function size:0x20 scope:global
?SetLevelRadio@DialogBoxImmersion@@QAEXH@Z = .text:0x00514A00; // type:function size:0x80
?Init@DialogBoxImmersion@@UAEXIIP6AXHPAVSetupBox@@PAVSetupControl@@HH@Z@Z = .text:0x00514A80; // type:function size:0x280 scope:global
?Destroy@DialogBoxImmersion@@UAEXXZ = .text:0x00514D70; // type:function size:0x10 scope:global
?InitControls@DialogBoxImmersion@@UAEXXZ = .text:0x00514D80; // type:function size:0x20 scope:global
??0MiniDialogBoxOptions@@QAE@XZ = .text:0x00514F20; // type:function size:0x20 scope:global
fn_00514F45 = .text:0x00514F45; // type:function size:0xB
?Init@MiniDialogBoxOptions@@UAEXIIP6AXHPAVSetupBox@@PAVSetupControl@@HH@Z@Z = .text:0x00514F50; // type:function size:0x5B0 scope:global
fn_00515545 = .text:0x00515545; // type:function size:0x1B
?Destroy@MiniDialogBoxOptions@@UAEXXZ = .text:0x00515680; // type:function size:0x10 scope:global
?InitControls@MiniDialogBoxOptions@@UAEXXZ = .text:0x00515690; // type:function size:0x180 scope:global
?CanESCOut@MiniDialogBoxOptions@@UAEIXZ = .text:0x00515810; // type:function size:0x20 scope:global
crt_xc_fn_00515960 = .text:0x00515960; // type:function size:0x30
??0DialogBoxSaveMessage@@QAE@XZ = .text:0x00515990; // type:function size:0x30 scope:global
fn_005159C0 = .text:0x005159C0; // type:function size:0x10
?Init@DialogBoxSaveMessage@@UAEXIIP6AXHPAVSetupBox@@PAVSetupControl@@HH@Z@Z = .text:0x005159D0; // type:function size:0x1AB scope:global
?Destroy@DialogBoxSaveMessage@@UAEXXZ = .text:0x00515B80; // type:function size:0x10 scope:global
?InitControls@DialogBoxSaveMessage@@QAEXXZ = .text:0x00515B90; // type:function size:0x120
crt_xc_fn_00515E90 = .text:0x00515E90; // type:function size:0x30
crt_xc_fn_00515EC0 = .text:0x00515EC0; // type:function size:0x30
crt_xc_fn_00515EF0 = .text:0x00515EF0; // type:function size:0x1B
crt_xc_fn_00515F10 = .text:0x00515F10; // type:function size:0x30
crt_xc_fn_00515F40 = .text:0x00515F40; // type:function size:0x30
?Draw@Abode@@UAEXXZ = .text:0x00515F70; // type:function size:0x3B0 scope:global
?Draw@Windmill@@UAEXXZ = .text:0x00516320; // type:function size:0x130 scope:global
?Draw@TownCentre@@UAEXXZ = .text:0x00516450; // type:function size:0xBB scope:global
fn_00516510 = .text:0x00516510; // type:function size:0x2C0
fn_005167D0 = .text:0x005167D0; // type:function size:0x70
fn_00516840 = .text:0x00516840; // type:function size:0x2A
?Draw@Ball@@UAEXXZ = .text:0x00516870; // type:function size:0x30 scope:global
?GetCell@LH3DIsland@@SAPAULandCell@@JJ@Z = .text:0x00516AA0; // type:function size:0x60 scope:global
fn_00516B00 = .text:0x00516B00; // type:function size:0x1AA
?DrawCreatureStats@@YAXMMMMH@Z = .text:0x00517265; // type:function size:0x65B
?Draw@Creature@@UAEXXZ = .text:0x00517910; // type:function size:0x600 scope:global
?Draw@Rock@@UAEXXZ = .text:0x00517F10; // type:function size:0x4B scope:global
?Draw@MobileStatic@@UAEXXZ = .text:0x00517F60; // type:function size:0x30 scope:global
?DrawBuilding@MultiMapFixed@@QAEXPAVGame3DObject@@@Z = .text:0x00517F90; // type:function size:0xC0
fn_00518050 = .text:0x00518050; // type:function size:0x40
?Draw@MultiMapFixed@@UAEXXZ = .text:0x00518090; // type:function size:0x70 scope:global
?Draw@SingleMapFixed@@UAEXXZ = .text:0x00518100; // type:function size:0x4B scope:global
?Draw@MobileObject@@UAEXXZ = .text:0x00518150; // type:function size:0x4B scope:global
?DrawInHand@Scaffold@@UAEXPAVGInterfaceStatus@@@Z = .text:0x005181A0; // type:function size:0x4A0 scope:global
fn_00518640 = .text:0x00518640; // type:function size:0x50
?Draw@Feature@@UAEXXZ = .text:0x00518690; // type:function size:0x10 scope:global
?Draw@Creed@@UAEXXZ = .text:0x005186A0; // type:function size:0x2A scope:global
?DrawOutOfMap@Creed@@UAEX_N@Z = .text:0x005186D0; // type:function size:0x40 scope:global
?Draw@SpellSeed@@UAEXXZ = .text:0x00518710; // type:function size:0x10 scope:global
fn_00518720 = .text:0x00518720; // type:function size:0x470
fn_00518B90 = .text:0x00518B90; // type:function size:0x5B
fn_00518BF0 = .text:0x00518BF0; // type:function size:0x50
?DrawOutOfMap@OneOffSpellSeed@@UAEX_N@Z = .text:0x00518C50; // type:function size:0x240 scope:global
?Draw@OneOffSpellSeed@@UAEXXZ = .text:0x00518E90; // type:function size:0x210 scope:global
?DrawOutOfMap@SpellSeed@@UAEX_N@Z = .text:0x005190A0; // type:function size:0x40 scope:global
?DrawInHand@Object@@UAEXPAVGInterfaceStatus@@@Z = .text:0x005190E0; // type:function size:0x240 scope:global
fn_00519320 = .text:0x00519320; // type:function size:0x30
?Draw@StoragePit@@UAEXXZ = .text:0x00519350; // type:function size:0x10 scope:global
?Draw@WorshipTotem@@UAEXXZ = .text:0x00519360; // type:function size:0x70 scope:global
?Draw@WorshipSite@@UAEXXZ = .text:0x005193D0; // type:function size:0x26A scope:global
?Draw@TownCentreSpellIcon@@UAEXXZ = .text:0x00519640; // type:function size:0x10 scope:global
?Draw@SpellIcon@@UAEXXZ = .text:0x00519650; // type:function size:0x2A0 scope:global
fn_005198F0 = .text:0x005198F0; // type:function size:0x70
?SendInvisibleDrawCollision@GInterface@@QAEXPAVObject@@PAVLHPoint@@M@Z = .text:0x00519960; // type:function size:0x170
?DrawSpellGraphic@SpellSeedGraphic@@QAEXPAVObject@@_N1E@Z = .text:0x00519AD0; // type:function size:0xD36
fn_0051A830 = .text:0x0051A830; // type:function size:0x360
?Draw@Totem@@UAEXXZ = .text:0x0051ABA0; // type:function size:0x31A scope:global
?Draw@Living@@UAEXXZ = .text:0x0051AEC0; // type:function size:0x40 scope:global
fn_0051AF00 = .text:0x0051AF00; // type:function size:0x320
fn_0051B220 = .text:0x0051B220; // type:function size:0x1B0
fn_0051B3D0 = .text:0x0051B3D0; // type:function size:0xD0
?DrawVillagerInfo@Villager@@UAEIXZ = .text:0x0051B510; // type:function size:0x430 scope:global
?Draw@Villager@@UAEXXZ = .text:0x0051B940; // type:function size:0x1B0 scope:global
fn_0051BAF0 = .text:0x0051BAF0; // type:function size:0x60
?GetPoisonSpecular@Pot@@QAEXXZ = .text:0x0051BB50; // type:function size:0x10
?GetFireEffect@Object@@QAEXXZ = .text:0x0051BB60; // type:function size:0x10
?Draw@Pot@@UAEXXZ = .text:0x0051BB70; // type:function size:0x50 scope:global
?DrawOutOfMap@Pot@@UAEX_N@Z = .text:0x0051BBC0; // type:function size:0x80 scope:global
?Draw@PileWood@@UAEXXZ = .text:0x0051BC40; // type:function size:0x340 scope:global
?Draw@PileFood@@UAEXXZ = .text:0x0051BF80; // type:function size:0x38B scope:global
?Draw@Animal@@UAEXXZ = .text:0x0051C310; // type:function size:0x24A scope:global
?Draw@SpellWolf@@UAEXXZ = .text:0x0051C560; // type:function size:0x2C0 scope:global
?DrawOutOfMap@Object@@UAEX_N@Z = .text:0x0051C820; // type:function size:0xC0 scope:global
?Draw@TownArtifact@@QAEXXZ = .text:0x0051C8E0; // type:function size:0x130
?Draw@Workshop@@UAEXXZ = .text:0x0051CBF0; // type:function size:0x90 scope:global
crt_xc_fn_0051CC80 = .text:0x0051CC80; // type:function size:0x30
crt_xc_fn_0051CCB0 = .text:0x0051CCB0; // type:function size:0x30
crt_xc_fn_0051CCE0 = .text:0x0051CCE0; // type:function size:0x1B
?ProcessTurn@AnimEdit@@UAEHXZ = .text:0x0051CDE0; // type:function size:0x680 scope:global
?Display@AnimEdit@@UAEXXZ = .text:0x0051D460; // type:function size:0x880 scope:global
fn_0051DD60 = .text:0x0051DD60; // type:function size:0xC0
?PrssKey@AnimEdit@@UAEXW4LH_KEY@@G@Z = .text:0x0051DE20; // type:function size:0x4FA scope:global
?ClickFunction@AnimEdit@@UAEXHHH@Z = .text:0x0051E370; // type:function size:0xA0 scope:global
fn_0051E500 = .text:0x0051E500; // type:function size:0x4CD
fn_0051EA10 = .text:0x0051EA10; // type:function size:0x60
fn_0051ED60 = .text:0x0051ED60; // type:function size:0x40
crt_xc_fn_0051EDA0 = .text:0x0051EDA0; // type:function size:0x30
crt_xc_fn_0051EDD0 = .text:0x0051EDD0; // type:function size:0x30
crt_xc_fn_0051EE00 = .text:0x0051EE00; // type:function size:0x30
crt_xc_fn_0051EE30 = .text:0x0051EE30; // type:function size:0x30
crt_xc_fn_0051EE60 = .text:0x0051EE60; // type:function size:0x30
crt_xc_fn_0051EE90 = .text:0x0051EE90; // type:function size:0x30
crt_xc_fn_0051EEC0 = .text:0x0051EEC0; // type:function size:0x10
fn_0051EED0 = .text:0x0051EED0; // type:function size:0xAB
?ProcessTurn@EditorHug@@UAEHXZ = .text:0x0051F180; // type:function size:0x80 scope:global
?Display@EditorHug@@UAEXXZ = .text:0x0051F200; // type:function size:0x1B0 scope:global
?PrssMouse@EditorHug@@UAEXPAUMouseInput@@@Z = .text:0x0051F3B0; // type:function size:0x200 scope:global
?ClickFunction@EditorHug@@UAEXHHH@Z = .text:0x0051F5B0; // type:function size:0x10 scope:global
fn_0051F5C0 = .text:0x0051F5C0; // type:function size:0x2A
fn_0051F5F0 = .text:0x0051F5F0; // type:function size:0x10
fn_0051F600 = .text:0x0051F600; // type:function size:0x40
fn_0051FA80 = .text:0x0051FA80; // type:function size:0x50
fn_0051FAD0 = .text:0x0051FAD0; // type:function size:0x20
crt_xc_fn_0051FAF0 = .text:0x0051FAF0; // type:function size:0x30
fn_0051FB20 = .text:0x0051FB20; // type:function size:0x5B
fn_0051FB80 = .text:0x0051FB80; // type:function size:0x60
fn_0051FBE0 = .text:0x0051FBE0; // type:function size:0x10
fn_0051FBF0 = .text:0x0051FBF0; // type:function size:0x80
?SetG3DObject@EditorIconShow@@QAEXVMESH_LIST@@H@Z = .text:0x0051FC70; // type:function size:0xC0
fn_0051FD30 = .text:0x0051FD30; // type:function size:0x40
fn_0051FD70 = .text:0x0051FD70; // type:function size:0x20
fn_0051FD90 = .text:0x0051FD90; // type:function size:0xA0
EditorIconShow_vfunc1 = .text:0x0051FE30; // type:function size:0x70
?Draw@EditorIconShow@@QAEXH@Z = .text:0x0051FEA0; // type:function size:0x60
?SetRegion@EditorIconShow@@QAEXAAVEditorIconPlace@@@Z = .text:0x0051FF00; // type:function size:0x40
?MakeActive@EditorIconShow@@QAEXXZ = .text:0x0051FF40; // type:function size:0x80
fn_0051FFC0 = .text:0x0051FFC0; // type:function size:0x40
fn_00520000 = .text:0x00520000; // type:label size:0x70
EditorIconBool_vfunc19 = .text:0x00520070; // type:function size:0x10
EditorIconBool_vfunc20 = .text:0x00520080; // type:function size:0x10
EditorIconBool_vfunc3 = .text:0x00520090; // type:function size:0x1B
fn_005200B0 = .text:0x005200B0; // type:function size:0xA0
fn_00520150 = .text:0x00520150; // type:function size:0x30
fn_00520180 = .text:0x00520180; // type:function size:0x80
EditorIconBool_vfunc1 = .text:0x00520200; // type:function size:0x70
EditorIconBool_vfunc2 = .text:0x00520270; // type:function size:0x10
EditorIconBool_vfunc13 = .text:0x00520280; // type:function size:0x30
?GetTextColor@EditorIconBase@@UAIPAULH3DColor@@XZ = .text:0x00520300; // type:function size:0x10 scope:global
?GetActiveColor@EditorIconBase@@UAIPAULH3DColor@@XZ = .text:0x00520310; // type:function size:0x10 scope:global
?GetInactiveColor@EditorIconBase@@UAIPAULH3DColor@@XZ = .text:0x00520320; // type:function size:0x10 scope:global
EditorIconTextBox_vfunc3 = .text:0x00520330; // type:function size:0x10
EditorIconTextBox_vfunc0 = .text:0x00520340; // type:function size:0x10
EditorIconTextBox_vfunc1 = .text:0x00520350; // type:function size:0x10
EditorIconTextBox_vfunc13 = .text:0x00520360; // type:function size:0x10
EditorIconTextBox_vfunc2 = .text:0x00520370; // type:function size:0x20
?GetText@EditorIconBase@@UAIPADXZ = .text:0x005203E0; // type:function size:0x10 scope:global
EditorIconRequester_vfunc0 = .text:0x005203F0; // type:function size:0x10
?GetTextRegion@EditorIconBase@@QAEXXZ = .text:0x00520400; // type:function size:0x10
EditorIconRequester_vfunc3 = .text:0x00520410; // type:function size:0x10
EditorIconRequester_vfunc1 = .text:0x005206C0; // type:function size:0x50
EditorIconRequester_vfunc2 = .text:0x00520710; // type:function size:0x60
EditorIconEditBox_vfunc1 = .text:0x00520890; // type:function size:0x90
EditorIconEditBox_vfunc2 = .text:0x00520920; // type:function size:0x80
crt_xc_fn_005209A0 = .text:0x005209A0; // type:function size:0x30
crt_xc_fn_005209D0 = .text:0x005209D0; // type:function size:0x30
crt_xc_fn_00520A00 = .text:0x00520A00; // type:function size:0x30
crt_xc_fn_00520A30 = .text:0x00520A30; // type:function size:0x30
crt_xc_fn_00520A60 = .text:0x00520A60; // type:function size:0x30
crt_xc_fn_00520A90 = .text:0x00520A90; // type:function size:0x20
crt_xc_fn_00520AB0 = .text:0x00520AB0; // type:function size:0x20
crt_xc_fn_00520AD0 = .text:0x00520AD0; // type:function size:0x20
fn_00520AF0 = .text:0x00520AF0; // type:function size:0x20
?DrawBox@EditorIconBase@@UAIXH@Z = .text:0x00520B10; // type:function size:0x50 scope:global
?DrawBox@EditorIconBase@@QAEXPAVLHRegion@@PAVLH3DColor@@EH@Z = .text:0x00520B60; // type:function size:0x2A
?DrawTextA@EditorIconBase@@QAEXAAVLHRegion@@PBDHPAVLH3DColor@@PAV3@PAVGatheringText@@@Z = .text:0x00520B90; // type:function size:0x2E0
fn_00520E70 = .text:0x00520E70; // type:function size:0x90
?DrawTextString@EditorIconBase@@UAIIPAULH3DColor@@PAULHRegion@@@Z = .text:0x00520F00; // type:function size:0x50 scope:global
?DrawBubbleBox@EditorIconBase@@UAIXXZ = .text:0x00520F50; // type:function size:0x3A scope:global
?DrawBubbleBox@EditorIconBase@@QAEXPAVLHRegion@@PAVLH3DColor@@@Z = .text:0x00520F90; // type:function size:0x50
?DrawOutlineBox@EditorIconBase@@SAXPAULHRegion@@PAULH3DColor@@@Z = .text:0x00520FE0; // type:function size:0xF0 scope:global
crt_xc_fn_005210D0 = .text:0x005210D0; // type:function size:0x1B
crt_xc_fn_005210F0 = .text:0x005210F0; // type:function size:0x30
crt_xc_fn_00521120 = .text:0x00521120; // type:function size:0x10
fn_00521130 = .text:0x00521130; // type:function size:0x10
EditorIconGraph_vfunc0 = .text:0x00521360; // type:function size:0x10
EditorIconGraph_vfunc1 = .text:0x005213F0; // type:function size:0x20
EditorIconGraph_vfunc2 = .text:0x00521410; // type:function size:0x20
fn_00521A90 = .text:0x00521A90; // type:function size:0x5A
EditorIconGraph_vfunc3 = .text:0x00521B10; // type:function size:0x10
crt_xc_fn_00522060 = .text:0x00522060; // type:function size:0x30
crt_xc_fn_00522090 = .text:0x00522090; // type:function size:0x1B
crt_xc_fn_005220B0 = .text:0x005220B0; // type:function size:0x30
fn_005220E0 = .text:0x005220E0; // type:function size:0xC0
EditorIconPDM_vfunc5 = .text:0x005221A0; // type:function size:0x10
EditorIconPDM_vfunc21 = .text:0x005221B0; // type:function size:0x20
fn_005221D0 = .text:0x005221D0; // type:function size:0x90
EditorIconPDM_vfunc2 = .text:0x00522260; // type:function size:0x6A
EditorIconPDM_vfunc1 = .text:0x005222D0; // type:function size:0x60
fn_00522330 = .text:0x00522330; // type:function size:0x70
fn_005223A0 = .text:0x005223A0; // type:function size:0x3B
EditorIconPDM_vfunc17 = .text:0x005223E0; // type:function size:0x100
fn_005224E0 = .text:0x005224E0; // type:function size:0x50
EditorIconPDM_vfunc22 = .text:0x00522610; // type:function size:0x40
fn_00522650 = .text:0x00522650; // type:function size:0x90
fn_00522800 = .text:0x00522800; // type:function size:0x70
crt_xc_fn_00522940 = .text:0x00522940; // type:function size:0x30
crt_xc_fn_00522970 = .text:0x00522970; // type:function size:0x1B
crt_xc_fn_00522990 = .text:0x00522990; // type:function size:0x30
fn_005229C0 = .text:0x005229C0; // type:function size:0x20
fn_005229E0 = .text:0x005229E0; // type:function size:0x1A
fn_00522A00 = .text:0x00522A00; // type:function size:0x160
fn_00522B60 = .text:0x00522B60; // type:function size:0x150
fn_00522CB0 = .text:0x00522CB0; // type:function size:0x10
fn_00522CC0 = .text:0x00522CC0; // type:function
fn_00522CD0 = .text:0x00522CD0; // type:function
?$EditorIconSlider_K_vfunc2 = .text:0x00522CF0; // type:function size:0x60
?$EditorIconSlider_K_vfunc1 = .text:0x00522D50; // type:function size:0x360
?$EditorIconSlider_K_vfunc20 = .text:0x005230B0; // type:function size:0x330
?$EditorIconSlider_K_vfunc19 = .text:0x005233E0; // type:function size:0x10
?$EditorIconSlider_K_vfunc13 = .text:0x005233F0; // type:function size:0x30
fn_00523420 = .text:0x00523420; // type:function size:0x2E0
fn_00523700 = .text:0x00523700; // type:function size:0x3B
fn_00523740 = .text:0x00523740; // type:function size:0x60
fn_005237A0 = .text:0x005237A0; // type:function size:0x2B
crt_xc_fn_005237D0 = .text:0x005237D0; // type:function size:0x30
fn_00523800 = .text:0x00523800; // type:function size:0x5A
PDMStrip_vfunc0 = .text:0x00523860; // type:function size:0x10
PDMStrip_vfunc3 = .text:0x00523870; // type:function size:0x10
PDMStrip_vfunc10 = .text:0x00523880; // type:function size:0x10
PDMStrip_vfunc11 = .text:0x00523890; // type:function size:0x10
PDMStrip_vfunc14 = .text:0x005238A0; // type:function size:0x10
fn_00523910 = .text:0x00523910; // type:function size:0x70
fn_00523980 = .text:0x00523980; // type:function size:0x130
PDMStrip_vfunc1 = .text:0x00523AB0; // type:function size:0xD0
fn_00523B80 = .text:0x00523B80; // type:function size:0x50
PDMStrip_vfunc2 = .text:0x00523BD0; // type:function size:0x150
PDMStrip_vfunc8 = .text:0x00523D80; // type:function size:0x10
fn_00523D90 = .text:0x00523D90; // type:function size:0xB0
fn_00523E40 = .text:0x00523E40; // type:function size:0x40
fn_00523E80 = .text:0x00523E80; // type:function size:0x50
PDMStrip_vfunc17 = .text:0x00523ED0; // type:function size:0x40
fn_00523F10 = .text:0x00523F10; // type:function size:0x50
fn_00523FB0 = .text:0x00523FB0; // type:function size:0x60
fn_00524010 = .text:0x00524010; // type:function size:0x10
fn_005240F0 = .text:0x005240F0; // type:function size:0x3F0
fn_005244E0 = .text:0x005244E0; // type:function size:0x67
fn_00524547 = .text:0x00524547; // type:function size:0x39
crt_xc_fn_00524650 = .text:0x00524650; // type:function size:0x30
crt_xc_fn_00524680 = .text:0x00524680; // type:function size:0x30
crt_xc_fn_005246B0 = .text:0x005246B0; // type:function size:0x30
crt_xc_fn_005246E0 = .text:0x005246E0; // type:function size:0x30
crt_xc_fn_00524710 = .text:0x00524710; // type:function size:0x30
?Load@EditorPhysics@@QAEXXZ = .text:0x005249D0; // type:function size:0x180
crt_xc_fn_00524C10 = .text:0x00524C10; // type:function size:0x30
crt_xc_fn_00524C40 = .text:0x00524C40; // type:function size:0x30
crt_xc_fn_00524C70 = .text:0x00524C70; // type:function size:0x30
crt_xc_fn_00524CA0 = .text:0x00524CA0; // type:function size:0x30
crt_xc_fn_00524CD0 = .text:0x00524CD0; // type:function size:0x30
crt_xc_fn_00524D00 = .text:0x00524D00; // type:function size:0x30
crt_xc_fn_00524D30 = .text:0x00524D30; // type:function size:0x10
??0GEffectInfo@@QAE@XZ = .text:0x00524D40; // type:function size:0x30 scope:global
?GetBaseInfo@GEffectInfo@@UAEPAVGBaseInfo@@AAI@Z = .text:0x00524D70; // type:function size:0x20 scope:global
??_GGEffectInfo@@UAEPAXI@Z = .text:0x00524DD0; // type:function size:0x20 scope:global
crt_xc_fn_00524DF0 = .text:0x00524DF0; // type:function size:0x10
??0GMagicEffectInfo@@QAE@XZ = .text:0x00524E00; // type:function size:0x30 scope:global
?GetBaseInfo@GMagicEffectInfo@@UAEPAVGBaseInfo@@AAI@Z = .text:0x00524E30; // type:function size:0x20 scope:global
??_GGMagicEffectInfo@@UAEPAXI@Z = .text:0x00524EA0; // type:function size:0x30 scope:global
fn_00524ED0 = .text:0x00524ED0; // type:function size:0x10
fn_00524EF0 = .text:0x00524EF0; // type:function size:0x50
??_GEffectValues@@UAEPAXI@Z = .text:0x00524F40; // type:function size:0x20 scope:global
??0EffectValues@@QAE@W4EFFECT_TYPE@@PAVGameThing@@PAVGPlayer@@@Z = .text:0x00524FE0; // type:function size:0x60 scope:global
??0EffectValues@@QAE@W4EFFECT_TYPE@@MPAVGameThing@@MPAVGPlayer@@@Z = .text:0x00525040; // type:function size:0x60 scope:global
fn_005250A0 = .text:0x005250A0; // type:function size:0x30
fn_005250D0 = .text:0x005250D0; // type:function size:0x30
fn_00525100 = .text:0x00525100; // type:function size:0x152
fn_00525252 = .text:0x00525252; // type:label size:0x1
fn_00525345 = .text:0x00525345; // type:function size:0xD8
fn_0052544E = .text:0x0052544E; // type:function size:0x42
fn_00525490 = .text:0x00525490; // type:function size:0x30
fn_005254C0 = .text:0x005254C0; // type:function size:0x40
fn_00525500 = .text:0x00525500; // type:function size:0x30
fn_0052554F = .text:0x0052554F; // type:function size:0x11B
fn_00525670 = .text:0x00525670; // type:function size:0x2
fn_00525672 = .text:0x00525672; // type:label size:0x2E
fn_005256C0 = .text:0x005256C0; // type:function size:0xA
fn_005256D0 = .text:0x005256D0; // type:function size:0x30
??XEffectNumbers@@QAEAAU0@ABM@Z = .text:0x00525720; // type:function size:0x1A scope:global
fn_005258C0 = .text:0x005258C0; // type:function size:0x50
?GetCausedPlayer@EffectValues@@QBEXXZ = .text:0x00525910; // type:function size:0x20
??_0EffectValues@@QAEAAV0@ABM@Z = .text:0x00525950; // type:function size:0x20 scope:global
crt_xc_fn_00525970 = .text:0x00525970; // type:function size:0x30
crt_xc_fn_005259A0 = .text:0x005259A0; // type:function size:0x30
fn_005259D0 = .text:0x005259D0; // type:function size:0x70
fn_00525A40 = .text:0x00525A40; // type:function size:0x140
fn_00525B80 = .text:0x00525B80; // type:function size:0x9A
crt_xc_fn_00525C20 = .text:0x00525C20; // type:function size:0x30
crt_xc_fn_00525C50 = .text:0x00525C50; // type:function size:0x30
crt_xc_fn_00525C80 = .text:0x00525C80; // type:function size:0x30
crt_xc_fn_00525CB0 = .text:0x00525CB0; // type:function size:0x1B
?GetAltitude@CreatureFalling@@QAEXABVLHPoint@@@Z = .text:0x00526490; // type:function size:0x10
fn_005264A0 = .text:0x005264A0; // type:function size:0x90
?Draw@FallingSpell@@QAEXXZ = .text:0x005267D0; // type:function size:0x630
fn_00527250 = .text:0x00527250; // type:function size:0xB
crt_xc_fn_00527260 = .text:0x00527260; // type:function size:0x30
crt_xc_fn_00527290 = .text:0x00527290; // type:function size:0x10
fn_005272A0 = .text:0x005272A0; // type:function size:0x30
??_GGFeatureInfo@@UAEPAXI@Z = .text:0x00527320; // type:function size:0x30 scope:global
fn_00527350 = .text:0x00527350; // type:function size:0x60
?GetPlayer@ChessPion@@UAEPAVGPlayer@@XZ = .text:0x005273B0; // type:function size:0x20 scope:global
?ConvertToPlanned@ChessMad@@UAEPAVPlannedMultiMapFixed@@XZ = .text:0x005273D0; // type:function size:0x70 scope:global
?GetInfo@Feature@@QBEXXZ = .text:0x00527440; // type:function size:0x40
?GetSaveType@PlannedFeature@@UAEIXZ = .text:0x00527480; // type:function size:0x10 scope:global
?GetDebugText@PlannedFeature@@UAEPADXZ = .text:0x00527490; // type:function size:0x10 scope:global
??_GPlannedFeature@@UAEPAXI@Z = .text:0x005274A0; // type:function size:0x20 scope:global
fn_005274C0 = .text:0x005274C0; // type:function size:0x10
?CreatePlanned@PlannedFeature@@UAEPAVMultiMapFixed@@M@Z = .text:0x005274D0; // type:function size:0x7B scope:global
?Save@PlannedFeature@@UAEIAAVGameOSFile@@@Z = .text:0x00527550; // type:function size:0x30 scope:global
?Load@PlannedFeature@@UAEIAAVGameOSFile@@@Z = .text:0x00527580; // type:function size:0x30 scope:global
?SaveObject@Feature@@UAEIAAULHOSFile@@ABUMapCoords@@@Z = .text:0x005275B0; // type:function size:0x110 scope:global
?GetScriptObjectType@Feature@@UAEIXZ = .text:0x005276C0; // type:function size:0x10 scope:global
?IsMushroom@Feature@@UAEIPAVCreature@@@Z = .text:0x005276D0; // type:function size:0x30 scope:global
fn_00527700 = .text:0x00527700; // type:function size:0x10
fn_00527710 = .text:0x00527710; // type:function size:0x30
?IsDrawBuilding@WorshipSiteUpgrade@@UAEIXZ = .text:0x00527790; // type:function size:0x40 scope:global
?GetQueryFirstEnumText@Feature@@UAE?AW4HELP_TEXT@@XZ = .text:0x005277D0; // type:function size:0x4B scope:global
?GetQueryLastEnumText@Feature@@UAE?AW4HELP_TEXT@@XZ = .text:0x00527820; // type:function size:0x4B scope:global
crt_xc_fn_00527870 = .text:0x00527870; // type:function size:0x10
fn_00527880 = .text:0x00527880; // type:function size:0x30
?GetMesh@GFlowersInfo@@UBEIXZ = .text:0x005278B0; // type:function size:0x10 scope:global
??_GGFlowersInfo@@UAEPAXI@Z = .text:0x00527910; // type:function size:0x30 scope:global
?Get3DType@Flowers@@UAE?AW4LH3DObject__ObjectType@@XZ = .text:0x00527980; // type:function size:0x10 scope:global
?GetSaveType@Flowers@@UAEIXZ = .text:0x00527990; // type:function size:0x10 scope:global
?GetDebugText@Flowers@@UAEPADXZ = .text:0x005279A0; // type:function size:0x10 scope:global
??_GFlowers@@UAEPAXI@Z = .text:0x005279B0; // type:function size:0x30 scope:global
?CallVirtualFunctionsForCreation@Flowers@@UAEXABUMapCoords@@@Z = .text:0x00527A30; // type:function size:0x50 scope:global
?SaveObject@Flowers@@UAEIAAULHOSFile@@ABUMapCoords@@@Z = .text:0x00527A80; // type:function size:0x100 scope:global
crt_xc_fn_00527B80 = .text:0x00527B80; // type:function size:0x30
crt_xc_fn_00527BB0 = .text:0x00527BB0; // type:function size:0x30
crt_xc_fn_00527BE0 = .text:0x00527BE0; // type:function size:0x30
crt_xc_fn_00527C10 = .text:0x00527C10; // type:function size:0x1B
crt_xc_fn_00527C30 = .text:0x00527C30; // type:function size:0x10
fn_00527C40 = .text:0x00527C40; // type:function size:0x30
??_GGFieldInfo@@UAEPAXI@Z = .text:0x00527CC0; // type:function size:0x30 scope:global
crt_xc_fn_00527CF0 = .text:0x00527CF0; // type:function size:0x10
fn_00527D00 = .text:0x00527D00; // type:function size:0x30
?GetBaseInfo@GFieldTypeInfo@@UAEPAVGBaseInfo@@AAI@Z = .text:0x00527D30; // type:function size:0x20 scope:global
??_GGFieldTypeInfo@@UAEPAXI@Z = .text:0x00527DA0; // type:function size:0x30 scope:global
??0Field@@QAE@ABVMapCoords@@PBVGFieldTypeInfo@@PBVGAbodeInfo@@PAVTown@@MMH@Z = .text:0x00527DD0; // type:function size:0x140 scope:global
?ConvertToPlanned@Field@@QAEXXZ = .text:0x00527F10; // type:function size:0x10
?GetCreatureBeliefType@Field@@UAEIXZ = .text:0x00527F20; // type:function size:0x10 scope:global
?IsField@Field@@UAEIPAVCreature@@@Z = .text:0x00527F30; // type:function size:0x10 scope:global
?IsField@Field@@UAEIXZ = .text:0x00527F40; // type:function size:0x10 scope:global
?BenefitsFromHavingWaterSprinkledOnIt@Field@@UAEIPAVCreature@@@Z = .text:0x00527F50; // type:function size:0x10 scope:global
?CanBePoodOn@Field@@UAEIPAVCreature@@@Z = .text:0x00527F60; // type:function size:0x10 scope:global
?CanBePickedUpByCreature@Field@@UAEIPAVCreature@@@Z = .text:0x00527F70; // type:function size:0x10 scope:global
?CanBeStompedOnByCreature@Field@@UAEIPAVCreature@@@Z = .text:0x00527F80; // type:function size:0x10 scope:global
?CanBeGivenToVillager@Field@@UAEIPAVCreature@@@Z = .text:0x00527F90; // type:function size:0x10 scope:global
?CanBePutInAStoragePit@Field@@UAEIPAVCreature@@@Z = .text:0x00527FA0; // type:function size:0x10 scope:global
?CanBeDestroyedByStoning@Field@@UAEIPAVCreature@@@Z = .text:0x00527FB0; // type:function size:0x10 scope:global
?CanBeExaminedByCreature@Field@@UAEIPAVCreature@@@Z = .text:0x00527FC0; // type:function size:0x10 scope:global
?CanBeEatenByCreature@Field@@UAEIPAVCreature@@@Z = .text:0x00527FD0; // type:function size:0x10 scope:global
?CanBeSleptNextToByCreature@Field@@UAEIPAVCreature@@@Z = .text:0x00527FE0; // type:function size:0x10 scope:global
?IsBeingBuilt@Field@@UAEIPAVCreature@@@Z = .text:0x00527FF0; // type:function size:0x10 scope:global
?NeedsRepair@Field@@UAEIPAVCreature@@@Z = .text:0x00528000; // type:function size:0x10 scope:global
?GetResourceType@Field@@UAE?AW4RESOURCE_TYPE@@XZ = .text:0x00528010; // type:function size:0x10 scope:global
?InteractsWithPhysicsObjects@Field@@UAEIXZ = .text:0x00528020; // type:function size:0x10 scope:global
?CanBecomeAPhysicsObject@Field@@UAEIXZ = .text:0x00528030; // type:function size:0x10 scope:global
?IsTuggable@Field@@UAEIXZ = .text:0x00528040; // type:function size:0x10 scope:global
?IsLockedInInteract@Field@@UAEIXZ = .text:0x00528050; // type:function size:0x10 scope:global
?CanBeHiddenIn@Field@@QAEXXZ = .text:0x00528060; // type:function size:0x10
?GetSaveType@Field@@UAEIXZ = .text:0x00528070; // type:function size:0x10 scope:global
?GetDebugText@Field@@UAEPADXZ = .text:0x00528080; // type:function size:0x10 scope:global
??_GField@@UAEPAXI@Z = .text:0x00528090; // type:function size:0x30 scope:global
?CreatureMustAvoid@Field@@UAE_NPAVCreature@@@Z = .text:0x005280C0; // type:function size:0x30 scope:global
?ToBeDeleted@Field@@UAEXH@Z = .text:0x005280F0; // type:function size:0x10 scope:global
?DeleteDependancys@Field@@QAEXXZ = .text:0x00528100; // type:function size:0x180
?Create@Field@@SAPAV1@ABUMapCoords@@PBVGAbodeInfo@@PAVTown@@MMIIMHH@Z = .text:0x00528280; // type:function size:0xC0 scope:global
fn_00528340 = .text:0x00528340; // type:function size:0xA0
?AddFarmer@Field@@QAEXPAVVillager@@@Z = .text:0x005283E0; // type:function size:0x4B
crt_xc_fn_00528430 = .text:0x00528430; // type:function size:0x30
crt_xc_fn_00528460 = .text:0x00528460; // type:function size:0x30
crt_xc_fn_00528490 = .text:0x00528490; // type:function size:0x30
?BlendColor@@YAXHPAVLH3DColor@@PAV0@@Z = .text:0x005284C0; // type:function size:0xB0
?Draw@Field@@UAEXXZ = .text:0x00528570; // type:function size:0x360 scope:global
?GetFireGPHXDrawn@Field@@UAEXPA_N000@Z = .text:0x005288D0; // type:function size:0x30 scope:global
?IsEffectReceiver@Field@@UAEIPAVEffectValues@@@Z = .text:0x00528900; // type:function size:0x40 scope:global
?GetPlayer@Field@@UAEPAVGPlayer@@XZ = .text:0x00528940; // type:function size:0x20 scope:global
?GetTown@Field@@UAEPAVTown@@XZ = .text:0x00528960; // type:function size:0x10 scope:global
fn_00528970 = .text:0x00528970; // type:function size:0xC0
?GetMeshRadius@Field@@UBEMXZ = .text:0x00528A30; // type:function size:0x10 scope:global
?CallVirtualFunctionsForCreation@Field@@UAEXABUMapCoords@@@Z = .text:0x00528A40; // type:function size:0x130 scope:global
fn_00528B70 = .text:0x00528B70; // type:function size:0x10
?GetDoorPos@Field@@UAEPAUMapCoords@@PAU2@@Z = .text:0x00528C80; // type:function size:0x20 scope:global
fn_00528CA0 = .text:0x00528CA0; // type:function size:0x10
?SaveObject@Field@@UAEIAAULHOSFile@@ABUMapCoords@@@Z = .text:0x00528CE0; // type:function size:0x170 scope:global
?IsOkToCreateAtPos@GFieldTypeInfo@@UBE_NABUMapCoords@@MM@Z = .text:0x00528E50; // type:function size:0x30 scope:global
?Get2DRadius@Field@@UAEMXZ = .text:0x00528E80; // type:function size:0x10 scope:global
?ValidForPlaceInHand@Field@@UAEIPAVGInterfaceStatus@@@Z = .text:0x00528EF0; // type:function size:0x40 scope:global
?ApplyWaterSpell@Field@@UAEMPAVSpellWater@@@Z = .text:0x00528F30; // type:function size:0xEA scope:global
?Process@Field@@UAEIXZ = .text:0x00529020; // type:function size:0x180 scope:global
?PlantCrop@Field@@QAEIABUMapCoords@@@Z = .text:0x005291A0; // type:function size:0x50 scope:global
?GetPlantCropPos@Field@@QAEIXZ = .text:0x00529210; // type:function size:0x30 scope:global
fn_00529240 = .text:0x00529240; // type:function size:0x50
?IsTouching@Field@@UBE_NPAUMapCoords@@@Z = .text:0x00529290; // type:function size:0xA0 scope:global
?GetArrivePos@Field@@UAEPAUMapCoords@@PAU2@@Z = .text:0x00529330; // type:function size:0x20 scope:global
?GetFieldActivity@Field@@QAEHH@Z = .text:0x00529350; // type:function size:0x50 scope:global
?GetDesireToBeFarmed@Field@@QAEXXZ = .text:0x005293A0; // type:function size:0x110
?GetPercentFull@Field@@QAEMXZ = .text:0x00529500; // type:function size:0x20 scope:global
?InterfaceSetInMagicHand@Field@@UAEIPAVGInterfaceStatus@@@Z = .text:0x00529520; // type:function size:0x80 scope:global
?RemoveFood@Field@@QAEMM@Z = .text:0x005295A0; // type:function size:0x160 scope:global
?GetFoodValue@Field@@QAEMXZ = .text:0x00529700; // type:function size:0x30 scope:global
?ProcessInInteract@Field@@UAEIPAVGInterfaceStatus@@@Z = .text:0x00529730; // type:function size:0x19B scope:global
?IsUnripe@Field@@QAEXXZ = .text:0x005298D0; // type:function size:0x30
?NetworkFriendlyStartLockedSelect@Field@@UAE_NPAVGInterfaceStatus@@@Z = .text:0x00529900; // type:function size:0xDB scope:global
?ValidForLockedSelectProcess@Field@@UAE_NPAVGInterfaceStatus@@@Z = .text:0x005299E0; // type:function size:0x40 scope:global
?NetworkUnfriendlyLockedSelect@Field@@UAEIPAUControlHandUpdateInfo@@@Z = .text:0x00529A20; // type:function size:0x40 scope:global
?NetworkUnfriendlyEndLockedSelect@Field@@UAEIXZ = .text:0x00529A60; // type:function size:0x8A scope:global
?NetworkFriendlyEndLockedSelect@Field@@UAEIPAVGInterfaceStatus@@@Z = .text:0x00529AF0; // type:function size:0x20 scope:global
?Save@Field@@UAEIAAVGameOSFile@@@Z = .text:0x00529B10; // type:function size:0x250 scope:global
?Load@Field@@UAEIAAVGameOSFile@@@Z = .text:0x00529D60; // type:function size:0x250 scope:global
?GetDiscipleStateIfInteractedWith@Field@@UAEIPAVGInterfaceStatus@@PAVVillager@@@Z = .text:0x00529FB0; // type:function size:0x3B scope:global
?CanBeDestroyedBySpell@Field@@UAEIPAVSpell@@@Z = .text:0x00529FF0; // type:function size:0x10 scope:global
?GetOverwriteInteractableToolTip@Field@@UAEIXZ = .text:0x0052A000; // type:function size:0x10 scope:global
?DestroyedByEffect@Field@@UAEIPAVGPlayer@@M@Z = .text:0x0052A010; // type:function size:0x20 scope:global
fn_0052A030 = .text:0x0052A030; // type:function size:0x20
?ReduceLifeDueToBurning@Field@@UAEXMPAVGPlayer@@@Z = .text:0x0052A050; // type:function size:0x30 scope:global
?ReduceLife@Field@@UAEXMPAVGPlayer@@@Z = .text:0x0052A0A0; // type:function size:0xB scope:global
?Built@Field@@QAEXXZ = .text:0x0052A0B0; // type:function size:0x20
fn_0052A0D0 = .text:0x0052A0D0; // type:function size:0x20
fn_0052A0F0 = .text:0x0052A0F0; // type:function size:0x20
crt_xc_fn_0052A110 = .text:0x0052A110; // type:function size:0x30
crt_xc_fn_0052A140 = .text:0x0052A140; // type:function size:0x30
crt_xc_fn_0052A170 = .text:0x0052A170; // type:function size:0x30
?InteractsWithPhysicsObjects@FireFly@@UAEIXZ = .text:0x0052A1A0; // type:function size:0x10 scope:global
?ReactToPhysicsImpact@FireFly@@UAEXPAVPhysicsObject@@_N@Z = .text:0x0052A1B0; // type:function size:0x10 scope:global
?CanBecomeAPhysicsObject@FireFly@@UAEIXZ = .text:0x0052A1C0; // type:function size:0x10 scope:global
?IsMoving@FireFly@@UBEIXZ = .text:0x0052A1D0; // type:function size:0x10 scope:global
fn_0052A1E0 = .text:0x0052A1E0; // type:function size:0x20
?Create@FireFly@@SAPAV1@ABUMapCoords@@@Z = .text:0x0052A200; // type:function size:0x80 scope:global
??0FireFly@@QAE@ABVMapCoords@@@Z = .text:0x0052A280; // type:function size:0x70 scope:global
?GetSaveType@FireFly@@UAEIXZ = .text:0x0052A2F0; // type:function size:0x10 scope:global
?GetDebugText@FireFly@@UAEPADXZ = .text:0x0052A300; // type:function size:0x10 scope:global
??_GFireFly@@UAEPAXI@Z = .text:0x0052A310; // type:function size:0x30 scope:global
??0FireFly@@QAE@XZ = .text:0x0052A340; // type:function size:0x40 scope:global
fn_0052A380 = .text:0x0052A380; // type:function size:0x110
?ReleaseSprite@SpriteBank@@QAEXPAVLH3DSprite@@@Z = .text:0x0052A490; // type:function size:0x30
?ToBeDeleted@FireFly@@UAEXH@Z = .text:0x0052A4C0; // type:function size:0x50 scope:global
?CallVirtualFunctionsForCreation@FireFly@@UAEXABUMapCoords@@@Z = .text:0x0052A510; // type:function size:0xC0 scope:global
fn_0052A5D0 = .text:0x0052A5D0; // type:function size:0xA0
fn_0052A670 = .text:0x0052A670; // type:function size:0x130
fn_0052A7A0 = .text:0x0052A7A0; // type:function size:0x130
fn_0052A8D0 = .text:0x0052A8D0; // type:function size:0x80
fn_0052A950 = .text:0x0052A950; // type:function size:0xC0
fn_0052AA10 = .text:0x0052AA10; // type:function size:0x80
?Draw@FireFly@@UAEXXZ = .text:0x0052AA90; // type:function size:0x130 scope:global
fn_0052ABC0 = .text:0x0052ABC0; // type:function size:0x2C8
fn_0052AF90 = .text:0x0052AF90; // type:function size:0x1F9
fn_0052B1A0 = .text:0x0052B1A0; // type:function size:0x30
fn_0052B1D0 = .text:0x0052B1D0; // type:function size:0x30
fn_0052B200 = .text:0x0052B200; // type:function size:0x150
fn_0052B350 = .text:0x0052B350; // type:function size:0x170
fn_0052B4C0 = .text:0x0052B4C0; // type:function size:0xDA
fn_0052B5A0 = .text:0x0052B5A0; // type:function size:0x60
fn_0052B600 = .text:0x0052B600; // type:function size:0x30
fn_0052B670 = .text:0x0052B670; // type:function size:0x80
fn_0052B6F0 = .text:0x0052B6F0; // type:function size:0xA0
fn_0052B790 = .text:0x0052B790; // type:function size:0x10
fn_0052B7A0 = .text:0x0052B7A0; // type:function size:0xD0
?Save@FireFly@@UAEIAAVGameOSFile@@@Z = .text:0x0052B870; // type:function size:0x350 scope:global
?Load@FireFly@@UAEIAAVGameOSFile@@@Z = .text:0x0052BBC0; // type:function size:0x350 scope:global
?SaveObject@FireFly@@UAEIAAULHOSFile@@ABUMapCoords@@@Z = .text:0x0052BF10; // type:function size:0xC0 scope:global
fn_0052BFD0 = .text:0x0052BFD0; // type:function size:0x50
fn_0052C020 = .text:0x0052C020; // type:function size:0x50
fn_0052C070 = .text:0x0052C070; // type:function size:0x50
fn_0052C0C0 = .text:0x0052C0C0; // type:function size:0xAA
fn_0052C170 = .text:0x0052C170; // type:function size:0xB0
crt_xc_fn_0052C220 = .text:0x0052C220; // type:function size:0x30
crt_xc_fn_0052C250 = .text:0x0052C250; // type:function size:0x30
crt_xc_fn_0052C280 = .text:0x0052C280; // type:function size:0x30
crt_xc_fn_0052C2B0 = .text:0x0052C2B0; // type:function size:0x10
fn_0052C2C0 = .text:0x0052C2C0; // type:function size:0x20
?GetBaseInfo@GFishFarmInfo@@UAEPAVGBaseInfo@@AAI@Z = .text:0x0052C2E0; // type:function size:0x20 scope:global
??_GGFishFarmInfo@@UAEPAXI@Z = .text:0x0052C330; // type:function size:0x30 scope:global
?GetTown@FishFarm@@UAEPAVTown@@XZ = .text:0x0052C450; // type:function size:0x10 scope:global
?CreatureMustAvoid@FishFarm@@UAE_NPAVCreature@@@Z = .text:0x0052C460; // type:function size:0x10 scope:global
?Get2DRadius@FishFarm@@UAEMXZ = .text:0x0052C470; // type:function size:0x10 scope:global
?GetMeshRadius@FishFarm@@UBEMXZ = .text:0x0052C480; // type:function size:0x10 scope:global
?GetArrivePos@FishFarm@@UAEPAUMapCoords@@PAU2@@Z = .text:0x0052C490; // type:function size:0x20 scope:global
?InteractsWithPhysicsObjects@FishFarm@@UAEIXZ = .text:0x0052C4B0; // type:function size:0x10 scope:global
?ConvertToPlanned@FishFarm@@UAEPAVPlannedMultiMapFixed@@XZ = .text:0x0052C4C0; // type:function size:0x10 scope:global
?GetCreatureBeliefType@FishFarm@@UAEIXZ = .text:0x0052C4D0; // type:function size:0x10 scope:global
?CanBePoodOn@FishFarm@@UAEIPAVCreature@@@Z = .text:0x0052C4E0; // type:function size:0x10 scope:global
?CanBePickedUpByCreature@FishFarm@@UAEIPAVCreature@@@Z = .text:0x0052C4F0; // type:function size:0x10 scope:global
?CanBeStompedOnByCreature@FishFarm@@UAEIPAVCreature@@@Z = .text:0x0052C500; // type:function size:0x10 scope:global
?CanBeGivenToVillager@FishFarm@@UAEIPAVCreature@@@Z = .text:0x0052C510; // type:function size:0x10 scope:global
?CanBePutInAStoragePit@FishFarm@@UAEIPAVCreature@@@Z = .text:0x0052C520; // type:function size:0x10 scope:global
?CanBeDestroyedByStoning@FishFarm@@UAEIPAVCreature@@@Z = .text:0x0052C530; // type:function size:0x10 scope:global
?CanBeExaminedByCreature@FishFarm@@UAEIPAVCreature@@@Z = .text:0x0052C540; // type:function size:0x10 scope:global
?CanBeEatenByCreature@FishFarm@@UAEIPAVCreature@@@Z = .text:0x0052C550; // type:function size:0x10 scope:global
?CanBeSleptNextToByCreature@FishFarm@@UAEIPAVCreature@@@Z = .text:0x0052C560; // type:function size:0x10 scope:global
?IsBeingBuilt@FishFarm@@UAEIPAVCreature@@@Z = .text:0x0052C570; // type:function size:0x10 scope:global
?NeedsRepair@FishFarm@@UAEIPAVCreature@@@Z = .text:0x0052C580; // type:function size:0x10 scope:global
?IsLockedInInteract@FishFarm@@UAEIXZ = .text:0x0052C590; // type:function size:0x10 scope:global
?GetSaveType@FishFarm@@UAEIXZ = .text:0x0052C5A0; // type:function size:0x10 scope:global
?GetDebugText@FishFarm@@UAEPADXZ = .text:0x0052C5B0; // type:function size:0x10 scope:global
??_GFishFarm@@UAEPAXI@Z = .text:0x0052C5C0; // type:function size:0x30 scope:global
fn_0052C5F0 = .text:0x0052C5F0; // type:function size:0xA0
?ToBeDeleted@FishFarm@@UAEXH@Z = .text:0x0052C690; // type:function size:0x20 scope:global
?DeleteDependancys@FishFarm@@QAEXXZ = .text:0x0052C6B0; // type:function size:0x100
?Draw@FishFarm@@UAEXXZ = .text:0x0052C830; // type:function size:0x10 scope:global
?GetHeightForHandAboveInteractObject@FishFarm@@UAEMXZ = .text:0x0052C840; // type:function size:0x10 scope:global
?GetPlayer@FishFarm@@UAEPAVGPlayer@@XZ = .text:0x0052C850; // type:function size:0x20 scope:global
fn_0052C870 = .text:0x0052C870; // type:function size:0xD0
fn_0052C940 = .text:0x0052C940; // type:function size:0x40
?IsObjectInMap@FishFarm@@UAEIXZ = .text:0x0052C980; // type:function size:0x8A scope:global
?InsertMapObject@FishFarm@@UAEXXZ = .text:0x0052CA10; // type:function size:0x60 scope:global
?RemoveMapObject@FishFarm@@UAEXXZ = .text:0x0052CA70; // type:function size:0x60 scope:global
?GetMapChild@FishFarm@@UAEPAVObject@@ABUMapCell@@@Z = .text:0x0052CAD0; // type:function size:0xA0 scope:global
?SetMapChild@FishFarm@@UAEXPAVObject@@PAUMapCell@@@Z = .text:0x0052CB70; // type:function size:0xA0 scope:global
?CallVirtualFunctionsForCreation@FishFarm@@UAEXABUMapCoords@@@Z = .text:0x0052CC10; // type:function size:0x2BB scope:global
fn_0052CED0 = .text:0x0052CED0; // type:function size:0x50
?RemoveResource@FishFarm@@UAEIW4RESOURCE_TYPE@@IPAVGInterfaceStatus@@PA_N@Z = .text:0x0052CF20; // type:function size:0x1A scope:global
?GetDoorPos@FishFarm@@UAEPAUMapCoords@@PAU2@@Z = .text:0x0052CF40; // type:function size:0x20 scope:global
?SaveObject@FishFarm@@UAEIAAULHOSFile@@ABUMapCoords@@@Z = .text:0x0052CF90; // type:function size:0x150 scope:global
?IsOkToCreateAtPos@GFishFarmInfo@@UBE_NABUMapCoords@@MM@Z = .text:0x0052D100; // type:function size:0x30 scope:global
?Process@FishFarm@@UAEIXZ = .text:0x0052D130; // type:function size:0xB0 scope:global
?GetFoodValue@FishFarm@@UAEMW4FOOD_TYPE@@@Z = .text:0x0052D1E0; // type:function size:0x50 scope:global
fn_0052D240 = .text:0x0052D240; // type:function size:0x10
fn_0052D250 = .text:0x0052D250; // type:function size:0x40
?RemoveFisherman@FishFarm@@QAEXPAVVillager@@@Z = .text:0x0052D290; // type:function size:0x60
fn_0052D2F0 = .text:0x0052D2F0; // type:function size:0x70
?Save@FishFarm@@UAEIAAVGameOSFile@@@Z = .text:0x0052D3B0; // type:function size:0x140 scope:global
?Load@FishFarm@@UAEIAAVGameOSFile@@@Z = .text:0x0052D4F0; // type:function size:0x180 scope:global
?ValidForPlaceInHand@FishFarm@@UAEIPAVGInterfaceStatus@@@Z = .text:0x0052D670; // type:function size:0x40 scope:global
?InterfaceSetInMagicHand@FishFarm@@UAEIPAVGInterfaceStatus@@@Z = .text:0x0052D6B0; // type:function size:0x6A scope:global
?GetDiscipleStateIfInteractedWith@FishFarm@@UAEIPAVGInterfaceStatus@@PAVVillager@@@Z = .text:0x0052D720; // type:function size:0x30 scope:global
?ValidForLockedSelectProcess@FishFarm@@UAE_NPAVGInterfaceStatus@@@Z = .text:0x0052D750; // type:function size:0x10 scope:global
?GetResourceType@FishFarm@@UAE?AW4RESOURCE_TYPE@@XZ = .text:0x0052D760; // type:function size:0x10 scope:global
?NetworkFriendlyStartLockedSelect@FishFarm@@UAE_NPAVGInterfaceStatus@@@Z = .text:0x0052D770; // type:function size:0x10A scope:global
?NetworkUnfriendlyLockedSelect@FishFarm@@UAEIPAUControlHandUpdateInfo@@@Z = .text:0x0052D880; // type:function size:0x10 scope:global
?NetworkUnfriendlyEndLockedSelect@FishFarm@@UAEIXZ = .text:0x0052D890; // type:function size:0x10 scope:global
?NetworkFriendlyEndLockedSelect@FishFarm@@UAEIPAVGInterfaceStatus@@@Z = .text:0x0052D8A0; // type:function size:0xA0 scope:global
?GetInfo@GPotInfo@@QAEXXZ = .text:0x0052D940; // type:function size:0x10
?ProcessInInteract@FishFarm@@UAEIPAVGInterfaceStatus@@@Z = .text:0x0052D950; // type:function size:0x1C0 scope:global
crt_xc_fn_0052DB10 = .text:0x0052DB10; // type:function size:0x30
crt_xc_fn_0052DB40 = .text:0x0052DB40; // type:function size:0x30
crt_xc_fn_0052DB70 = .text:0x0052DB70; // type:function size:0x1B
crt_xc_fn_0052DB90 = .text:0x0052DB90; // type:function size:0x30
?SortChildren@MultiMapFixed@@QAEXXZ = .text:0x0052DC10; // type:function size:0x20 scope:global
?SortedMultiChildFind@MultiMapFixed@@QAEXABVMapCell@@@Z = .text:0x0052DC30; // type:function size:0x60 scope:global
crt_xc_fn_0052DC90 = .text:0x0052DC90; // type:function size:0x10
fn_0052DCA0 = .text:0x0052DCA0; // type:function size:0x30
?GetMesh@GSingleMapFixedInfo@@UBEIXZ = .text:0x0052DCD0; // type:function size:0x10 scope:global
?GetBaseInfo@GSingleMapFixedInfo@@UAEPAVGBaseInfo@@AAI@Z = .text:0x0052DCE0; // type:function size:0x20 scope:global
??_GGSingleMapFixedInfo@@UAEPAXI@Z = .text:0x0052DD50; // type:function size:0x30 scope:global
??0FixedObject@@QAE@XZ = .text:0x0052DD80; // type:function size:0x20 scope:global
??1Fixed@@UAE@XZ = .text:0x0052DDA0; // type:function size:0x20 scope:global
??0FixedObject@@QAE@ABVMapCoords@@PBVGObjectInfo@@MM@Z = .text:0x0052DDC0; // type:function size:0x60 scope:global
fn_0052DE20 = .text:0x0052DE20; // type:function size:0x10
?Create3DObject@Fixed@@UAEXXZ = .text:0x0052DE30; // type:function size:0x20 scope:global
?GetSpecialPos@Fixed@@UAE_NIPAUMapCoords@@@Z = .text:0x0052DE50; // type:function scope:global
?InsertMapObjectToCell@Fixed@@UAEXPAUMapCell@@@Z = .text:0x0052DEA0; // type:function size:0x40 scope:global
?InsertMapObjectToCellAssumeFixed@Fixed@@UAEXPAUMapCell@@@Z = .text:0x0052DEE0; // type:function size:0x40 scope:global
?GetTownArtifactValue@Fixed@@UAEMXZ = .text:0x0052DF20; // type:function size:0x30 scope:global
?EndPhysics@Fixed@@UAEXPAVPhysicsObject@@_N@Z = .text:0x0052DF50; // type:function size:0x190 scope:global
?InterfaceSetInMagicHand@Fixed@@UAE_NPAVGInterfaceStatus@@@Z = .text:0x0052E0E0; // type:function size:0x60 scope:global
?Save@Fixed@@UAEIAAVGameOSFile@@@Z = .text:0x0052E140; // type:function size:0x30 scope:global
?Load@Fixed@@UAEIAAVGameOSFile@@@Z = .text:0x0052E170; // type:function size:0x30 scope:global
??0MultiMapFixed@@QAE@XZ = .text:0x0052E1A0; // type:function size:0x20 scope:global
??_DMultiMapFixed@@QAEXXZ = .text:0x0052E1C0; // type:function size:0x20 scope:global
??0MultiMapFixed@@QAE@ABUMapCoords@@PBVGMultiMapFixedInfo@@MMMH@Z = .text:0x0052E1E0; // type:function size:0xA0 scope:global
??_GMultiMapFixed@@QAEPAXI@Z = .text:0x0052E280; // type:function size:0x30
?ToBeDeleted@MultiMapFixed@@UAEXH@Z = .text:0x0052E2B0; // type:function size:0xC0 scope:global
?GetDoorPos@MultiMapFixed@@UAEPAUMapCoords@@PAU2@@Z = .text:0x0052E370; // type:function size:0x80 scope:global
fn_0052E3F0 = .text:0x0052E3F0; // type:function size:0xA
?GetMapChild@MultiMapFixed@@UAEPAVObject@@PBUMapCell@@@Z = .text:0x0052E400; // type:function size:0x20 scope:global
?SetMapChild@MultiMapFixed@@UAEXPAVObject@@PAUMapCell@@@Z = .text:0x0052E420; // type:function size:0x60 scope:global
?IsObjectInMap@MultiMapFixed@@UAEIXZ = .text:0x0052E480; // type:function size:0x10 scope:global
?IsObjectFullyInMap@MultiMapFixed@@UAEIXZ = .text:0x0052E490; // type:function size:0x60 scope:global
?MoveMapObject@MultiMapFixed@@UAEHPAUMapCoords@@@Z = .text:0x0052E4F0; // type:function size:0x40 scope:global
?InsertMapObject@Fixed@@UAEXXZ = .text:0x0052E530; // type:function size:0x90 scope:global
?RemoveMapObject@Fixed@@UAEXXZ = .text:0x0052E5C0; // type:function size:0x40 scope:global
?RemoveMapObject@SingleMapFixed@@UAEXXZ = .text:0x0052E600; // type:function size:0x20 scope:global
?InsertMapObject@SingleMapFixed@@UAEXXZ = .text:0x0052E620; // type:function size:0x30 scope:global
?InsertMapObject@MultiMapFixed@@UAEXXZ = .text:0x0052E650; // type:function size:0x160 scope:global
?RemoveMapObject@MultiMapFixed@@UAEXXZ = .text:0x0052E7B0; // type:function size:0x90 scope:global
?CheckMapObject@MultiMapFixed@@UAEXXZ = .text:0x0052E840; // type:function size:0x40 scope:global
?CallVirtualFunctionsForCreation@SingleMapFixed@@UAEXABUMapCoords@@@Z = .text:0x0052E880; // type:function size:0x10 scope:global
?CallVirtualFunctionsForCreation@MultiMapFixed@@UAEXABUMapCoords@@@Z = .text:0x0052E890; // type:function size:0x1C0 scope:global
?AllocateMultiChild@MultiMapFixed@@QAEXXZ = .text:0x0052EA50; // type:function size:0x70 scope:global
fn_0052EAC0 = .text:0x0052EAC0; // type:function size:0x30
?ValidForPlaceInHand@SingleMapFixed@@UAEIPAVGInterfaceStatus@@@Z = .text:0x0052EAF0; // type:function size:0x10 scope:global
?ValidToApplyThisToMapCoord@SingleMapFixed@@UAEIPAVGInterfaceStatus@@ABUMapCoords@@@Z = .text:0x0052EB00; // type:function size:0x10 scope:global
?GetMesh@SingleMapFixed@@UBEHXZ = .text:0x0052EB10; // type:function size:0x10 scope:global
?ApplyOnlyAfterReleased@SingleMapFixed@@UAEIXZ = .text:0x0052EB20; // type:function scope:global
?GetCollideData@SingleMapFixed@@QAEXXZ = .text:0x0052EB30; // type:function size:0x10 scope:global
??_GSingleMapFixed@@UAEPAXI@Z = .text:0x0052EB40; // type:function size:0x20 scope:global
?IsOkToCreateAtPos@GMultiMapFixedInfo@@UBE_NABUMapCoords@@MM@Z = .text:0x0052EB60; // type:function size:0x30 scope:global
?ValidForLockedSelectProcess@Fixed@@UAE_NPAVGInterfaceStatus@@@Z = .text:0x0052EB90; // type:function size:0x10 scope:global
?NetworkFriendlyStartLockedSelect@Fixed@@UAE_NPAVGInterfaceStatus@@@Z = .text:0x0052EBA0; // type:function size:0x10 scope:global
?Built@MultiMapFixed@@UAEIXZ = .text:0x0052EBB0; // type:function size:0xB0 scope:global
?StartOnFire@MultiMapFixed@@UAEXXZ = .text:0x0052EC60; // type:function size:0x10 scope:global
?Repaired@MultiMapFixed@@UAEIXZ = .text:0x0052EC70; // type:function size:0x30 scope:global
?GetInfluence@MultiMapFixed@@UAEMXZ = .text:0x0052ECA0; // type:function size:0x40 scope:global
?GetDesireToBeRepaired@MultiMapFixed@@UAEMXZ = .text:0x0052ECE0; // type:function size:0x60 scope:global
?BuildBy@MultiMapFixed@@UAEXM@Z = .text:0x0052ED40; // type:function size:0x90 scope:global
fn_0052EDD0 = .text:0x0052EDD0; // type:function size:0x3A
?AddFootpathLink@MultiMapFixed@@QAEXPAVGFootpath@@@Z = .text:0x0052EE10; // type:function size:0x70 scope:global
?RemoveFootpath@MultiMapFixed@@UAEIPAVGFootpath@@@Z = .text:0x0052EE80; // type:function size:0x30 scope:global
?GetNearestPathTo@MultiMapFixed@@UAEIPAUMapCoords@@MH@Z = .text:0x0052EEB0; // type:function size:0x10 scope:global
?UseFootpathIfNecessary@MultiMapFixed@@UAEXPAVLiving@@PBUMapCoords@@E@Z = .text:0x0052EEC0; // type:function size:0x50 scope:global
?SaveObject@MultiMapFixed@@UAEIPAVLHOSFile@@PBUMapCoords@@@Z = .text:0x0052EF10; // type:function size:0x40 scope:global
?IsFunctional@MultiMapFixed@@UAEIXZ = .text:0x0052EF70; // type:function size:0x4B scope:global
?GetPercentRepairedForNonFunctional@MultiMapFixed@@UAEMXZ = .text:0x0052EFC0; // type:function size:0x10 scope:global
?GetPercentForDrawBuilding@MultiMapFixed@@UAEMXZ = .text:0x0052EFD0; // type:function size:0x40 scope:global
?GetPercentRepairedFromWhenDamaged@MultiMapFixed@@UAEMXZ = .text:0x0052F010; // type:function size:0xB0 scope:global
?IsDrawBuilding@MultiMapFixed@@UAEIXZ = .text:0x0052F0C0; // type:function size:0xB scope:global
?GetDiscipleStateIfInteractedWith@MultiMapFixed@@UAEIPAVGInterfaceStatus@@PAVVillager@@@Z = .text:0x0052F0D0; // type:function size:0x90 scope:global
?RemovePotFromStructure@MultiMapFixed@@UAEXPAVPotStructure@@@Z = .text:0x0052F160; // type:function size:0x20 scope:global
?AddResource@MultiMapFixed@@UAEIW4RESOURCE_TYPE@@IPAVGInterfaceStatus@@_NPBUMapCoords@@H@Z = .text:0x0052F180; // type:function size:0x40 scope:global
?RemoveResource@MultiMapFixed@@UAEIEEE@Z = .text:0x0052F1C0; // type:function size:0x2B scope:global
?IsResourceStore@MultiMapFixed@@UAE_NW4RESOURCE_TYPE@@@Z = .text:0x0052F1F0; // type:function size:0x20 scope:global
?DoCreatureMimicAfterAddingResource@MultiMapFixed@@UAE_NW4RESOURCE_TYPE@@PAVGInterfaceStatus@@@Z = .text:0x0052F210; // type:function size:0x40 scope:global
?Save@MultiMapFixed@@UAEIAAVGameOSFile@@@Z = .text:0x0052F250; // type:function size:0xC0 scope:global
?Load@MultiMapFixed@@UAEIAAVGameOSFile@@@Z = .text:0x0052F310; // type:function size:0xC0 scope:global
?InteractsWithPhysicsObjects@MultiMapFixed@@UAEIXZ = .text:0x0052F3D0; // type:function size:0x50 scope:global
?ApplyThisToMapCoord@SingleMapFixed@@UAEIPAVGInterfaceStatus@@ABUMapCoords@@PAUGestureSystemPacketData@@@Z = .text:0x0052F420; // type:function size:0x20 scope:global
?InsertMapObjectToCell@SingleMapFixed@@UAEXPAUMapCell@@@Z = .text:0x0052F440; // type:function size:0x10 scope:global
?RemoveMapObjectFromCell@SingleMapFixed@@UAEXPAUMapCell@@@Z = .text:0x0052F450; // type:function size:0x10 scope:global
?DeleteObjectAndTakeResource@MultiMapFixed@@UAE_NPAVObject@@PAVGInterfaceStatus@@@Z = .text:0x0052F460; // type:function size:0x30 scope:global
?CreatureMustAvoid@MultiMapFixed@@UAE_NPAVCreature@@@Z = .text:0x0052F490; // type:function size:0x7B scope:global
?CreateCollideData@SingleMapFixed@@QAEXXZ = .text:0x0052F510; // type:function size:0x40 scope:global
?CreateCollideData@MultiMapFixed@@UAEXXZ = .text:0x0052F550; // type:function size:0x40 scope:global
?CreateBuildingSite@MultiMapFixed@@UAEIXZ = .text:0x0052F590; // type:function size:0x50 scope:global
?ReduceLife@MultiMapFixed@@UAEXMPAVGPlayer@@@Z = .text:0x0052F5E0; // type:function size:0xB0 scope:global
fn_0052F690 = .text:0x0052F690; // type:function size:0x10
fn_0052F6A0 = .text:0x0052F6A0; // type:function size:0x30
?ReleaseCollideData@MultiMapFixed@@QAEXXZ = .text:0x0052F6D0; // type:function size:0x30 scope:global
?Process@MultiMapFixed@@UAEIXZ = .text:0x0052F700; // type:function size:0x20 scope:global
crt_xc_fn_0052F720 = .text:0x0052F720; // type:function size:0x30
crt_xc_fn_0052F750 = .text:0x0052F750; // type:function size:0x30
??0Flock@@QAE@ABVMapCoords@@PBVGFlockInfo@@PAVGPlayer@@I@Z = .text:0x0052F780; // type:function size:0xE0 scope:global
?IsFlock@Flock@@UBEIXZ = .text:0x0052F860; // type:function size:0x10 scope:global
?GetTown@Flock@@UAEPAVTown@@XZ = .text:0x0052F870; // type:function size:0x10 scope:global
?IsScriptContainer@Flock@@UBEIXZ = .text:0x0052F880; // type:function size:0x10 scope:global
?GetText@Flock@@UAEPBDXZ = .text:0x0052F890; // type:function size:0x10 scope:global
?GetCreatureBeliefType@Flock@@UAEIXZ = .text:0x0052F8A0; // type:function size:0x10 scope:global
?GetCreatureBeliefListType@Flock@@UAEIXZ = .text:0x0052F8B0; // type:function size:0x10 scope:global
?IsSuitableForCreatureActivity@Flock@@UAEIXZ = .text:0x0052F8C0; // type:function size:0x10 scope:global
?IsActivityObjectWhichAngerAppliesTo@Flock@@UAEIPAVCreature@@@Z = .text:0x0052F8D0; // type:function size:0x10 scope:global
?IsActivityObjectWhichCompassionAppliesTo@Flock@@UAEIPAVCreature@@@Z = .text:0x0052F8E0; // type:function size:0x10 scope:global
?IsActivityObjectWhichPlayfulnessAppliesTo@Flock@@UAEIPAVCreature@@@Z = .text:0x0052F8F0; // type:function size:0x10 scope:global
?GetSaveType@Flock@@UAEIXZ = .text:0x0052F900; // type:function size:0x10 scope:global
?GetDebugText@Flock@@UAEPADXZ = .text:0x0052F910; // type:function size:0x10 scope:global
??_GFlock@@UAEPAXI@Z = .text:0x0052F920; // type:function size:0x30 scope:global
fn_0052F950 = .text:0x0052F950; // type:function size:0x100
fn_0052FA50 = .text:0x0052FA50; // type:function size:0x100
?RemoveLivingFromFlock@Flock@@QAEXPAVLiving@@H@Z = .text:0x0052FB50; // type:function size:0xD0
?SetDomainCentrePos@Flock@@QAEXABUMapCoords@@@Z = .text:0x0052FC20; // type:function size:0x50 scope:global
?SeperateLivingIntoNewFlock@Flock@@QAEXPAVLiving@@H@Z = .text:0x0052FE10; // type:function size:0x50
?DeleteDependancys@Flock@@QAEXXZ = .text:0x0052FE60; // type:function size:0x150
?ToBeDeleted@Flock@@UAEXH@Z = .text:0x0052FFB0; // type:function size:0x20 scope:global
fn_0052FFD0 = .text:0x0052FFD0; // type:function size:0x30
fn_00530000 = .text:0x00530000; // type:label size:0x45
fn_00530045 = .text:0x00530045; // type:function size:0x8B
fn_00530140 = .text:0x00530140; // type:function size:0x40
fn_00530210 = .text:0x00530210; // type:function size:0x90
fn_005302A0 = .text:0x005302A0; // type:function size:0x40
fn_005302E0 = .text:0x005302E0; // type:function size:0x20
fn_00530310 = .text:0x00530310; // type:function size:0x160
?GetScriptObjectType@Flock@@UAEIXZ = .text:0x00530490; // type:function size:0x10 scope:global
fn_005304A0 = .text:0x005304A0; // type:function size:0x70
fn_00530510 = .text:0x00530510; // type:function size:0x5B
?GetFlockPos@Flock@@QAEPAUMapCoords@@XZ = .text:0x00530570; // type:function size:0x30 scope:global
?Save@Flock@@UAEIAAVGameOSFile@@@Z = .text:0x005305A0; // type:function size:0x390 scope:global
?Load@Flock@@UAEIAAVGameOSFile@@@Z = .text:0x00530930; // type:function size:0x36A scope:global
fn_00530CA0 = .text:0x00530CA0; // type:function size:0x10
fn_00530CB0 = .text:0x00530CB0; // type:function size:0x1B
fn_00530CD0 = .text:0x00530CD0; // type:function size:0x10
fn_00530CE0 = .text:0x00530CE0; // type:function size:0x20
fn_00530D00 = .text:0x00530D00; // type:function size:0x50
fn_00530D50 = .text:0x00530D50; // type:function size:0x50
fn_00530DA0 = .text:0x00530DA0; // type:function size:0x50
fn_00530DF0 = .text:0x00530DF0; // type:function size:0x50
crt_xc_fn_00530E40 = .text:0x00530E40; // type:function size:0x30
crt_xc_fn_00530E70 = .text:0x00530E70; // type:function size:0x30
crt_xc_fn_00530EA0 = .text:0x00530EA0; // type:function size:0x1B
crt_xc_fn_00530EC0 = .text:0x00530EC0; // type:function size:0x10
fn_00530ED0 = .text:0x00530ED0; // type:function size:0x30
?GetBaseInfo@GFootballPositionInfo@@UAEPAVGBaseInfo@@AAI@Z = .text:0x00530F00; // type:function size:0x20 scope:global
??_GGFootballPositionInfo@@UAEPAXI@Z = .text:0x00530F60; // type:function size:0x20 scope:global
?CallVirtualFunctionsForCreation@Football@@UAEXABUMapCoords@@@Z = .text:0x00530F80; // type:function size:0x200 scope:global
?GetCreatureBeliefType@Football@@UAEIXZ = .text:0x00531180; // type:function size:0x10 scope:global
??0Football@@QAE@ABVMapCoords@@PBVGAbodeInfo@@PAVTown@@MMMH@Z = .text:0x00531190; // type:function size:0xF0
?IsFootball@Football@@UAEIXZ = .text:0x00531280; // type:function size:0x10 scope:global
?IsRepaired@Football@@UAEIXZ = .text:0x00531290; // type:function size:0x20 scope:global
?IsBuilt@Football@@UAEIXZ = .text:0x005312B0; // type:function size:0x30 scope:global
?Get3DType@Football@@UAE?AW4LH3DObject__ObjectType@@XZ = .text:0x005312E0; // type:function size:0x10 scope:global
?CreatureMustAvoid@Football@@UAE_NPAVCreature@@@Z = .text:0x005312F0; // type:function size:0x10 scope:global
?CanBeHiddenIn@Football@@QAEXXZ = .text:0x00531300; // type:function size:0x10
?GetSaveType@Football@@UAEIXZ = .text:0x00531310; // type:function size:0x10 scope:global
?GetDebugText@Football@@UAEPADXZ = .text:0x00531320; // type:function size:0x10 scope:global
??_GFootball@@UAEPAXI@Z = .text:0x00531330; // type:function size:0x30 scope:global
?ToBeDeleted@Football@@UAEXH@Z = .text:0x00531360; // type:function size:0x1B scope:global
?MakeFunctional@Football@@QAEXXZ = .text:0x00531380; // type:function size:0x5B
?GetInfo@GBallInfo@@QAEXXZ = .text:0x005313E0; // type:function size:0x30
?GetBall@Football@@QAEPAXXZ = .text:0x00531410; // type:function size:0x1A scope:global
?DeleteDependancys@Football@@QAEXXZ = .text:0x00531430; // type:function size:0x170
?Create@Football@@SAPAV1@ABUMapCoords@@PBVGFieldTypeInfo@@PAVTown@@MMIIMHH@Z = .text:0x005315A0; // type:function size:0x70 scope:global
?Draw@Football@@UAEXXZ = .text:0x00531610; // type:function size:0x10 scope:global
?InteractsWithPhysicsObjects@Football@@UAEIXZ = .text:0x00531930; // type:function size:0x10 scope:global
?GoalHasBeenScored@Football@@QAEXH@Z = .text:0x00531940; // type:function size:0x80
fn_00531A00 = .text:0x00531A00; // type:function size:0x220
fn_00531C20 = .text:0x00531C20; // type:function size:0xBA
fn_00531CE0 = .text:0x00531CE0; // type:function size:0x160
?ReduceLife@Football@@UAEXMPAVGPlayer@@@Z = .text:0x00531E40; // type:function size:0x10 scope:global
?ProcessBall@Football@@QAEXPAVBall@@@Z = .text:0x00531E50; // type:function size:0x180
?StopFootballGame@Football@@QAEXXZ = .text:0x00531FD0; // type:function size:0x9C
fn_0053206C = .text:0x0053206C; // type:label size:0x124
?SetVillagerActivity@Football@@UAEIPAVVillager@@@Z = .text:0x00532190; // type:function size:0x90 scope:global
?GetVillagerActivityDesire@Football@@UAEMPAVVillager@@@Z = .text:0x00532220; // type:function size:0xC0 scope:global
fn_005322E0 = .text:0x005322E0; // type:function size:0x120
fn_00532400 = .text:0x00532400; // type:function size:0xC0
fn_005324C0 = .text:0x005324C0; // type:function size:0x10
fn_005324D0 = .text:0x005324D0; // type:function size:0x30
fn_00532500 = .text:0x00532500; // type:function size:0xD0
fn_005325D0 = .text:0x005325D0; // type:function size:0xD0
fn_005326A0 = .text:0x005326A0; // type:function size:0x40
fn_005326E0 = .text:0x005326E0; // type:function size:0x50
fn_00532730 = .text:0x00532730; // type:function size:0x2B
fn_00532760 = .text:0x00532760; // type:function size:0x2A
fn_00532900 = .text:0x00532900; // type:function size:0x60
?IsPlayerOnHomeTeam@Football@@QAE_NPAVVillager@@@Z = .text:0x00532960; // type:function size:0x30 scope:global
?IsInsideGoal@Football@@QAEXPAVBall@@I@Z = .text:0x00532990; // type:function size:0x2F0
?GetGoalPosition@Football@@QAEXK@Z = .text:0x00532C80; // type:function size:0xE0 scope:global
?IsPlayingFootball@Villager@@UAEIPAVCreature@@@Z = .text:0x00532DB0; // type:function size:0x50 scope:global
?IsPlayingFootballAndMySideHasJustScored@Villager@@UAEIPAVCreature@@@Z = .text:0x00532E00; // type:function size:0x4B scope:global
?IsPlayingFootballAndOtherSideHasJustScored@Villager@@UAEIPAVCreature@@@Z = .text:0x00532E50; // type:function size:0x60 scope:global
?PerturbTarget@Football@@QAEXPAVMapCoords@@PAVVillager@@@Z = .text:0x00532EB0; // type:function size:0xB0
fn_00532F60 = .text:0x00532F60; // type:function size:0x9A
fn_00533000 = .text:0x00533000; // type:function size:0x90
fn_00533090 = .text:0x00533090; // type:function size:0x90
fn_00533120 = .text:0x00533120; // type:function size:0x80
fn_005331A0 = .text:0x005331A0; // type:function size:0x100
?Save@Football@@UAEIAAVGameOSFile@@@Z = .text:0x005332A0; // type:function size:0x440 scope:global
?Load@Football@@UAEIAAVGameOSFile@@@Z = .text:0x005336E0; // type:function size:0x44A scope:global
?GetDoorPos@Football@@UAEPAUMapCoords@@PAU2@@Z = .text:0x00533B30; // type:function size:0x80 scope:global
fn_00533BB0 = .text:0x00533BB0; // type:function size:0x10
fn_00533BC0 = .text:0x00533BC0; // type:function size:0x50
fn_00533C10 = .text:0x00533C10; // type:function size:0x50
fn_00533C60 = .text:0x00533C60; // type:function size:0xA0
fn_00533D00 = .text:0x00533D00; // type:function size:0xBB
crt_xc_fn_00533DC0 = .text:0x00533DC0; // type:function size:0x30
crt_xc_fn_00533DF0 = .text:0x00533DF0; // type:function size:0x30
crt_xc_fn_00533E20 = .text:0x00533E20; // type:function size:0x1B
?Process@Football@@UAEIXZ = .text:0x00533E40; // type:function size:0x8B0 scope:global
fn_005346F0 = .text:0x005346F0; // type:function size:0xB0
fn_005347A0 = .text:0x005347A0; // type:function size:0x20
?GetHowCloseToBallIndex@Football@@QAEXPAVVillager@@@Z = .text:0x005347C0; // type:function size:0x60
?GetHowCloseToGoalIndex@Football@@QAEXPAVVillager@@@Z = .text:0x00534820; // type:function size:0x23
fn_00534843 = .text:0x00534843; // type:label size:0x1D
?SetPlayState@Football@@QAEXVFOOTBALL_STATES@1@@Z = .text:0x00534860; // type:function size:0x50
fn_00534910 = .text:0x00534910; // type:function size:0x190
fn_00534AA0 = .text:0x00534AA0; // type:function size:0x170
crt_xc_fn_00534C10 = .text:0x00534C10; // type:function size:0x30
crt_xc_fn_00534C40 = .text:0x00534C40; // type:function size:0x1B
crt_xc_fn_00534C60 = .text:0x00534C60; // type:function size:0x30
crt_xc_fn_00534C90 = .text:0x00534C90; // type:function size:0x30
crt_xc_fn_00534CC0 = .text:0x00534CC0; // type:function size:0x30
??0GFootpathNode@@QAE@ABVMapCoords@@HH@Z = .text:0x00534CF0; // type:function size:0x60 scope:global
?GetSaveType@GFootpathNode@@UAEIXZ = .text:0x00534D50; // type:function size:0x10 scope:global
?GetDebugText@GFootpathNode@@UAEPADXZ = .text:0x00534D60; // type:function size:0x10 scope:global
??_GGFootpathNode@@UAEPAXI@Z = .text:0x00534D70; // type:function size:0x20 scope:global
?Get@?$LHFastPointer@V?$LHLinkedNode@PAVGFootpath@@@@@@QBEXXZ = .text:0x00534D90; // type:function size:0x20
??0GFootpath@@QAE@XZ = .text:0x00534DC0; // type:function size:0x20 scope:global
?GetSaveType@GFootpath@@UAEIXZ = .text:0x00534DE0; // type:function size:0x10 scope:global
?GetDebugText@GFootpath@@UAEPADXZ = .text:0x00534DF0; // type:function size:0x10 scope:global
??_GGFootpath@@UAEPAXI@Z = .text:0x00534E00; // type:function size:0x20 scope:global
??0MapCoords@@QAE@PAVJustMapXZ@@@Z = .text:0x00534E20; // type:function size:0x20
?ResolveLoad@GFootpath@@QAEXXZ = .text:0x00534E40; // type:function size:0x10
fn_00534EA0 = .text:0x00534EA0; // type:function size:0x10
??0GFootpath@@QAE@PAVGameThingWithPos@@PAV1@@Z = .text:0x00534EB0; // type:function size:0x50 scope:global
?ToBeDeleted@GFootpath@@UAEXH@Z = .text:0x00534F00; // type:function size:0x90 scope:global
fn_00534F90 = .text:0x00534F90; // type:function size:0x2A
?AddPos@GFootpath@@QAEXABVMapCoords@@@Z = .text:0x00534FC0; // type:function size:0x50 scope:global
?GetEndNonHiddenNode@GFootpath@@QAEXAAVMapCoords@@H@Z = .text:0x00535120; // type:function size:0x80
?GetNextNode@GFootpath@@QAEXPAVGFootpathNode@@H@Z = .text:0x005351A0; // type:function size:0x50 scope:global
fn_00535245 = .text:0x00535245; // type:function size:0xF
?GetNearestPos@GFootpath@@QAEXABVMapCoords@@H@Z = .text:0x005352C0; // type:function size:0x85 scope:global
fn_00535345 = .text:0x00535345; // type:function size:0x4
fn_00535353 = .text:0x00535353; // type:function size:0xD
fn_005353F0 = .text:0x005353F0; // type:function size:0x4B
fn_00535449 = .text:0x00535449; // type:function size:0x14
fn_005354B0 = .text:0x005354B0; // type:function size:0x90
fn_00535541 = .text:0x00535541; // type:function size:0xF
fn_00535550 = .text:0x00535550; // type:function size:0x70
fn_005355C0 = .text:0x005355C0; // type:function size:0x130
?ConvertMapCoordsToPoint2D@@YAXABVMapCoords@@@Z = .text:0x00535780; // type:function size:0x40 scope:global
?ConvertPoint2DToMapCoords@@YAXABVPoint2D@@@Z = .text:0x005357C0; // type:function size:0x50
crt_xc_fn_00535810 = .text:0x00535810; // type:function size:0x20
crt_xc_fn_00535830 = .text:0x00535830; // type:function size:0x20
?GenerateRoutesBetween@GFootpath@@QAEXPAVGameThingWithPos@@PAV2@@Z = .text:0x00535850; // type:function size:0x230
?FUN_00535a80@GFootpath@@SAXPAUPoint2D@@PAVMultiMapFixed@@MM@Z = .text:0x00535A80; // type:function size:0x150 scope:global
?Save@GFootpath@@UAEIAAVGameOSFile@@@Z = .text:0x00535E00; // type:function size:0x110 scope:global
?Load@GFootpath@@UAEIAAVGameOSFile@@@Z = .text:0x00535F10; // type:function size:0x100 scope:global
?ToBeDeleted@GFootpathLink@@UAEXH@Z = .text:0x00536010; // type:function size:0x60 scope:global
?AddFootpath@GFootpathLink@@UAEIPAVGFootpath@@@Z = .text:0x00536070; // type:function size:0x40 scope:global
?RemoveFootpath@GFootpathLink@@UAEIPAVGFootpath@@@Z = .text:0x005360B0; // type:function size:0x60 scope:global
?GetNearestPathTo@GFootpathLink@@QAEXABVMapCoords@@ABV2@MAAHPAPAVGFootpathNode@@@Z = .text:0x00536110; // type:function size:0xE0 scope:global
