?NULLGetEncodedLength@LHPacketisableObject@@QAEKKPAX@Z = .text:0x10001000; // type:function size:0x20
?NULLEncodeToBuffer@LHPacketisableObject@@QAEPAEPAEKPAX@Z = .text:0x10001020; // type:function size:0x30
?NULLDecodeFromBuffer@LHPacketisableObject@@QAEPAEPAE@Z = .text:0x10001050; // type:function size:0x30
??0LHPacketisableObject@@QAE@XZ = .text:0x10001080; // type:function size:0x10
??0LHPacketisableObject@@QAE@ABV0@@Z = .text:0x10001090; // type:function size:0x10
??4LHPacketisableObject@@QAEAAV0@ABV0@@Z = .text:0x100010A0; // type:function size:0x10
??0LH_USER_ID@@QAE@XZ = .text:0x100010B0; // type:function size:0x10
??0LH_USER_ID@@QAE@K@Z = .text:0x100010C0; // type:function size:0x10
??BLH_USER_ID@@QAEKXZ = .text:0x100010D0; // type:function size:0x10
??4LH_USER_ID@@QAE?AU0@AAK@Z = .text:0x100010E0; // type:function size:0x20
?IsValid@LH_USER_ID@@QAEHXZ = .text:0x10001100; // type:function size:0x20
?IsType@LH_USER_ID@@QAEHW4CATEGORY@1@@Z = .text:0x10001120; // type:function size:0x20
?IsServer@LH_USER_ID@@QAEHXZ = .text:0x10001140; // type:function size:0x30
?IsGlobal@LH_USER_ID@@QAEHXZ = .text:0x10001170; // type:function size:0x20
?IsPlayer@LH_USER_ID@@QAEHXZ = .text:0x10001190; // type:function size:0x20
??4LH_USER_ID@@QAEAAU0@ABU0@@Z = .text:0x100011B0; // type:function size:0x10
fn_100011C0 = .text:0x100011C0; // type:function size:0x20
??4LHHttp@@QAEAAV0@ABV0@@Z = .text:0x100011E0; // type:function size:0x20
??0LHHttpHeaders@@QAE@XZ = .text:0x10001200; // type:function size:0x10
??1LHHttpHeaders@@QAE@XZ = .text:0x10001210; // type:function size:0x40
??4LHHttpHeaders@@QAEAAV0@ABV0@@Z = .text:0x10001250; // type:function size:0x20
??0LHHttpHeaderStatus@@QAE@XZ = .text:0x10001270; // type:function size:0x30
??1LHHttpHeaderStatus@@QAE@XZ = .text:0x100012A0; // type:function size:0x50
??4LHHttpHeaderStatus@@QAEAAU0@ABU0@@Z = .text:0x100012F0; // type:function size:0x20
?SetTimeOut@LHHttp2@@QAEXK@Z = .text:0x10001310; // type:function size:0x10
?GetTimeOut@LHHttp2@@QAEKXZ = .text:0x10001320; // type:function size:0x10
?GetReadSize@LHHttp2@@QAEKXZ = .text:0x10001330; // type:function size:0x10
?GetSendSize@LHHttp2@@QAEKXZ = .text:0x10001340; // type:function size:0x10
?SetMaxForwardings@LHHttp2@@QAEXK@Z = .text:0x10001350; // type:function size:0x10
?GetMaxForwardings@LHHttp2@@QAEKXZ = .text:0x10001360; // type:function size:0x10
??4LHHttp2@@QAEAAV0@ABV0@@Z = .text:0x10001370; // type:function size:0x20
??0LHNetUser@@QAE@XZ = .text:0x10001390; // type:function size:0x20
?GetID@LHNetUser@@QAE?AULH_USER_ID@@XZ = .text:0x100013B0; // type:function size:0x10
?GetName@LHNetUser@@QAEPAGXZ = .text:0x100013C0; // type:function size:0x10
?IsValid@LHNetUser@@QAEHXZ = .text:0x100013D0; // type:function size:0x20
?ChangeName@LHNetUser@@QAEXPAG@Z = .text:0x100013F0; // type:function size:0x10
?GetPassword@LHNetUser@@QAEPADXZ = .text:0x10001400; // type:function size:0x10
?ChangeID@LHNetUser@@QAEXK@Z = .text:0x10001410; // type:function size:0x10
??4LHNetUser@@QAEAAV0@ABV0@@Z = .text:0x10001420; // type:function size:0x20
?ClearAllData@LHTransportInfo@@QAEXXZ = .text:0x10001440; // type:function size:0x20
??0LHTransportInfo@@QAE@XZ = .text:0x10001460; // type:function size:0x30
??0LHTransportInfo@@QAE@W4LH_TRANSPORT_TYPE@@KPAX@Z = .text:0x10001490; // type:function size:0x40
?Set@LHTransportInfo@@QAEXPAV1@@Z = .text:0x100014D0; // type:function size:0x30
??0LHTransportInfo@@QAE@PAV0@@Z = .text:0x10001500; // type:function size:0x40
?Set@LHTransportInfo@@QAEXW4LH_TRANSPORT_TYPE@@PAD@Z = .text:0x10001540; // type:function size:0x40
??0LHTransportInfo@@QAE@W4LH_TRANSPORT_TYPE@@PAD@Z = .text:0x10001580; // type:function size:0x50
?Set@LHTransportInfo@@QAEXPAULHIAddress@@@Z = .text:0x100015D0; // type:function size:0x50
??0LHTransportInfo@@QAE@PAULHIAddress@@@Z = .text:0x10001620; // type:function size:0x50
?Set@LHTransportInfo@@QAEXPADG@Z = .text:0x10001670; // type:function size:0x80
??0LHTransportInfo@@QAE@PADG@Z = .text:0x100016F0; // type:function size:0x90
?Set@LHTransportInfo@@QAEXG@Z = .text:0x10001780; // type:function size:0x30
??0LHTransportInfo@@QAE@G@Z = .text:0x100017B0; // type:function size:0x40
?Set@LHTransportInfo@@QAEXW4LH_TRANSPORT_TYPE@@@Z = .text:0x100017F0; // type:function size:0x20
??0LHTransportInfo@@QAE@W4LH_TRANSPORT_TYPE@@@Z = .text:0x10001810; // type:function size:0x20
?GetPort@LHTransportInfo@@QAEGXZ = .text:0x10001830; // type:function size:0x10
?GetIP@LHTransportInfo@@QAEPADXZ = .text:0x10001840; // type:function size:0x10
?Compare@LHTransportInfo@@QAEJPAV1@@Z = .text:0x10001850; // type:function size:0x40
??0LHTransportInfo@@QAE@ABV0@@Z = .text:0x10001890; // type:function size:0x60
??4LHTransportInfo@@QAEAAV0@ABV0@@Z = .text:0x100018F0; // type:function size:0x60
?Set@LHTransportInfo@@QAEXW4LH_TRANSPORT_TYPE@@KPAX@Z = .text:0x10001950; // type:function size:0x40
?UpdateLength@LHTransportInfo@@QAEXXZ = .text:0x10001990; // type:function size:0x30
??0LHPlayer@@QAE@XZ = .text:0x100019C0; // type:function size:0x50
?GetPlayerID@LHPlayer@@SA?AULH_USER_ID@@U2@PAV?$LHLinkedList@PAVLHPlayer@@@@@Z = .text:0x10001A10; // type:function size:0x30
?SetTransportInfo@LHPlayer@@QAEXPAVLHTransportInfo@@@Z = .text:0x10001A40; // type:function size:0x60
?GetTransportInfo@LHPlayer@@QAEPAVLHTransportInfo@@XZ = .text:0x10001AA0; // type:function size:0x20
?GetName@LHPlayer@@QAEPAGXZ = .text:0x10001AC0; // type:function size:0x10
?GetUserID@LHPlayer@@QAE?AULH_USER_ID@@XZ = .text:0x10001AD0; // type:function size:0x10
?IsServer@LHPlayer@@QAEHXZ = .text:0x10001AE0; // type:function size:0x30
?GetPlayerID@LHPlayer@@QAEJXZ = .text:0x10001B10; // type:function size:0x10
?SetPlayerID@LHPlayer@@QAEXJ@Z = .text:0x10001B20; // type:function size:0x10
?GetUserFileName@LHPlayer@@QAEPBDXZ = .text:0x10001B30; // type:function size:0x10
?GetSystemData@LHPlayer@@QAEPAXXZ = .text:0x10001B40; // type:function size:0x10
?GetUserData@LHPlayer@@QAEPAXXZ = .text:0x10001B50; // type:function size:0x10
?GetUserDataLen@LHPlayer@@QAEKXZ = .text:0x10001B60; // type:function size:0x10
?IsHost@LHPlayer@@QAE_NXZ = .text:0x10001B70; // type:function size:0x10
??0LHPlayer@@QAE@ABV0@@Z = .text:0x10001B80; // type:function size:0x100
??4LHPlayer@@QAEAAV0@ABV0@@Z = .text:0x10001C80; // type:function size:0x110
?ClearAllData@LHNetEvent@@AAEXXZ = .text:0x10001D90; // type:function size:0x30
??0LHNetEvent@@AAE@XZ = .text:0x10001DC0; // type:function size:0x50
?GetPacket@LHNetEvent@@QAEPAVLHPacket@@XZ = .text:0x10001E10; // type:function size:0x10
?GetHeaderSize@LHNetEvent@@QAEKXZ = .text:0x10001E20; // type:function size:0x10
?GetDataLen@LHNetEvent@@QAEKXZ = .text:0x10001E30; // type:function size:0x10
?GetUserID@LHNetEvent@@QAE?AULH_USER_ID@@XZ = .text:0x10001E40; // type:function size:0x10
?GetDataPtr@LHNetEvent@@QAEPAXXZ = .text:0x10001E50; // type:function size:0x10
?GetType@LHNetEvent@@QAE?AW4LH_NETEVENT_TYPE@@XZ = .text:0x10001E60; // type:function size:0x10
?GetChannelName@LHNetEvent@@QAEPADXZ = .text:0x10001E70; // type:function size:0x10
?CreateSimple@LHNetEvent@@SAPAV1@JKPAX@Z = .text:0x10001E80; // type:function size:0x20
?GetTickCount@LHNetEvent@@QAEKXZ = .text:0x10001EA0; // type:function size:0x10
?SetTickCount@LHNetEvent@@QAEXK@Z = .text:0x10001EB0; // type:function size:0x10
?GetUDPinfo@LHNetEvent@@QAEPAVLHTransportInfo@@XZ = .text:0x10001EC0; // type:function size:0x10
??0LHNetEvent@@QAE@ABV0@@Z = .text:0x10001ED0; // type:function size:0x70
??4LHNetEvent@@QAEAAV0@ABV0@@Z = .text:0x10001F40; // type:function size:0x70
?ProcessEvent@LHConnection@@EAE?AW4LH_RETURN@@PAVLHNetEvent@@@Z = .text:0x10001FB0; // type:function size:0x10
??0LHConnection@@QAE@XZ = .text:0x10001FC0; // type:function size:0x20
??0LHConnection@@QAE@P6A?AW4LH_RETURN@@PAVLHNetEvent@@PAV0@PAX@Z2@Z = .text:0x10001FE0; // type:function size:0x30
?IsOpen@LHConnection@@QAEHXZ = .text:0x10002010; // type:function size:0x10
?GetNetUser@LHConnection@@QAEPAVLHNetUser@@XZ = .text:0x10002020; // type:function size:0x10
?GetUserID@LHConnection@@QAE?AULH_USER_ID@@XZ = .text:0x10002030; // type:function size:0x20
?GetUserNameA@LHConnection@@QAEPAGXZ = .text:0x10002050; // type:function size:0x10
?GetMode@LHConnection@@QAE?AW4LH_OPERATING_MODE@@XZ = .text:0x10002060; // type:function size:0x10
?GetConnectedUserID@LHConnection@@QAE?AULH_USER_ID@@XZ = .text:0x10002070; // type:function size:0x10
?GetConnectedUserName@LHConnection@@QAEPAGXZ = .text:0x10002080; // type:function size:0x10
?GetRegisteredName@LHConnection@@QAEPADXZ = .text:0x10002090; // type:function size:0x10
?IsValid@LHConnection@@QAEHXZ = .text:0x100020A0; // type:function size:0x10
?IsConnected@LHConnection@@QAEHXZ = .text:0x100020B0; // type:function size:0x10
??0LHConnection@@QAE@ABV0@@Z = .text:0x100020C0; // type:function size:0x80
??4LHConnection@@QAEAAV0@ABV0@@Z = .text:0x10002140; // type:function size:0x80
fn_100021E0 = .text:0x100021E0; // type:function size:0x60
??0LHChannel@@QAE@XZ = .text:0x10002240; // type:function size:0x50
??0LHChannel@@QAE@PAD@Z = .text:0x10002290; // type:function size:0x60
?SetName@LHChannel@@QAEXPBD@Z = .text:0x100022F0; // type:function size:0x20
?SetPassword@LHChannel@@QAEXPBD@Z = .text:0x10002310; // type:function size:0x20
?GetName@LHChannel@@QAEPADXZ = .text:0x10002330; // type:function size:0x10
?GetPlayerList@LHChannel@@QAEPAV?$LHLinkedList@PAVLHPlayer@@@@XZ = .text:0x10002340; // type:function size:0x10
?GetNextPlayer@LHChannel@@QAEPAVLHPlayer@@PAV2@@Z = .text:0x10002350; // type:function size:0x40
?GetSize@LHChannel@@QAEKXZ = .text:0x10002390; // type:function size:0x10
?GetGameData@LHChannel@@QAEPAXXZ = .text:0x100023A0; // type:function size:0x10
?GetGameDataLength@LHChannel@@QAEKXZ = .text:0x100023B0; // type:function size:0x10
??0LHChannel@@QAE@ABV0@@Z = .text:0x100023C0; // type:function size:0x50
??4LHChannel@@QAEAAV0@ABV0@@Z = .text:0x10002410; // type:function size:0x60
fn_10002490 = .text:0x10002490; // type:function size:0x60
??0LHMPPacketSave@@QAE@XZ = .text:0x100024F0; // type:function size:0x30
?UnReadEvent@LHMPPacketSave@@QAEXXZ = .text:0x10002520; // type:function size:0x10
?IsOpen@LHMPPacketSave@@QAEHXZ = .text:0x10002530; // type:function size:0x10
??4LHMPPacketSave@@QAEAAV0@ABV0@@Z = .text:0x10002540; // type:function size:0x20
??1LHMPPacketSave@@QAE@XZ = .text:0x10002560; // type:function size:0x10
??0LHLocalLobbyInfo@@QAE@XZ = .text:0x10002570; // type:function size:0xA0
??0LHLocalLobbyInfo@@QAE@PADPAVLHTransportInfo@@1PAV?$LHLinkedList@PAVLHPlayer@@@@W4CATEGORY@LH_USER_ID@@H@Z = .text:0x10002610; // type:function size:0xC0
??0LHLocalLobbyInfo@@QAE@ABV0@@Z = .text:0x100026D0; // type:function size:0x110
??4LHLocalLobbyInfo@@QAEAAV0@ABV0@@Z = .text:0x100027E0; // type:function size:0x120
fn_10002900 = .text:0x10002900; // type:function size:0x30
?GetUserID@LHLobbyChannel@@AAE?AULH_USER_ID@@XZ = .text:0x10002930; // type:function size:0x20
??0LHLobbyChannel@@QAE@XZ = .text:0x10002950; // type:function size:0x80
??0LHLobbyChannel@@QAE@PADPAVLHLobby@@@Z = .text:0x100029D0; // type:function size:0xA0
?FindChannel@LHLobbyChannel@@SAPAV1@PADPAV?$LHLinkedList@PAVLHLobbyChannel@@@@@Z = .text:0x10002A70; // type:function size:0x20
?GetSession@LHLobbyChannel@@QAEPAVLHSession@@XZ = .text:0x10002A90; // type:function size:0x10
?GetPacketSource@LHLobbyChannel@@QAE?AW4LH_PACKET_SOURCE@@XZ = .text:0x10002AA0; // type:function size:0x10
?SetPacketSource@LHLobbyChannel@@QAEXW4LH_PACKET_SOURCE@@@Z = .text:0x10002AB0; // type:function size:0x10
?GetLobby@LHLobbyChannel@@QAEPAVLHLobby@@XZ = .text:0x10002AC0; // type:function size:0x10
??0LHLobbyChannel@@QAE@ABV0@@Z = .text:0x10002AD0; // type:function size:0xB0
??4LHLobbyChannel@@QAEAAV0@ABV0@@Z = .text:0x10002B80; // type:function size:0xB0
fn_10002C50 = .text:0x10002C50; // type:function size:0x60
?FindOrCreateChannel@LHLobby@@AAEPAVLHLobbyChannel@@PADPAV1@@Z = .text:0x10002CB0; // type:function size:0x20
?FindDefaultChannel@LHLobby@@QAEPAVLHLobbyChannel@@XZ = .text:0x10002CD0; // type:function size:0x20
?FindChannel@LHLobby@@QAEPAVLHLobbyChannel@@PAD@Z = .text:0x10002CF0; // type:function size:0x20
?FindLocalLobby@LHLobby@@SAPAVLHLocalLobbyInfo@@PAVLHTransportInfo@@@Z = .text:0x10002D10; // type:function size:0x20
?FindLocalLobbyFromIP@LHLobby@@SAPAVLHLocalLobbyInfo@@PAD@Z = .text:0x10002D30; // type:function size:0x20
?GetMSAcceptorInfo@LHLobby@@QAEPAVLHTransportInfo@@XZ = .text:0x10002D50; // type:function size:0x10
?GetConnectedLobbyName@LHLobby@@QAEPADXZ = .text:0x10002D60; // type:function size:0x10
?GetChannel@LHLobby@@QAEPAVLHLobbyChannel@@PAVLHNetEvent@@@Z = .text:0x10002D70; // type:function size:0x20
?GetLastJoinChannelInfo@LHLobby@@QAEXPAPAGPAW4LH_PLAYER_EVENT@@@Z = .text:0x10002D90; // type:function size:0x20
?GetLastJoinUserID@LHLobby@@QAE?AULH_USER_ID@@XZ = .text:0x10002DB0; // type:function size:0x10
?IsInternalLobbyConnection@LHLobby@@QAEHXZ = .text:0x10002DC0; // type:function size:0x10
?IsGlobalLobbyConnection@LHLobby@@QAEHXZ = .text:0x10002DD0; // type:function size:0x20
?GetNumberOfChannels@LHLobby@@QAEKXZ = .text:0x10002DF0; // type:function size:0x10
?GetInternalLobbyServerConnection@LHLobby@@SAPAV1@XZ = .text:0x10002E00; // type:function size:0x10
??0LHLobby@@QAE@ABV0@@Z = .text:0x10002E10; // type:function size:0x100
??4LHLobby@@QAEAAV0@ABV0@@Z = .text:0x10002F10; // type:function size:0x100
fn_10003030 = .text:0x10003030; // type:function size:0x60
??0LHSession@@QAE@XZ = .text:0x10003090; // type:function size:0xA0
lbl_10003130 = .text:0x10003130; // type:label
lbl_10003140 = .text:0x10003140; // type:label
?GetGameTickInterval@LHSession@@QAEKXZ = .text:0x10003150; // type:function size:0x10
?Write@LHSession@@QAE?AW4LH_RETURN@@PAVLHNetEvent@@@Z = .text:0x10003160; // type:function size:0x10
?GetSuperPacketGameTurn@LHSession@@QAEJXZ = .text:0x10003170; // type:function size:0x10
?GetPlayerList@LHSession@@QAEPAV?$LHLinkedList@PAVLHPlayer@@@@XZ = .text:0x10003180; // type:function size:0x10
?GetNumberOfPlayers@LHSession@@QAEKXZ = .text:0x10003190; // type:function size:0x10
?GetNextPlayer@LHSession@@QAEPAVLHPlayer@@PAV2@@Z = .text:0x100031A0; // type:function size:0x40
?GetChecksumErrorData@LHSession@@QAEPAXXZ = .text:0x100031E0; // type:function size:0x10
?GetChecksumErrorLength@LHSession@@QAEKXZ = .text:0x100031F0; // type:function size:0x10
?GetChecksumFromFileFlag@LHSession@@QAEKXZ = .text:0x10003200; // type:function size:0x10
?GetChecksumErrorPlayer@LHSession@@QAEPAVLHPlayer@@XZ = .text:0x10003210; // type:function size:0x10
?GetLobbyChannel@LHSession@@QAEPAVLHLobbyChannel@@XZ = .text:0x10003220; // type:function size:0x10
?IsThisMe@LHSession@@QAEHPAVLHPlayer@@@Z = .text:0x10003230; // type:function size:0x20
?CheckForSuperPackets@LHSession@@QAEHXZ = .text:0x10003250; // type:function size:0x10
?GetGameData@LHSession@@QAEPAXXZ = .text:0x10003260; // type:function size:0x10
?GetGameDataLength@LHSession@@QAEKXZ = .text:0x10003270; // type:function size:0x10
?MGJInProgress@LHSession@@QAEHXZ = .text:0x10003280; // type:function size:0x10
?ClearMGJInProgress@LHSession@@QAEXXZ = .text:0x10003290; // type:function size:0x10
?GetServerClock@LHSession@@QAEPAVLHTimer@@XZ = .text:0x100032A0; // type:function size:0x20
?Destroy@LHSession@@SAXPAV1@@Z = .text:0x100032C0; // type:function size:0x10
?IsHost@LHSession@@QAE_NXZ = .text:0x100032D0; // type:function size:0x10
??0LHSession@@QAE@ABV0@@Z = .text:0x100032E0; // type:function size:0x200
??4LHSession@@QAEAAV0@ABV0@@Z = .text:0x100034E0; // type:function size:0x230
fn_10003730 = .text:0x10003730; // type:function size:0x60
??0LHTransport@@IAE@XZ = .text:0x10003790; // type:function size:0x20
?IsOpen@LHTransport@@QAEHXZ = .text:0x100037B0; // type:function size:0x10
?GetType@LHTransport@@QAE?AW4LH_TRANSPORT_TYPE@@XZ = .text:0x100037C0; // type:function size:0x10
?GetLastEventRead@LHTransport@@QAEPAVLHNetEvent@@XZ = .text:0x100037D0; // type:function size:0x10
?GetOutgoingEventQ@LHTransport@@QAEPAV?$LHDynamicQueue@PAVLHNetEvent@@@@XZ = .text:0x100037E0; // type:function size:0x10
?GetIncomingEventQ@LHTransport@@QAEPAV?$LHDynamicQueue@PAVLHNetEvent@@@@XZ = .text:0x100037F0; // type:function size:0x10
??0LHTransport@@QAE@ABV0@@Z = .text:0x10003800; // type:function size:0x50
??4LHTransport@@QAEAAV0@ABV0@@Z = .text:0x10003850; // type:function size:0x40
fn_100038B0 = .text:0x100038B0; // type:function size:0x60
?SetHookFunction@LHSyncTransport@@QAEXP6AXPAX@Z0@Z = .text:0x10003910; // type:function size:0x20
??0LHSyncTransport@@QAE@ABV0@@Z = .text:0x10003930; // type:function size:0x60
??4LHSyncTransport@@QAEAAV0@ABV0@@Z = .text:0x10003990; // type:function size:0x50
??1LHSyncTransport@@UAE@XZ = .text:0x100039E0; // type:function size:0x10
fn_10003A10 = .text:0x10003A10; // type:function size:0x60
?LockIncomingQ@LHAsyncTransport@@IAEXXZ = .text:0x10003A70; // type:function size:0x10
?UnLockIncomingQ@LHAsyncTransport@@IAEXXZ = .text:0x10003A80; // type:function size:0x10
?LockOutgoingQ@LHAsyncTransport@@IAEXXZ = .text:0x10003A90; // type:function size:0x10
?UnLockOutgoingQ@LHAsyncTransport@@IAEXXZ = .text:0x10003AA0; // type:function size:0x10
?GetSignalDataToRead@LHAsyncTransport@@UAEPAXXZ = .text:0x10003AB0; // type:function size:0x10
??0LHAsyncTransport@@QAE@ABV0@@Z = .text:0x10003AC0; // type:function size:0x80
??4LHAsyncTransport@@QAEAAV0@ABV0@@Z = .text:0x10003B40; // type:function size:0x70
fn_10003BD0 = .text:0x10003BD0; // type:function size:0x60
??0LHTransportRemote@@QAE@ABV0@@Z = .text:0x10003C30; // type:function size:0x90
??4LHTransportRemote@@QAEAAV0@ABV0@@Z = .text:0x10003CC0; // type:function size:0x80
fn_10003D60 = .text:0x10003D60; // type:function size:0x60
??0LHTransportTCP@@QAE@ABV0@@Z = .text:0x10003DC0; // type:function size:0xA0
??4LHTransportTCP@@QAEAAV0@ABV0@@Z = .text:0x10003E60; // type:function size:0x90
fn_10003F10 = .text:0x10003F10; // type:function size:0x60
??0LHTransportUDP@@QAE@ABV0@@Z = .text:0x10003F70; // type:function size:0xA0
??4LHTransportUDP@@QAEAAV0@ABV0@@Z = .text:0x10004010; // type:function size:0x90
fn_100040C0 = .text:0x100040C0; // type:function size:0x60
?FindChannel@LHChannel@@SAPAV1@PADPAV?$LHLinkedList@PAVLHChannel@@@@@Z = .text:0x10004120; // type:function size:0x60
?ClearAllData@LHChannel@@IAEXXZ = .text:0x10004180; // type:function size:0x90
?GetPlayer@LHChannel@@QAEPAVLHPlayer@@ULH_USER_ID@@@Z = .text:0x10004210; // type:function size:0x30
?AddPlayer@LHChannel@@QAE?AW4LH_RETURN@@PAVLHPlayer@@PAD@Z = .text:0x10004240; // type:function size:0xA0
?RemovePlayer@LHChannel@@QAE?AW4LH_RETURN@@PAVLHPlayer@@@Z = .text:0x100042E0; // type:function size:0x70
??1LHChannel@@UAE@XZ = .text:0x10004350; // type:function size:0xA0
?SetGameData@LHChannel@@QAE?AW4LH_RETURN@@KPAX@Z = .text:0x100043F0; // type:function size:0x60
?GetFirstUserID@LHChannel@@QAE?AULH_USER_ID@@XZ = .text:0x10004450; // type:function size:0x40
?GetEncodedLength@LHChannel@@UAEKKPAX@Z = .text:0x10004490; // type:function size:0x60
?EncodeToBuffer@LHChannel@@UAEPAEPAEKPAX@Z = .text:0x100044F0; // type:function size:0x90
?DecodeFromBuffer@LHChannel@@UAEPAEPAE@Z = .text:0x10004580; // type:function size:0x60
?ClearObject@LHChannel@@UAEXXZ = .text:0x100045E0; // type:function size:0x10
fn_10004610 = .text:0x10004610; // type:function size:0x40
fn_10004650 = .text:0x10004650; // type:function size:0x20
?ClearAllData@LHConnection@@IAEXXZ = .text:0x10004670; // type:function size:0x50
?SetNetUser@LHConnection@@QAEXPAVLHNetUser@@@Z = .text:0x100046C0; // type:function size:0x20
?GetTransportType@LHConnection@@QAE?AW4LH_TRANSPORT_TYPE@@XZ = .text:0x100046E0; // type:function size:0x20
?AddToIncomingEventQ@LHConnection@@QAEXPAVLHNetEvent@@@Z = .text:0x10004700; // type:function size:0x20
?AddToFrontOfIncomingEventQ@LHConnection@@QAEXPAVLHNetEvent@@@Z = .text:0x10004720; // type:function size:0x20
?AddAtPositionInIncomingEventQ@LHConnection@@QAEXPAVLHNetEvent@@K@Z = .text:0x10004740; // type:function size:0x20
?GetIncomingEventQSize@LHConnection@@QAEKXZ = .text:0x10004760; // type:function size:0x20
?Flushed@LHConnection@@QAE_NXZ = .text:0x10004780; // type:function size:0x20
?GetSignalDataToRead@LHConnection@@QAEPAXXZ = .text:0x100047A0; // type:function
?Read@LHConnection@@UAEPAVLHNetEvent@@KW4LH_NETEVENT_TYPE@@@Z = .text:0x100047B0; // type:function
?RawRead@LHConnection@@QAEPAVLHNetEvent@@KW4LH_NETEVENT_TYPE@@@Z = .text:0x100047F0; // type:function size:0x50
?RawPeek@LHConnection@@QAEPAVLHNetEvent@@KW4LH_NETEVENT_TYPE@@@Z = .text:0x10004840; // type:function size:0x30
?Peek@LHConnection@@QAEPAVLHNetEvent@@K@Z = .text:0x10004870; // type:function size:0x20
?Disconnect@LHConnection@@QAEXXZ = .text:0x10004890; // type:function size:0x20
?BaseProcessEvent@LHConnection@@AAE?AW4LH_RETURN@@PAVLHNetEvent@@@Z = .text:0x100048B0; // type:function size:0x90
?SetConnectedUserName@LHConnection@@AAE?AW4LH_RETURN@@PAG@Z = .text:0x10004940; // type:function size:0x20
?ProcessClientJoin@LHConnection@@AAE?AW4LH_RETURN@@PAVLHNetEvent@@@Z = .text:0x10004960; // type:function size:0xC0
?DetermineConnectionProtocol@LHConnection@@SA?AW4LH_RETURN@@PAV1@KPAKK@Z = .text:0x10004A20; // type:function size:0x40
?WriteLastError@LHConnection@@AAEXW4LH_NETEVENT_TYPE@@@Z = .text:0x10004A60; // type:function size:0x50
?FeedbackLastErrorAndClose@LHConnection@@AAEXXZ = .text:0x10004AB0; // type:function size:0x50
?ProcessServerRequestChallenge@LHConnection@@AAE?AW4LH_RETURN@@PAVLHNetEvent@@@Z = .text:0x10004B00; // type:function size:0x90
?ProcessClientChallengeResponse@LHConnection@@AAE?AW4LH_RETURN@@PAVLHNetEvent@@@Z = .text:0x10004B90; // type:function size:0xC0
?ProcessServerConnectionValidated@LHConnection@@AAE?AW4LH_RETURN@@PAVLHNetEvent@@@Z = .text:0x10004C50; // type:function size:0x50
?ProcessServerConnectionRefused@LHConnection@@AAE?AW4LH_RETURN@@PAVLHNetEvent@@@Z = .text:0x10004CA0; // type:function size:0x40
?ProcessServerGreeting@LHConnection@@AAE?AW4LH_RETURN@@PAVLHNetEvent@@@Z = .text:0x10004CE0; // type:function size:0x40
?WaitForConnectionValidation@LHConnection@@AAE?AW4LH_RETURN@@XZ = .text:0x10004D20; // type:function size:0x50
?Write@LHConnection@@QAE?AW4LH_RETURN@@PAVLHNetEvent@@@Z = .text:0x10004D70; // type:function size:0x90
?Write@LHConnection@@QAE?AW4LH_RETURN@@PAVLHNetEvent@@PAVLHTransportInfo@@@Z = .text:0x10004E00; // type:function size:0x50
?OpenClientConnection@LHConnection@@QAE?AW4LH_RETURN@@PAVLHNetUser@@PAVLHTransportInfo@@@Z = .text:0x10004E50; // type:function size:0x30
?SendClientProtocol@LHConnection@@AAE?AW4LH_RETURN@@XZ = .text:0x10004E80; // type:function size:0x60
?RawOpen@LHConnection@@QAE?AW4LH_RETURN@@PAVLHNetUser@@PAVLHTransportInfo@@@Z = .text:0x10004EE0; // type:function size:0xA0
?ConnectionOriented@LHConnection@@QAEHXZ = .text:0x10004F80; // type:function size:0x20
?OpenServerConnectionToExternalTransport@LHConnection@@QAE?AW4LH_RETURN@@PAVLHNetUser@@PAVLHTransport@@@Z = .text:0x10004FA0; // type:function size:0x60
?OpenServerConnectionToOtherConnection@LHConnection@@QAE?AW4LH_RETURN@@PAVLHNetUser@@PAV1@P6AXPAX@Z2@Z = .text:0x10005000; // type:function size:0x190
?SetEventFunction@LHConnection@@QAEXP6A?AW4LH_RETURN@@PAVLHNetEvent@@PAV1@PAX@Z2@Z = .text:0x10005190; // type:function size:0x20
?ClearTransport@LHConnection@@AAEXXZ = .text:0x100051B0; // type:function size:0x30
?Flush@LHConnection@@QAE?AW4LH_RETURN@@K@Z = .text:0x100051E0; // type:function size:0x50
?Close@LHConnection@@UAEXXZ = .text:0x10005230; // type:function size:0x20
??1LHConnection@@UAE@XZ = .text:0x10005250; // type:function size:0x20
?IsDisconnected@LHConnection@@QAEHXZ = .text:0x10005270; // type:function size:0x20
?IsInternal@LHConnection@@QAEHXZ = .text:0x10005290; // type:function
?CheckForEvents@LHConnection@@QAEHXZ = .text:0x100052D0; // type:function size:0x20
?CheckForEvent@LHConnection@@QAEHW4LH_NETEVENT_TYPE@@@Z = .text:0x100052F0; // type:function
?GetLastEventRead@LHConnection@@IAEPAVLHNetEvent@@XZ = .text:0x10005310; // type:function size:0x10
?SetLastEventReadToBeIgnored@LHConnection@@IAEXXZ = .text:0x10005320; // type:function size:0x10
?GetProtocolVersion@LHConnection@@AAEKXZ = .text:0x10005330; // type:function size:0x30
?BlockingMultipleRead@LHConnection@@SAPAVLHNetEvent@@PAPAV1@ZZ = .text:0x10005360; // type:function size:0x40
?BlockingMultipleRead@LHConnection@@SAPAVLHNetEvent@@PAKPAPAV1@K@Z = .text:0x100053A0; // type:function size:0xF0
?GetTransportInfo@LHConnection@@QAE?AW4LH_RETURN@@PAVLHTransportInfo@@H@Z = .text:0x10005490; // type:function size:0x20
fn_100054B0 = .text:0x100054B0; // type:function size:0x10
fn_100054C0 = .text:0x100054C0; // type:function size:0x20
lbl_100054F0 = .text:0x100054F0; // type:label
??1LHVersion@@QAE@XZ = .text:0x100054F5; // type:function size:0x6
lbl_10005500 = .text:0x10005500; // type:label
fn_10005570 = .text:0x10005570; // type:function size:0x50
fn_100055C0 = .text:0x100055C0; // type:function size:0x30
fn_100055F0 = .text:0x100055F0; // type:function size:0x60
fn_10005650 = .text:0x10005650; // type:function size:0x70
fn_100056C0 = .text:0x100056C0; // type:function size:0x20
fn_100056E0 = .text:0x100056E0; // type:function size:0x30
fn_10005970 = .text:0x10005970; // type:function size:0x2E0
lbl_10005C50 = .text:0x10005C50; // type:label
lbl_10005C70 = .text:0x10005C70; // type:label
fn_10005C90 = .text:0x10005C90; // type:function size:0x50
fn_10005CE0 = .text:0x10005CE0; // type:function size:0x40
fn_10005D20 = .text:0x10005D20; // type:function size:0x50
fn_10005D70 = .text:0x10005D70; // type:function size:0x20
fn_10005D90 = .text:0x10005D90; // type:function size:0x30
fn_10005DE0 = .text:0x10005DE0; // type:function size:0x70
fn_10005E50 = .text:0x10005E50; // type:function size:0x20
fn_10005E70 = .text:0x10005E70; // type:function size:0x160
fn_10005FD0 = .text:0x10005FD0; // type:function size:0x90
fn_10006060 = .text:0x10006060; // type:function size:0x90
fn_100060F0 = .text:0x100060F0; // type:function size:0x150
lbl_10006290 = .text:0x10006290; // type:label
lbl_100062A0 = .text:0x100062A0; // type:label
fn_10006990 = .text:0x10006990; // type:function size:0x160
fn_10006AF0 = .text:0x10006AF0; // type:function size:0x40
fn_10006B80 = .text:0x10006B80; // type:function size:0x50
fn_10006BD0 = .text:0x10006BD0; // type:function size:0x30
fn_10006C00 = .text:0x10006C00; // type:function size:0x50
fn_10006C50 = .text:0x10006C50; // type:function size:0x60
fn_10006F20 = .text:0x10006F20; // type:function size:0x20
fn_10006F40 = .text:0x10006F40; // type:function size:0x10
fn_10006F50 = .text:0x10006F50; // type:function
fn_10006FE0 = .text:0x10006FE0; // type:function size:0x120
fn_10007100 = .text:0x10007100; // type:function size:0x30
fn_10007140 = .text:0x10007140; // type:function size:0x20
??0DBInfo@@QAE@XZ = .text:0x10007160; // type:function size:0x40
??1DBInfo@@QAE@XZ = .text:0x100071A0; // type:function size:0x70
??4DBInfo@@QAEAAU0@ABU0@@Z = .text:0x10007210; // type:function size:0x20
fn_10007230 = .text:0x10007230; // type:function size:0x30
fn_10007260 = .text:0x10007260; // type:function size:0x90
fn_100072F0 = .text:0x100072F0; // type:function size:0xA0
fn_10007390 = .text:0x10007390; // type:function size:0xF0
?Reset@DBInfo@@QAEXXZ = .text:0x10007480; // type:function size:0x80
fn_10007500 = .text:0x10007500; // type:function size:0x30
fn_10007530 = .text:0x10007530; // type:function size:0x30
fn_10007560 = .text:0x10007560; // type:function size:0x30
fn_10007590 = .text:0x10007590; // type:function size:0x20
fn_100075B0 = .text:0x100075B0; // type:function size:0x90
?LHWebEncode@@YA?AW4LH_RETURN@@PADKPAPADPAK@Z = .text:0x10007640; // type:function size:0x60
?LHWebDecode@@YA?AW4LH_RETURN@@PADKPAPADPAK@Z = .text:0x100076A0; // type:function size:0x70
?LHWebEncodingFreePtr@@YAXPAD@Z = .text:0x10007710; // type:function size:0x10
?db_get_status_async@@YA?AW4DBSTATUS@@PAUDBInfo@@@Z = .text:0x10007720; // type:function size:0x115
lbl_10007750 = .text:0x10007750; // type:label
lbl_10007827 = .text:0x10007827; // type:label
lbl_10007835 = .text:0x10007835; // type:label
lbl_10007854 = .text:0x10007854; // type:label
lbl_1000787C = .text:0x1000787C; // type:label
lbl_10007894 = .text:0x10007894; // type:label
lbl_10007915 = .text:0x10007915; // type:label
lbl_10007930 = .text:0x10007930; // type:label
lbl_10007949 = .text:0x10007949; // type:label
lbl_100079A8 = .text:0x100079A8; // type:label
lbl_100079C4 = .text:0x100079C4; // type:label
lbl_100079D4 = .text:0x100079D4; // type:label
?db_get_result@@YA?AW4LH_RETURN@@PAUDBInfo@@PAK1PAPAPAD@Z = .text:0x10007A40; // type:function size:0x60
?db_execute_transaction_async@@YA?AW4DBSTATUS@@PAUDBInfo@@PADPAVLHNetUser@@PAVLHTransportInfo@@@Z = .text:0x10007AA0; // type:function size:0x4D0
?db_parse_sql_returnbuffer@@YA?AW4LH_RETURN@@PADPAPAPADPAK2@Z = .text:0x10007F70; // type:function size:0x1D0
?db_free_data@@YAXPAPAD@Z = .text:0x10008140; // type:function size:0x30
?db_execute_transaction@@YA?AW4LH_RETURN@@PADPAK1PAPAPADPAVLHTransportInfo@@@Z = .text:0x10008170; // type:function size:0x2A0
?IsReceivingHeader@LHFileDownload@@QAEHXZ = .text:0x10008410; // type:function size:0x10
?IsSendingRequest@LHFileDownload@@QAEHXZ = .text:0x10008420; // type:function size:0x10
?IsDownloading@LHFileDownload@@QAEHXZ = .text:0x10008430; // type:function size:0x10
?IsIdle@LHFileDownload@@QAEHXZ = .text:0x10008440; // type:function size:0x10
?IsWaiting@LHFileDownload@@QAEHXZ = .text:0x10008450; // type:function size:0x10
?GetTransferSpeed@LHFileDownload@@QAEMXZ = .text:0x10008460; // type:function size:0x10
?GetFilename@LHFileDownload@@QAEPADXZ = .text:0x10008470; // type:function size:0x10
??4LHFileDownload@@QAEAAV0@ABV0@@Z = .text:0x10008480; // type:function size:0x20
??0LHFileDownload@@QAE@XZ = .text:0x100084A0; // type:function size:0x50
??1LHFileDownload@@QAE@XZ = .text:0x100084F0; // type:function size:0x80
?DownloadFile@LHFileDownload@@QAE?AW4LH_FILE_DOWNLOAD_RETURNS@@PADG000H@Z = .text:0x10008570; // type:function size:0x180
?GetPercentageDownloaded@LHFileDownload@@QAEMXZ = .text:0x100086F0; // type:function size:0x60
?Refresh@LHFileDownload@@QAE?AW4LH_FILE_DOWNLOAD_RETURNS@@XZ = .text:0x10008750; // type:function size:0x700
?StopDownload@LHFileDownload@@QAEXXZ = .text:0x10008E50; // type:function size:0x140
fn_10008F90 = .text:0x10008F90; // type:function size:0x20
??0LHSocket@@QAE@ABV0@@Z = .text:0x10008FB0; // type:function size:0x60
??4LHSocket@@QAEAAV0@ABV0@@Z = .text:0x10009010; // type:function size:0x50
?GetSignal@LHSocketTCP@@QAEPAXXZ = .text:0x10009060; // type:function size:0x10
?IsDisconnected@LHSocketTCP@@QAE_NXZ = .text:0x10009070; // type:function size:0x10
?IsConnected@LHSocketTCP@@QAE_NXZ = .text:0x10009080; // type:function size:0x10
??0LHSocketTCP@@QAE@ABV0@@Z = .text:0x10009090; // type:function size:0x110
??4LHSocketTCP@@QAEAAV0@ABV0@@Z = .text:0x100091A0; // type:function size:0x120
??0LHHttp@@QAE@XZ = .text:0x100092C0; // type:function size:0x30
??1LHHttp@@QAE@XZ = .text:0x100092F0; // type:function size:0x50
?Open@LHHttp@@QAE?AW4LH_RETURN@@PADG@Z = .text:0x10009340; // type:function size:0x140
?Close@LHHttp@@QAE?AW4LH_RETURN@@XZ = .text:0x10009480; // type:function size:0x40
?SendRequest@LHHttp@@QAE?AW4LH_RETURN@@W4HTTP_REQUEST_TYPE@@PAD@Z = .text:0x100094C0; // type:function size:0x1C0
?SendHeader@LHHttp@@QAE?AW4LH_RETURN@@PAD@Z = .text:0x10009680; // type:function size:0xC0
?SendHeaderInternal@LHHttp@@AAE?AW4LH_RETURN@@PAD@Z = .text:0x10009740; // type:function size:0x70
?SendInternalEndOfRequest@LHHttp@@AAE?AW4LH_RETURN@@H@Z = .text:0x100097B0; // type:function size:0x90
?SendEndOfRequest@LHHttp@@QAE?AW4LH_RETURN@@XZ = .text:0x10009840; // type:function size:0x70
?SendRawData@LHHttp@@QAE?AW4LH_RETURN@@PADKPAK_N@Z = .text:0x100098B0; // type:function size:0xE0
?GetDocumentType@LHHttp@@QAE?AW4LH_RETURN@@PAD@Z = .text:0x10009990; // type:function size:0x30
?GetDocumentSize@LHHttp@@QAE?AW4LH_RETURN@@PAK@Z = .text:0x100099C0; // type:function size:0xE0
?GetDocument@LHHttp@@QAE?AW4LH_RETURN@@PADPAK@Z = .text:0x10009AA0; // type:function size:0x160
?GetServerResponseHeader@LHHttp@@QAE?AW4LH_RETURN@@PAG@Z = .text:0x10009C00; // type:function size:0x4A0
?UploadFile@LHHttp@@QAE?AW4LH_RETURN@@PAD0@Z = .text:0x1000A0A0; // type:function size:0x140
?GetUntilCRLF@LHHttp@@QAE?AW4LH_RETURN@@PADPAK@Z = .text:0x1000A1E0; // type:function size:0x110
?IsDataAvailable@LHHttp@@QAE?AW4LH_RETURN@@XZ = .text:0x1000A2F0; // type:function size:0x10
?CheckServerResponseHeader@LHHttp@@QAE?AW4LH_RETURN@@PAGPAW4HTTP_RECEIVED_STATUS@@@Z = .text:0x1000A300; // type:function size:0x280
?ParseURI@LHHttp@@AAE?AW4LH_RETURN@@PAD0PAG0@Z = .text:0x1000A580; // type:function size:0x160
?CleanData@LHHttp@@QAEXXZ = .text:0x1000A6E0; // type:function size:0xF0
?GetDocumentAsync@LHHttp@@QAE?AW4LH_RETURN@@PADPAK@Z = .text:0x1000A7D0; // type:function size:0x1B0
?Reset@LHHttpHeaderStatus@@QAEXXZ = .text:0x1000A980; // type:function size:0xA0
?ParseLocationData@LHHttpHeaderStatus@@QAEXXZ = .text:0x1000AA20; // type:function size:0x120
?GetLocationHost@LHHttpHeaderStatus@@QAEPADXZ = .text:0x1000AB40; // type:function size:0x10
?GetLocationURI@LHHttpHeaderStatus@@QAEPADXZ = .text:0x1000AB50; // type:function size:0x10
?GetLocationPort@LHHttpHeaderStatus@@QAEGXZ = .text:0x1000AB60; // type:function size:0x10
fn_1000AB70 = .text:0x1000AB70; // type:function size:0x30
?Reset@LHHttpHeaders@@QAEXXZ = .text:0x1000ABA0; // type:function size:0x70
?AddHeader@LHHttpHeaders@@QAEXPAD@Z = .text:0x1000AC10; // type:function size:0x50
?AddHeader@LHHttpHeaders@@QAEXPAD0@Z = .text:0x1000AC60; // type:function size:0x110
?GetHeader@LHHttpHeaders@@QAEPADPAD@Z = .text:0x1000AD70; // type:function size:0x70
?GetLinkedList@LHHttpHeaders@@QAEPAV?$LHLinkedList@PAD@@XZ = .text:0x1000ADE0; // type:function size:0x10
?GetHeaderString@LHHttpHeaders@@QAEPADXZ = .text:0x1000ADF0; // type:function size:0xF0
?DeleteHeaderString@LHHttpHeaders@@QAEXXZ = .text:0x1000AEE0; // type:function size:0x20
??0LHHttp2@@QAE@XZ = .text:0x1000AF00; // type:function size:0x130
??1LHHttp2@@QAE@XZ = .text:0x1000B030; // type:function size:0xA0
?Reset@LHHttp2@@QAEXXZ = .text:0x1000B0D0; // type:function size:0x140
?Open@LHHttp2@@QAE?AW4LH_RETURN@@PADG@Z = .text:0x1000B210; // type:function size:0x150
?Close@LHHttp2@@QAE?AW4LH_RETURN@@XZ = .text:0x1000B360; // type:function size:0x40
?PrepareRequest@LHHttp2@@QAE?AW4LH_HTTP_STATUS@@W4HTTP_REQUEST_TYPE@@PADPAVLHHttpHeaders@@1K@Z = .text:0x1000B3A0; // type:function size:0x350
?SendRawData@LHHttp2@@QAE?AW4LH_RETURN@@PADKPAK_N@Z = .text:0x1000B6F0; // type:function size:0xE0
?ResetRequest@LHHttp2@@QAEXXZ = .text:0x1000B7D0; // type:function size:0x40
?SendRequestAsync@LHHttp2@@QAE?AW4LH_HTTP_STATUS@@XZ = .text:0x1000B810; // type:function size:0x120
?IsDataAvailable@LHHttp2@@QAE?AW4LH_RETURN@@XZ = .text:0x1000B930; // type:function size:0x20
?ReceiveHeaderAsync@LHHttp2@@QAE?AW4LH_HTTP_STATUS@@XZ = .text:0x1000B950; // type:function size:0x2C0
?GetHeader@LHHttp2@@QAE?AW4LH_HTTP_STATUS@@AAULHHttpHeaderStatus@@@Z = .text:0x1000BC10; // type:function size:0x140
?GetUntilCRLF@LHHttp2@@QAE?AW4LH_HTTP_STATUS@@PADPAK@Z = .text:0x1000BD50; // type:function size:0xA0
?ResetDocumentRecv@LHHttp2@@QAEXXZ = .text:0x1000BDF0; // type:function size:0xB0
?ReceiveDocumentAsync@LHHttp2@@QAE?AW4LH_HTTP_STATUS@@XZ = .text:0x1000BEA0; // type:function size:0x3C0
?GetDocumentSize@LHHttp2@@QAEKXZ = .text:0x1000C260; // type:function size:0x20
?GetDocument@LHHttp2@@QAE?AW4LH_HTTP_STATUS@@PAD@Z = .text:0x1000C280; // type:function size:0x60
?HelperGetDocument@LHHttp2@@QAE?AW4LH_HTTP_STATUS@@_N@Z = .text:0x1000C2E0; // type:function size:0x180
fn_1000C460 = .text:0x1000C460; // type:function size:0x40
fn_1000C4B0 = .text:0x1000C4B0; // type:function size:0x20
fn_1000C4D0 = .text:0x1000C4D0; // type:function size:0x20
fn_1000C4F0 = .text:0x1000C4F0; // type:function size:0x50
fn_1000C540 = .text:0x1000C540; // type:function size:0x10
fn_1000C550 = .text:0x1000C550; // type:function size:0x10
lbl_1000C570 = .text:0x1000C570; // type:label
fn_1000C590 = .text:0x1000C590; // type:function size:0x40
fn_1000C5D0 = .text:0x1000C5D0; // type:function size:0x10
fn_1000C5E0 = .text:0x1000C5E0; // type:function size:0x10
lbl_1000C600 = .text:0x1000C600; // type:label
?ClearAllData@LHLobby@@AAEXXZ = .text:0x1000C620; // type:function size:0x40
?InitLibrary@LHLobby@@SAXXZ = .text:0x1000C660; // type:function size:0x10
?CloseLibrary@LHLobby@@SAXXZ = .text:0x1000C670; // type:function size:0x10
?RequestOnlineStatus@LHLobby@@SAXKPAJPAVLHTransportInfo@@@Z = .text:0x1000C680; // type:function size:0x50
?Chat@LHLobby@@SAXULH_USER_ID@@PAVLHTransportInfo@@PAXK@Z = .text:0x1000C6D0; // type:function size:0x50
?Ping@LHLobby@@SAXPAVLHTransportInfo@@@Z = .text:0x1000C720; // type:function size:0x40
?BroadcastEvent@LHLobby@@SAXPAVLHNetEvent@@PAVLHTransportInfo@@@Z = .text:0x1000C760; // type:function size:0x60
??0LHLobby@@QAE@XZ = .text:0x1000C7C0; // type:function size:0x80
?GetGlobalLobby@LHLobby@@QAEPAV1@XZ = .text:0x1000C840; // type:function size:0x10
?ConnectToChannel@LHLobby@@QAE?AW4LH_RETURN@@PAD0W4LH_NET_CHANNEL_MODE@@@Z = .text:0x1000C850; // type:function size:0x70
?BootOtherUsersOffChannel@LHLobby@@QAE?AW4LH_RETURN@@PAD@Z = .text:0x1000C8C0; // type:function size:0x40
?OpenLANLobby@LHLobby@@QAE?AW4LH_RETURN@@PAVLHNetUser@@PAD@Z = .text:0x1000C900; // type:function size:0x40
?OpenRemoteLobby@LHLobby@@QAE?AW4LH_RETURN@@PAVLHNetUser@@PAVLHTransportInfo@@@Z = .text:0x1000C940; // type:function size:0x90
?GetUserFile@LHLobby@@SAPBDXZ = .text:0x1000C9D0; // type:function size:0x10
?OpenLocalLobby@LHLobby@@QAE?AW4LH_RETURN@@PAULHMPServerStartInfo@@@Z = .text:0x1000C9E0; // type:function size:0x250
?TakeServerOffLan@LHLobby@@SAXXZ = .text:0x1000CC30; // type:function size:0x20
?StopLobbyServerListeningForConnections@LHLobby@@SAXXZ = .text:0x1000CC50; // type:function size:0x20
?PutServerOnLan@LHLobby@@SAXXZ = .text:0x1000CC70; // type:function size:0x20
?SetRegisteredName@LHLobby@@SAPADPBD@Z = .text:0x1000CC90; // type:function size:0x80
?StartInternalLobbyServer@LHLobby@@AAE?AW4LH_RETURN@@PAULHMPServerStartInfo@@@Z = .text:0x1000CD10; // type:function size:0x160
fn_1000CE70 = .text:0x1000CE70; // type:function size:0xA0
fn_1000CF10 = .text:0x1000CF10; // type:function size:0x10
fn_1000CF20 = .text:0x1000CF20; // type:function size:0x20
fn_1000CF40 = .text:0x1000CF40; // type:function size:0x50
?ProcessEvent@LHLobby@@EAE?AW4LH_RETURN@@PAVLHNetEvent@@@Z = .text:0x1000CF90; // type:function size:0xFC
lbl_1000D012 = .text:0x1000D012; // type:label
lbl_1000D01B = .text:0x1000D01B; // type:label
lbl_1000D047 = .text:0x1000D047; // type:label
lbl_1000D050 = .text:0x1000D050; // type:label
lbl_1000D059 = .text:0x1000D059; // type:label
lbl_1000D086 = .text:0x1000D086; // type:label
lbl_1000D08C = .text:0x1000D08C; // type:label
lbl_1000D0A8 = .text:0x1000D0A8; // type:label
?WriteChatFile@LHLobby@@SAXPAD00@Z = .text:0x1000D0C0; // type:function size:0xC0
?ProcessLobbyGreeting@LHLobby@@AAE?AW4LH_RETURN@@PAVLHNetEvent@@@Z = .text:0x1000D180; // type:function size:0xD0
?ProcessLobbyEjectedFromChannel@LHLobby@@AAE?AW4LH_RETURN@@PAVLHNetEvent@@@Z = .text:0x1000D250; // type:function size:0xA0
?ProcessLobbyChannelListInfo@LHLobby@@AAE?AW4LH_RETURN@@PAVLHNetEvent@@@Z = .text:0x1000D2F0; // type:function size:0x30
?ProcessLobbyPlayerList@LHLobby@@AAE?AW4LH_RETURN@@PAVLHNetEvent@@@Z = .text:0x1000D320; // type:function size:0x170
?ProcessLobbyStartMServe@LHLobby@@AAE?AW4LH_RETURN@@PAVLHNetEvent@@@Z = .text:0x1000D490; // type:function size:0xC0
?StartInternalMessageServer@LHLobby@@AAE?AW4LH_RETURN@@PAVLHLobbyChannel@@KW4LH_OPERATING_MODE@@KQAY0DA@GQAULH_USER_ID@@@Z = .text:0x1000D550; // type:function size:0xE0
?StartInternalMessageServer@LHLobby@@SAPAVLHMessageServer@@PAVLHNetUser@@PADKKW4LH_OPERATING_MODE@@KQAY0DA@GQAULH_USER_ID@@@Z = .text:0x1000D630; // type:function size:0x250
fn_1000D880 = .text:0x1000D880; // type:function size:0x110
fn_1000D990 = .text:0x1000D990; // type:function size:0x20
fn_1000D9B0 = .text:0x1000D9B0; // type:function size:0x100
?ProcessLobbyUserFile@LHLobby@@AAE?AW4LH_RETURN@@PAVLHNetEvent@@@Z = .text:0x1000DAB0; // type:function size:0x80
?SendStartMServeResult@LHLobby@@AAE?AW4LH_RETURN@@PADHPAVLHTransportInfo@@W4LH_OPERATING_MODE@@@Z = .text:0x1000DB30; // type:function size:0x50
?ProcessLobbyConnectToMServe@LHLobby@@AAE?AW4LH_RETURN@@PAVLHNetEvent@@@Z = .text:0x1000DB80; // type:function size:0x340
lbl_1000DEC0 = .text:0x1000DEC0; // type:label
?ProcessConnectionClosed@LHLobby@@AAE?AW4LH_RETURN@@XZ = .text:0x1000DED0; // type:function size:0x20
?ProcessLobbyUserFilesTransferComplete@LHLobby@@AAE?AW4LH_RETURN@@PAVLHNetEvent@@@Z = .text:0x1000DEF0; // type:function size:0x40
?CheckSessionReady@LHLobby@@QAE?AW4LH_RETURN@@PAVLHLobbyChannel@@@Z = .text:0x1000DF30; // type:function size:0xB0
?ProcessInternalLobbyNewLocalLobbyList@LHLobby@@AAE?AW4LH_RETURN@@PAVLHNetEvent@@@Z = .text:0x1000DFE0; // type:function size:0x410
?ConnectToPlayer@LHLobby@@QAE?AW4LH_RETURN@@PAVLHPlayer@@PAVLHP2P@@@Z = .text:0x1000E3F0; // type:function size:0x10
??1LHLobby@@UAE@XZ = .text:0x1000E400; // type:function size:0x60
?Close@LHLobby@@UAEXXZ = .text:0x1000E460; // type:function size:0x110
?ClearInternalLobbyServer@LHLobby@@SAXXZ = .text:0x1000E570; // type:function size:0x100
?ClearAllData@LHLobbyChannel@@AAEXXZ = .text:0x1000E670; // type:function size:0x30
??1LHLobbyChannel@@UAE@XZ = .text:0x1000E6A0; // type:function size:0x50
?ClearInternalMessageServer@LHLobbyChannel@@QAEXXZ = .text:0x1000E6F0; // type:function size:0x80
?FindOrCreateChannel@LHLobbyChannel@@SAPAV1@PADPAVLHLobby@@PAV?$LHLinkedList@PAVLHLobbyChannel@@@@@Z = .text:0x1000E770; // type:function size:0xF0
?StartGame@LHLobbyChannel@@QAE?AW4LH_RETURN@@KKPAX@Z = .text:0x1000E860; // type:function size:0x40
?RequestMGJ@LHLobbyChannel@@QAEXH@Z = .text:0x1000E8A0; // type:function size:0x40
?MGJInProgress@LHLobbyChannel@@QAEHXZ = .text:0x1000E8E0; // type:function size:0x20
?SendMGJResponse@LHLobbyChannel@@QAE?AW4LH_RETURN@@HULH_USER_ID@@PAD@Z = .text:0x1000E900; // type:function size:0x50
?ChatOnChannel@LHLobbyChannel@@QAE?AW4LH_RETURN@@PAXKULH_USER_ID@@_N@Z = .text:0x1000E950; // type:function size:0x50
?LeaveChannel@LHLobby@@QAE?AW4LH_RETURN@@PAVLHLobbyChannel@@@Z = .text:0x1000E9A0; // type:function size:0xA0
?GetBroadcastListenerInfo@LHLobby@@QAEPAVLHTransportInfo@@XZ = .text:0x1000EA40; // type:function size:0x20
?GetConnectionAcceptorInfo@LHLobby@@QAEPAVLHTransportInfo@@XZ = .text:0x1000EA60; // type:function size:0x20
?GetInternalLobbyName@LHLobby@@QAEPADXZ = .text:0x1000EA80; // type:function size:0x20
?GetNextLocalLobby@LHLobby@@SAPAVLHLocalLobbyInfo@@PAV2@@Z = .text:0x1000EAA0; // type:function size:0x40
?FindLocalLobby@LHLobby@@SAPAVLHLocalLobbyInfo@@PAD@Z = .text:0x1000EAE0; // type:function size:0x70
?GetChatOnChannelInfo@LHLobby@@QAE?AW4LH_RETURN@@PAVLHNetEvent@@PAPAVLHLobbyChannel@@PAPAVLHPlayer@@PAPAXPAH@Z = .text:0x1000EB50; // type:function size:0xB0
?GetChatDataLength@LHLobby@@QAE?AW4LH_RETURN@@PAVLHNetEvent@@PAK@Z = .text:0x1000EC00; // type:function size:0x80
?GetLANPlayers@LHLobby@@SAPAV?$LHLinkedList@PAVLHPlayer@@@@PAVLHLocalLobbyInfo@@@Z = .text:0x1000EC80; // type:function size:0x20
?GetNumberOfPlayersOnDefaultChannel@LHLobby@@SAKPAVLHLocalLobbyInfo@@@Z = .text:0x1000ECA0; // type:function size:0x20
?ShutdownInternalLobbyServer@LHLobby@@SAXXZ = .text:0x1000ECC0; // type:function size:0x1A0
fn_1000EE60 = .text:0x1000EE60; // type:function size:0x20
?GetInternalLobbyType@LHLobby@@SA?AW4CATEGORY@LH_USER_ID@@XZ = .text:0x1000EE80; // type:function size:0x20
?SendUserFileToServer@LHLobby@@QAE?AW4LH_RETURN@@PAD@Z = .text:0x1000EEA0; // type:function size:0x40
?FeedbackLastError@LHLobby@@QAEXPAD@Z = .text:0x1000EEE0; // type:function size:0x40
?FindPlayerBroadcastInfo@LHLobby@@SAPAVLHTransportInfo@@ULH_USER_ID@@@Z = .text:0x1000EF20; // type:function size:0x50
fn_1000EF70 = .text:0x1000EF70; // type:function size:0x10
fn_1000EFB0 = .text:0x1000EFB0; // type:function size:0x10
fn_1000F020 = .text:0x1000F020; // type:function size:0x20
fn_1000F040 = .text:0x1000F040; // type:function size:0x20
fn_1000F060 = .text:0x1000F060; // type:function size:0xF0
fn_1000F150 = .text:0x1000F150; // type:function size:0x100
fn_1000F250 = .text:0x1000F250; // type:function size:0xA0
fn_1000F2F0 = .text:0x1000F2F0; // type:function
fn_1000F300 = .text:0x1000F300; // type:function
fn_1000F320 = .text:0x1000F320; // type:function size:0x60
fn_1000F380 = .text:0x1000F380; // type:function size:0x50
fn_1000F430 = .text:0x1000F430; // type:function size:0x60
fn_1000F490 = .text:0x1000F490; // type:function size:0x50
fn_1000F4E0 = .text:0x1000F4E0; // type:function size:0x228
lbl_1000F537 = .text:0x1000F537; // type:label
lbl_1000F545 = .text:0x1000F545; // type:label
lbl_1000F54E = .text:0x1000F54E; // type:label
lbl_1000F564 = .text:0x1000F564; // type:label
lbl_1000F583 = .text:0x1000F583; // type:label
lbl_1000F694 = .text:0x1000F694; // type:label
lbl_1000F6A3 = .text:0x1000F6A3; // type:label
lbl_1000F6B2 = .text:0x1000F6B2; // type:label
lbl_1000F6C1 = .text:0x1000F6C1; // type:label
lbl_1000F6D0 = .text:0x1000F6D0; // type:label
lbl_1000F6DF = .text:0x1000F6DF; // type:label
lbl_1000F6ED = .text:0x1000F6ED; // type:label
lbl_1000F6FC = .text:0x1000F6FC; // type:label
lbl_1000F708 = .text:0x1000F708; // type:label
lbl_1000F71C = .text:0x1000F71C; // type:label
lbl_1000F73C = .text:0x1000F73C; // type:label
fn_1000F770 = .text:0x1000F770; // type:function size:0xE0
fn_1000F850 = .text:0x1000F850; // type:function size:0x50
fn_1000F8A0 = .text:0x1000F8A0; // type:function size:0x160
fn_1000FA00 = .text:0x1000FA00; // type:function size:0xD0
fn_1000FAD0 = .text:0x1000FAD0; // type:function size:0x70
fn_1000FDA0 = .text:0x1000FDA0; // type:function size:0x40
fn_1000FDE0 = .text:0x1000FDE0; // type:function size:0x60
fn_1000FED0 = .text:0x1000FED0; // type:function size:0x30
fn_1000FFD0 = .text:0x1000FFD0; // type:function size:0x260
fn_10010230 = .text:0x10010230; // type:function size:0xB0
fn_100102E0 = .text:0x100102E0; // type:function size:0x20
fn_10010300 = .text:0x10010300; // type:function size:0x200
fn_10010500 = .text:0x10010500; // type:function size:0xE0
fn_100105E0 = .text:0x100105E0; // type:function size:0x40
fn_10010620 = .text:0x10010620; // type:function size:0xB0
fn_100106D0 = .text:0x100106D0; // type:function size:0x50
fn_10010720 = .text:0x10010720; // type:function size:0x180
fn_10010A70 = .text:0x10010A70; // type:function size:0xA0
fn_10010B10 = .text:0x10010B10; // type:function size:0x160
fn_10011010 = .text:0x10011010; // type:function size:0x50
fn_10011060 = .text:0x10011060; // type:function size:0x50
fn_100110B0 = .text:0x100110B0; // type:function size:0xE0
fn_10011210 = .text:0x10011210; // type:function size:0x120
fn_10011330 = .text:0x10011330; // type:function size:0x10
fn_10011340 = .text:0x10011340; // type:function size:0x40
fn_10011380 = .text:0x10011380; // type:function size:0x50
fn_100113D0 = .text:0x100113D0; // type:function size:0x110
fn_100114E0 = .text:0x100114E0; // type:function size:0x20
fn_10011500 = .text:0x10011500; // type:function size:0x10
fn_10011510 = .text:0x10011510; // type:function size:0x20
fn_100115D0 = .text:0x100115D0; // type:function size:0x70
fn_10011640 = .text:0x10011640; // type:function size:0x60
fn_100116A0 = .text:0x100116A0; // type:function size:0xE0
fn_10011780 = .text:0x10011780; // type:function size:0xD0
lbl_10011850 = .text:0x10011850; // type:label
fn_10011900 = .text:0x10011900; // type:function size:0x20
fn_10011920 = .text:0x10011920; // type:function size:0x30
fn_10011950 = .text:0x10011950; // type:function size:0x20
fn_10011970 = .text:0x10011970; // type:function size:0x10
fn_10011980 = .text:0x10011980; // type:function size:0x10
fn_10011990 = .text:0x10011990; // type:function size:0x30
fn_100119C0 = .text:0x100119C0; // type:function size:0x10
fn_100119D0 = .text:0x100119D0; // type:function size:0x20
lbl_10011A00 = .text:0x10011A00; // type:label
fn_0x10011a05 = .text:0x10011A05; // type:function size:0x6
fn_10011A10 = .text:0x10011A10; // type:function
fn_10011A50 = .text:0x10011A50; // type:function size:0x20
??0LHPOP3Mail@@QAE@XZ = .text:0x10011A70; // type:function size:0x50
??4LHPOP3Mail@@QAEAAV0@ABV0@@Z = .text:0x10011AC0; // type:function size:0x20
??0LHPOP3Line@@QAE@XZ = .text:0x10011AE0; // type:function size:0x10
??1LHPOP3Line@@QAE@XZ = .text:0x10011AF0; // type:function size:0x20
??4LHPOP3Line@@QAEAAV0@ABV0@@Z = .text:0x10011B10; // type:function size:0x20
?GetNrOfNewMails@LHPOP3@@QAEKXZ = .text:0x10011B30; // type:function size:0x10
?GetNrofAllMails@LHPOP3@@QAEKXZ = .text:0x10011B40; // type:function size:0x10
??4LHPOP3@@QAEAAV0@ABV0@@Z = .text:0x10011B50; // type:function size:0x20
?GetCurrentCheckStatus@LHMail@@QAE_NXZ = .text:0x10011B70; // type:function size:0x10
?GetMailCount@LHMail@@QAEKXZ = .text:0x10011B80; // type:function size:0x10
?SetSystemState@LHMail@@QAEX_N@Z = .text:0x10011B90; // type:function size:0x10
?GetContactList@LHMail@@QAEPAV?$LHLinkedList@PAULHMailContacts@@@@XZ = .text:0x10011BA0; // type:function size:0x10
?SetCheckTime@LHMail@@QAEXK@Z = .text:0x10011BB0; // type:function size:0x10
?GetCheckTime@LHMail@@QAEKXZ = .text:0x10011BC0; // type:function size:0x10
??0LHMail@@QAE@ABV0@@Z = .text:0x10011BD0; // type:function size:0x70
??4LHMail@@QAEAAV0@ABV0@@Z = .text:0x10011C40; // type:function size:0x70
fn_10011CD0 = .text:0x10011CD0; // type:function size:0x60
??0LHMailOutlook@@QAE@ABV0@@Z = .text:0x10011D30; // type:function size:0xC0
??4LHMailOutlook@@QAEAAV0@ABV0@@Z = .text:0x10011DF0; // type:function size:0xC0
fn_10011ED0 = .text:0x10011ED0; // type:function size:0x60
??0LHMailPOP3@@QAE@ABV0@@Z = .text:0x10011F30; // type:function size:0xC0
??4LHMailPOP3@@QAEAAV0@ABV0@@Z = .text:0x10011FF0; // type:function size:0xD0
fn_100120E0 = .text:0x100120E0; // type:function size:0x60
?InetLogging@@YAXPAD@Z = .text:0x10012140; // type:function size:0x40
fn_10012180 = .text:0x10012180; // type:function size:0x70
?DecodeMemory@LHMail@@SAXPADPAPADPAK@Z = .text:0x100121F0; // type:function size:0xC0
?EncodeMemory@LHMail@@SAXPADPAPADPAKD@Z = .text:0x100122B0; // type:function size:0x190
??0LHMail@@QAE@PAD@Z = .text:0x10012440; // type:function size:0x90
??1LHMail@@UAE@XZ = .text:0x100124D0; // type:function size:0x50
?SetAddressBookFile@LHMail@@QAEXPAD_N@Z = .text:0x10012520; // type:function size:0x70
?GetNextMail@LHMail@@QAEPAULHMailEmail@@XZ = .text:0x10012590; // type:function size:0x20
?DeleteMailFromQ@LHMail@@QAEXPAULHMailEmail@@@Z = .text:0x100125B0; // type:function size:0x60
?LookUpNameInContactList@LHMail@@IAE_NPAD@Z = .text:0x10012610; // type:function size:0x70
?LookUpNameInMailQueue@LHMail@@IAE_NPAD@Z = .text:0x10012680; // type:function size:0x70
?AddNameToContactList@LHMail@@QAE_NPAULHMailContacts@@@Z = .text:0x100126F0; // type:function size:0x30
?AddNewMailToList@LHMail@@IAE_NPAULHMailEmail@@@Z = .text:0x10012720; // type:function size:0x100
?CleanUp@LHMail@@QAEXXZ = .text:0x10012820; // type:function size:0xB0
?SavePersonalAddressBook@LHMail@@IAE_NPAD@Z = .text:0x100128D0; // type:function size:0x150
?LoadPersonalAddressBook@LHMail@@IAE_NPAD@Z = .text:0x10012A20; // type:function size:0x1C0
?CheckMails@LHMail@@QAE?AW4LH_RETURN@@XZ = .text:0x10012BE0; // type:function size:0x50
?GetContactNames@LHMail@@QAE_NPAK@Z = .text:0x10012C30; // type:function size:0x50
?ReloadSystem@LHMail@@QAE_NPAD@Z = .text:0x10012C80; // type:function size:0x60
?DeleteEnDeCodePointer@LHMail@@SAXPAD@Z = .text:0x10012CE0; // type:function size:0x10
?InitDriver@LHMail@@QAE_NXZ = .text:0x10012CF0; // type:function size:0x20
?ReadRegistrySettings@LHMail@@QAEXXZ = .text:0x10012D10; // type:function size:0x20
?CheckForOutlook@LHMailOutlook@@SA_NXZ = .text:0x10012D30; // type:function size:0x180
?InitOutlook@LHMailOutlook@@QAE_NXZ = .text:0x10012EB0; // type:function size:0xA0
?CleanUpOutlook@LHMailOutlook@@QAE_NXZ = .text:0x10012F50; // type:function size:0x40
??0LHMailOutlook@@QAE@PAD@Z = .text:0x10012F90; // type:function size:0x20
??1LHMailOutlook@@UAE@XZ = .text:0x10012FB0; // type:function size:0x50
?CallInitDriver@LHMailOutlook@@UAE_NXZ = .text:0x10013000; // type:function size:0x10
?CleanUpDriver@LHMailOutlook@@UAE_NXZ = .text:0x10013010; // type:function size:0x10
?DriverCheckMails@LHMailOutlook@@UAE?AW4LH_RETURN@@XZ = .text:0x10013020; // type:function size:0x140
?DriverGetContactNames@LHMailOutlook@@UAE_NPAK@Z = .text:0x10013160; // type:function size:0xA0
?ReloadDriver@LHMailOutlook@@UAE_NXZ = .text:0x10013200; // type:function size:0x10
??0LHMailPOP3@@QAE@PAD@Z = .text:0x10013210; // type:function size:0x30
??1LHMailPOP3@@UAE@XZ = .text:0x10013240; // type:function size:0x50
?InitPOP3@LHMailPOP3@@QAE_NXZ = .text:0x10013290; // type:function size:0x180
?CleanUpPOP3@LHMailPOP3@@QAE_NXZ = .text:0x10013410; // type:function size:0x90
?DriverCheckMails@LHMailPOP3@@UAE?AW4LH_RETURN@@XZ = .text:0x100134A0; // type:function size:0x3AE
lbl_10013511 = .text:0x10013511; // type:label
lbl_10013565 = .text:0x10013565; // type:label
lbl_100135B6 = .text:0x100135B6; // type:label
lbl_10013647 = .text:0x10013647; // type:label
lbl_100137EE = .text:0x100137EE; // type:label
lbl_10013820 = .text:0x10013820; // type:label
lbl_10013839 = .text:0x10013839; // type:label
lbl_10013850 = .text:0x10013850; // type:label
?DriverGetContactNames@LHMailPOP3@@UAE_NPAK@Z = .text:0x10013870; // type:function size:0x10
?CallInitDriver@LHMailPOP3@@UAE_NXZ = .text:0x10013880; // type:function size:0x10
?CleanUpDriver@LHMailPOP3@@UAE_NXZ = .text:0x10013890; // type:function size:0x10
?ReloadDriver@LHMailPOP3@@UAE_NXZ = .text:0x100138A0; // type:function size:0x10
?LHLoadInGameEmailSystem@@YAPAVLHMail@@PAD@Z = .text:0x100138B0; // type:function size:0x120
fn_100139E0 = .text:0x100139E0; // type:function size:0x70
fn_10013A60 = .text:0x10013A60; // type:function size:0x40
fn_10013AB0 = .text:0x10013AB0; // type:function size:0x20
fn_10013AD0 = .text:0x10013AD0; // type:function size:0x90
fn_10013B60 = .text:0x10013B60; // type:function size:0x130
fn_10013C90 = .text:0x10013C90; // type:function size:0x140
fn_10013DD0 = .text:0x10013DD0; // type:function size:0x50
fn_10013E20 = .text:0x10013E20; // type:function size:0x175
lbl_10013F2A = .text:0x10013F2A; // type:label
lbl_10013F45 = .text:0x10013F45; // type:label
lbl_10013F55 = .text:0x10013F55; // type:label
lbl_10013F63 = .text:0x10013F63; // type:label
lbl_10013F71 = .text:0x10013F71; // type:label
lbl_10013F7D = .text:0x10013F7D; // type:label
lbl_10013F8B = .text:0x10013F8B; // type:label
lbl_10013F98 = .text:0x10013F98; // type:label
fn_10013FC0 = .text:0x10013FC0; // type:function size:0x90
fn_10014050 = .text:0x10014050; // type:function size:0xF0
fn_10014140 = .text:0x10014140; // type:function size:0x240
fn_10014380 = .text:0x10014380; // type:function size:0x260
fn_100145E0 = .text:0x100145E0; // type:function size:0x1C0
fn_100147A0 = .text:0x100147A0; // type:function size:0x50
fn_100147F0 = .text:0x100147F0; // type:function size:0x30
fn_10014820 = .text:0x10014820; // type:function size:0x40
fn_10014860 = .text:0x10014860; // type:function size:0x210
fn_10014A70 = .text:0x10014A70; // type:function size:0xF0
fn_10014B60 = .text:0x10014B60; // type:function size:0x10
fn_10014B70 = .text:0x10014B70; // type:function size:0xE0
fn_10014D30 = .text:0x10014D30; // type:function size:0x80
fn_10014DB0 = .text:0x10014DB0; // type:function size:0xD0
fn_10014E80 = .text:0x10014E80; // type:function size:0x50
fn_10014ED0 = .text:0x10014ED0; // type:function size:0x260
fn_10015130 = .text:0x10015130; // type:function size:0xA0
lbl_10015310 = .text:0x10015310; // type:label
fn_100153D0 = .text:0x100153D0; // type:function size:0x3F0
fn_100157C0 = .text:0x100157C0; // type:function size:0x40
fn_10015800 = .text:0x10015800; // type:function size:0x10
fn_10015810 = .text:0x10015810; // type:function size:0x30
fn_10015840 = .text:0x10015840; // type:function size:0x10
fn_10015850 = .text:0x10015850; // type:function size:0x20
lbl_10015880 = .text:0x10015880; // type:label
fn_0x10015885 = .text:0x10015885; // type:function size:0x6
fn_10015890 = .text:0x10015890; // type:function
fn_100158F0 = .text:0x100158F0; // type:function size:0x50
fn_10015940 = .text:0x10015940; // type:function size:0x30
fn_10015970 = .text:0x10015970; // type:function size:0x20
?Open@LHMPPacketSave@@QAEXW4LH_PACKET_SOURCE@@PAVLHSession@@@Z = .text:0x10015990; // type:function size:0xC0
?ProcessHeader@LHMPPacketSave@@QAEXPAVLHSession@@@Z = .text:0x10015A50; // type:function size:0x340
?RestoreOriginalPlayerList@LHMPPacketSave@@QAEXPAVLHSession@@@Z = .text:0x10015D90; // type:function size:0x60
?CheckSavedPacketsAvail@LHMPPacketSave@@SA?AW4LH_RETURN@@PAULHReplayPacketInfo@@@Z = .text:0x10015DF0; // type:function size:0x80
?ReadEventFromFile@LHMPPacketSave@@QAEPAVLHNetEvent@@XZ = .text:0x10015E70; // type:function size:0x100
?WriteEventToFile@LHMPPacketSave@@QAEXPAVLHNetEvent@@@Z = .text:0x10015F70; // type:function size:0x50
?UpdateInfoBlock@LHMPPacketSave@@QAEXXZ = .text:0x10015FC0; // type:function size:0x90
?Close@LHMPPacketSave@@QAEXXZ = .text:0x10016050; // type:function size:0x20
fn_10016070 = .text:0x10016070; // type:function size:0x50
fn_100160C0 = .text:0x100160C0; // type:function size:0x20
?SetPacketHeader@LHNetEvent@@QAE?AW4LH_RETURN@@W4LH_NETEVENT_TYPE@@ULH_USER_ID@@@Z = .text:0x100160E0; // type:function size:0x20
??1LHNetEvent@@QAE@XZ = .text:0x10016100; // type:function size:0x10
?CreateFromPacket@LHNetEvent@@SAPAV1@PAVLHPacket@@@Z = .text:0x10016110; // type:function size:0xA0
?CreateFromEvent@LHNetEvent@@SAPAV1@PAV1@@Z = .text:0x100161B0; // type:function size:0xA0
?CreateSimple@LHNetEvent@@SAPAV1@W4LH_NETEVENT_TYPE@@ULH_USER_ID@@KPAX@Z = .text:0x10016250; // type:function size:0xD0
?VCreate@LHNetEvent@@SAPAV1@W4LH_NETEVENT_TYPE@@ULH_USER_ID@@ZZ = .text:0x10016320; // type:function size:0x30
?VCreate@LHNetEvent@@SAPAV1@JPAULHNetMessageFormatDescriptor@@ZZ = .text:0x10016350; // type:function size:0x40
?VDecode@LHNetEvent@@QAA?AW4LH_RETURN@@W4LH_NETEVENT_TYPE@@ZZ = .text:0x10016390; // type:function size:0x50
?VDecode@LHNetEvent@@QAA?AW4LH_RETURN@@JPAULHNetMessageFormatDescriptor@@ZZ = .text:0x100163E0; // type:function size:0x30
?RawCreate@LHNetEvent@@SAPAV1@ULH_USER_ID@@W4LH_NETEVENT_TYPE@@PAD2@Z = .text:0x10016410; // type:function size:0x4AA
lbl_10016493 = .text:0x10016493; // type:label
lbl_1001649E = .text:0x1001649E; // type:label
lbl_100164CB = .text:0x100164CB; // type:label
lbl_100164E7 = .text:0x100164E7; // type:label
lbl_100164F2 = .text:0x100164F2; // type:label
lbl_10016504 = .text:0x10016504; // type:label
lbl_10016515 = .text:0x10016515; // type:label
lbl_10016556 = .text:0x10016556; // type:label
lbl_1001658C = .text:0x1001658C; // type:label
lbl_1001659A = .text:0x1001659A; // type:label
lbl_100165A0 = .text:0x100165A0; // type:label
lbl_100165F9 = .text:0x100165F9; // type:label
lbl_10016662 = .text:0x10016662; // type:label
lbl_10016675 = .text:0x10016675; // type:label
lbl_10016688 = .text:0x10016688; // type:label
lbl_100166AA = .text:0x100166AA; // type:label
lbl_100166FD = .text:0x100166FD; // type:label
lbl_1001672D = .text:0x1001672D; // type:label
lbl_10016779 = .text:0x10016779; // type:label
lbl_10016791 = .text:0x10016791; // type:label
lbl_100167F2 = .text:0x100167F2; // type:label
lbl_1001683C = .text:0x1001683C; // type:label
lbl_10016851 = .text:0x10016851; // type:label
lbl_1001685F = .text:0x1001685F; // type:label
lbl_100168BC = .text:0x100168BC; // type:label
lbl_100168EC = .text:0x100168EC; // type:label
lbl_10016908 = .text:0x10016908; // type:label
lbl_1001693C = .text:0x1001693C; // type:label
?RawDecode@LHNetEvent@@QAE?AW4LH_RETURN@@PAD0@Z = .text:0x10016960; // type:function size:0x1DA
lbl_100169A5 = .text:0x100169A5; // type:label
lbl_100169B7 = .text:0x100169B7; // type:label
lbl_100169C9 = .text:0x100169C9; // type:label
lbl_100169E1 = .text:0x100169E1; // type:label
lbl_10016A15 = .text:0x10016A15; // type:label
lbl_10016A4F = .text:0x10016A4F; // type:label
lbl_10016A78 = .text:0x10016A78; // type:label
lbl_10016A8A = .text:0x10016A8A; // type:label
lbl_10016A9F = .text:0x10016A9F; // type:label
lbl_10016ABC = .text:0x10016ABC; // type:label
lbl_10016ACE = .text:0x10016ACE; // type:label
lbl_10016ADB = .text:0x10016ADB; // type:label
lbl_10016AF3 = .text:0x10016AF3; // type:label
lbl_10016B07 = .text:0x10016B07; // type:label
lbl_10016B3C = .text:0x10016B3C; // type:label
lbl_10016B74 = .text:0x10016B74; // type:label
?CreateMServeSuperPacket@LHNetEvent@@SAPAV1@ULH_USER_ID@@JPAV?$LHDynamicQueue@PAVLHNetEvent@@@@H@Z = .text:0x10016BB0; // type:function size:0x1D0
?CreateEmptyMServeSuperPacket@LHNetEvent@@SAPAV1@ULH_USER_ID@@J@Z = .text:0x10016D80; // type:function size:0xA0
?DecodeMServeSuperPacket@LHNetEvent@@QAE?AW4LH_RETURN@@PAV?$LHDynamicQueue@PAVLHNetEvent@@@@PAJ@Z = .text:0x10016E20; // type:function size:0x120
?GetNetGameTurn@LHNetEvent@@QAEJXZ = .text:0x10016F40; // type:function size:0x20
?GetNumberOfPlayerEvents@LHNetEvent@@QAEKXZ = .text:0x10016F60; // type:function size:0x20
?SetUDPinfo@LHNetEvent@@QAEXPAVLHTransportInfo@@@Z = .text:0x10016F80; // type:function size:0x40
?DecodeDataPacket@LHNetEvent@@SA?AW4LH_RETURN@@PAV1@PAKPAPAXPAH@Z = .text:0x10016FC0; // type:function size:0x40
fn_10017000 = .text:0x10017000; // type:function size:0x20
fn_10017020 = .text:0x10017020; // type:function size:0x1A0
?ClearAllData@LHLocalLobbyInfo@@QAEXXZ = .text:0x100171C0; // type:function size:0x180
??0LHLocalLobbyInfo@@QAE@PAV0@@Z = .text:0x10017340; // type:function size:0xC0
?Initialise@LHLocalLobbyInfo@@QAEXPADPAVLHTransportInfo@@1PAV?$LHLinkedList@PAVLHPlayer@@@@W4CATEGORY@LH_USER_ID@@H@Z = .text:0x10017400; // type:function size:0xB0
?UpdateLocalLobbyInfoDetails@LHLocalLobbyInfo@@QAEHPAV1@@Z = .text:0x100174B0; // type:function size:0x160
??1LHLocalLobbyInfo@@QAE@XZ = .text:0x10017610; // type:function size:0xB0
?GetEncodedLength@LHLocalLobbyInfo@@UAEKKPAX@Z = .text:0x100176C0; // type:function size:0x60
?EncodeToBuffer@LHLocalLobbyInfo@@UAEPAEPAEKPAX@Z = .text:0x10017720; // type:function size:0xA0
?DecodeFromBuffer@LHLocalLobbyInfo@@UAEPAEPAE@Z = .text:0x100177C0; // type:function size:0xA0
?ClearObject@LHLocalLobbyInfo@@UAEXXZ = .text:0x10017860; // type:function size:0x10
fn_10017880 = .text:0x10017880; // type:function size:0x20
?ClearAllData@LHNetUser@@AAEXXZ = .text:0x100178E0; // type:function size:0x40
?Logout@LHNetUser@@QAEXXZ = .text:0x10017920; // type:function size:0x40
?SetUserDetails@LHNetUser@@AAE?AW4LH_RETURN@@PAGPAD@Z = .text:0x10017960; // type:function size:0x50
??1LHNetUser@@QAE@XZ = .text:0x100179B0; // type:function size:0x30
?Login@LHNetUser@@QAE?AW4LH_RETURN@@PAD0@Z = .text:0x100179E0; // type:function size:0xE0
?Login@LHNetUser@@QAE?AW4LH_RETURN@@PAD0PAVLHTransportInfo@@@Z = .text:0x10017AC0; // type:function size:0x2D0
?SendLogin@LHNetUser@@QAE?AW4LH_RETURN@@PAD0PAVLHTransportInfo@@@Z = .text:0x10017D90; // type:function size:0x150
?ParseUserData@LHNetUser@@AAE?AW4LH_RETURN@@PADPAK@Z = .text:0x10017EE0; // type:function size:0x100
?CheckLogin@LHNetUser@@QAE?AW4LH_LOGIN_CHECK@@XZ = .text:0x10017FE0; // type:function size:0x1D0
?Login@LHNetUser@@QAE?AW4LH_RETURN@@PAV1@W4CATEGORY@LH_USER_ID@@@Z = .text:0x100181B0; // type:function size:0x70
fn_10018220 = .text:0x10018220; // type:function size:0x20
?LHNetFindLocalLobby@@YAPAVLHLocalLobbyInfo@@PAV?$LHLinkedList@PAVLHLocalLobbyInfo@@@@PAVLHTransportInfo@@@Z = .text:0x10018240; // type:function size:0x50
?LHNetFindLocalLobby@@YAPAVLHLocalLobbyInfo@@PAV?$LHLinkedList@PAVLHLocalLobbyInfo@@@@PAD@Z = .text:0x10018290; // type:function size:0x60
?LHNetIsDisconnectionStatus@@YAHW4LH_NET_LOG_ERROR_LIST@@@Z = .text:0x100182F0; // type:function size:0x20
?LHNetGetEncodedStringListLength@@YAKPAV?$LHLinkedList@PAD@@@Z = .text:0x10018310; // type:function size:0x40
?LHNetEncodeStringList@@YAPAEPAEPAV?$LHLinkedList@PAD@@@Z = .text:0x10018350; // type:function size:0x80
?LHNetDecodeStringList@@YAPAEPAEPAV?$LHLinkedList@PAD@@@Z = .text:0x100183D0; // type:function size:0xC0
?LHNetGetFormatDescriptor@@YAPADJPAULHNetMessageFormatDescriptor@@@Z = .text:0x10018490; // type:function size:0x40
fn_100184D0 = .text:0x100184D0; // type:function size:0x40
?LHNetGetEncodedFileLength@@YAKPAD@Z = .text:0x10018510; // type:function size:0x90
?LHNetEncodeFile@@YAPAEPAEULH_USER_ID@@PAD@Z = .text:0x100185A0; // type:function size:0x170
?LHNetGetNetEventLength@@YAKPAVLHNetEvent@@@Z = .text:0x10018710; // type:function size:0x20
?LHNetDecodeNetEvent@@YAPAEPAEPAPAVLHNetEvent@@@Z = .text:0x10018730; // type:function size:0x30
?LHNetEncodeNetEvent@@YAPAEPAEPAVLHNetEvent@@@Z = .text:0x10018760; // type:function size:0x40
?LHNetDecodeFile@@YAPAEPAEPAPADPAULH_USER_ID@@@Z = .text:0x100187A0; // type:function size:0x100
?LHNetGetCurrentUsedProfile@@YAPAGXZ = .text:0x100188A0; // type:function size:0x10
?LHNetCreateDefaultProfile@@YAPAGPAG@Z = .text:0x100188B0; // type:function size:0xF0
?LHNetUseProfile@@YAXPAG@Z = .text:0x100189A0; // type:function size:0x60
?LHNetGetCurrentProfileNameFromRegistry@@YAPAGXZ = .text:0x10018A00; // type:function size:0x80
?LHNetSaveDefaultProfileNameInRegistry@@YA?AW4LH_RETURN@@PAG@Z = .text:0x10018A80; // type:function size:0x40
?LHNetCheckProfileExists@@YAHPAG@Z = .text:0x10018AC0; // type:function size:0x70
?LHNetGetCurrentProfileUlong@@YA?AW4LH_RETURN@@PADPAK@Z = .text:0x10018B30; // type:function size:0x70
?LHNetGetCurrentProfileString@@YA?AW4LH_RETURN@@PAD0PAK@Z = .text:0x10018BA0; // type:function size:0x70
?LHNetGetCurrentProfileWString@@YA?AW4LH_RETURN@@PADPAGPAK@Z = .text:0x10018C10; // type:function size:0x70
?LHNetGetCurrentProfileDouble@@YA?AW4LH_RETURN@@PADPAN@Z = .text:0x10018C80; // type:function size:0x70
?LHNetGetCurrentProfileData@@YA?AW4LH_RETURN@@PADPAEPAK@Z = .text:0x10018CF0; // type:function size:0x70
?LHNetSetCurrentProfileUlong@@YA?AW4LH_RETURN@@PADK@Z = .text:0x10018D60; // type:function size:0x70
?LHNetSetCurrentProfileString@@YA?AW4LH_RETURN@@PAD0@Z = .text:0x10018DD0; // type:function size:0x70
?LHNetSetCurrentProfileWString@@YA?AW4LH_RETURN@@PADPAG@Z = .text:0x10018E40; // type:function size:0x70
?LHNetSetCurrentProfileDouble@@YA?AW4LH_RETURN@@PADN@Z = .text:0x10018EB0; // type:function size:0x70
?LHNetSetCurrentProfileData@@YA?AW4LH_RETURN@@PADPAEK@Z = .text:0x10018F20; // type:function size:0x70
?LHNetGetProfileList@@YA?AW4LH_RETURN@@PAV?$LHLinkedList@PAG@@@Z = .text:0x10018F90; // type:function size:0xE0
?LHNetFreeProfileList@@YA?AW4LH_RETURN@@PAV?$LHLinkedList@PAG@@@Z = .text:0x10019070; // type:function size:0x60
?LHNetDeleteProfile@@YA?AW4LH_RETURN@@PAG@Z = .text:0x100190D0; // type:function size:0x70
?ProfileNameToKey@@YAPADPAG@Z = .text:0x10019140; // type:function size:0xD0
fn_10019210 = .text:0x10019210; // type:function size:0x30
?KeyToProfileName@@YAPAGPAD@Z = .text:0x10019240; // type:function size:0x130
?ICQinttoLHTransportInfo@@YAXKPAVLHTransportInfo@@@Z = .text:0x10019370; // type:function size:0xD0
?LHTransportInfotoICQint@@YAKPAVLHTransportInfo@@@Z = .text:0x10019440; // type:function size:0x10
?LIBCHAR2WCHAR@@YAPAGPAD@Z = .text:0x10019450; // type:function size:0x30
?LIBWCHAR2CHAR@@YAPADPAG@Z = .text:0x10019480; // type:function size:0x30
?LHGetInstalledBWVersion@@YA?AW4LH_RETURN@@PAKPAD@Z = .text:0x100194B0; // type:function size:0xB0
?LHCheckForInternetConnection@@YA_ND@Z = .text:0x10019560; // type:function size:0x230
fn_10019790 = .text:0x10019790; // type:function size:0x40
fn_100197D0 = .text:0x100197D0; // type:function size:0x20
?GetEncodedListLength@LHPacketisableObject@@SAKPAV?$LHLinkedList@PAVLHPacketisableObject@@@@KPAX@Z = .text:0x100197F0; // type:function size:0x50
?EncodeListToBuffer@LHPacketisableObject@@SAPAEPAEPAV?$LHLinkedList@PAVLHPacketisableObject@@@@KPAX@Z = .text:0x10019840; // type:function size:0x70
?DecodeListFromBuffer@LHPacketisableObject@@SAPAEP6APAV1@XZPAEPAV?$LHLinkedList@PAVLHPacketisableObject@@@@@Z = .text:0x100198B0; // type:function size:0xA0
fn_10019950 = .text:0x10019950; // type:function size:0x40
fn_10019990 = .text:0x10019990; // type:function size:0x20
?SetDetails@LHPlayer@@QAE?AW4LH_RETURN@@PAGULH_USER_ID@@J@Z = .text:0x100199B0; // type:function size:0x40
?SetDetails@LHPlayer@@QAE?AW4LH_RETURN@@PAV1@@Z = .text:0x100199F0; // type:function size:0xC0
?SetDetails@LHPlayer@@QAE?AW4LH_RETURN@@PAVLHNetUser@@@Z = .text:0x10019AB0; // type:function size:0x30
?ClearAllData@LHPlayer@@IAEXXZ = .text:0x10019AE0; // type:function size:0x60
?SetUserFile@LHPlayer@@QAEXPBD@Z = .text:0x10019B40; // type:function size:0x20
??0LHPlayer@@QAE@PAV0@@Z = .text:0x10019B60; // type:function size:0x150
??0LHPlayer@@QAE@PAVLHNetUser@@@Z = .text:0x10019CB0; // type:function size:0x70
??1LHPlayer@@QAE@XZ = .text:0x10019D20; // type:function size:0x20
?SetUserData@LHPlayer@@QAEXPAXK@Z = .text:0x10019D40; // type:function size:0x60
?GetPlayer@LHPlayer@@SAPAV1@ULH_USER_ID@@PAV?$LHLinkedList@PAVLHPlayer@@@@@Z = .text:0x10019DA0; // type:function size:0x30
?GetPlayerFromPlayerNumber@LHPlayer@@SAPAV1@KPAV?$LHLinkedList@PAVLHPlayer@@@@@Z = .text:0x10019DD0; // type:function size:0x30
?CopyPlayerList@LHPlayer@@SA?AW4LH_RETURN@@PAV?$LHLinkedList@PAVLHPlayer@@@@0@Z = .text:0x10019E00; // type:function size:0x90
?Compare@LHPlayer@@QAEKPAV1@@Z = .text:0x10019E90; // type:function size:0x50
?AllocSystemData@LHPlayer@@QAEPAXK@Z = .text:0x10019EE0; // type:function size:0x20
?FreeSystemData@LHPlayer@@QAEXXZ = .text:0x10019F00; // type:function size:0x30
?FreeUserData@LHPlayer@@QAEXXZ = .text:0x10019F30; // type:function size:0x30
?GetEncodedLength@LHPlayer@@UAEKKPAX@Z = .text:0x10019F60; // type:function size:0x70
?EncodeToBuffer@LHPlayer@@UAEPAEPAEKPAX@Z = .text:0x10019FD0; // type:function size:0xB0
?DecodeFromBuffer@LHPlayer@@UAEPAEPAE@Z = .text:0x1001A080; // type:function size:0xC0
?Create@LHPlayer@@SAPAV1@XZ = .text:0x1001A140; // type:function size:0x60
?ClearObject@LHPlayer@@UAEXXZ = .text:0x1001A1A0; // type:function size:0x10
fn_1001A1B0 = .text:0x1001A1B0; // type:function size:0x20
fn_1001A1D0 = .text:0x1001A1D0; // type:function size:0x80
fn_1001A250 = .text:0x1001A250; // type:function size:0x80
fn_1001A2D0 = .text:0x1001A2D0; // type:function size:0x130
fn_1001A400 = .text:0x1001A400; // type:function size:0xC0
??0LHPOP3@@QAE@XZ = .text:0x1001A830; // type:function size:0xB0
??1LHPOP3@@QAE@XZ = .text:0x1001A8E0; // type:function size:0xD0
?SetLogin@LHPOP3@@QAE?AW4LH_RETURN@@PAD00J@Z = .text:0x1001A9B0; // type:function size:0xD0
?ParseLine@LHPOP3@@AAE?AW4LH_RETURN@@PADJ0PAJW4LH_POP3_PARSE@@J@Z = .text:0x1001AA80; // type:function size:0x170
?ScanLines@LHPOP3@@AAE?AW4LH_RETURN@@PADJ0PAJ_N@Z = .text:0x1001ABF0; // type:function size:0x190
?SearchForSpecialChar@LHPOP3@@AAE?AW4LH_RETURN@@PADJ00PAJ1@Z = .text:0x1001AD80; // type:function size:0x80
?SendCommandAsync@LHPOP3@@QAE?AW4LH_RETURN@@PADPAPAD_N@Z = .text:0x1001AE00; // type:function size:0x430
?OpenConnectionAsync@LHPOP3@@QAE?AW4LH_RETURN@@XZ = .text:0x1001B230; // type:function size:0x1E0
?LoginAsync@LHPOP3@@QAE?AW4LH_RETURN@@PAW4LH_POP3_ACTION@@@Z = .text:0x1001B410; // type:function size:0x180
lbl_1001B442 = .text:0x1001B442; // type:label
lbl_1001B45F = .text:0x1001B45F; // type:label
lbl_1001B4C0 = .text:0x1001B4C0; // type:label
lbl_1001B51F = .text:0x1001B51F; // type:label
lbl_1001B560 = .text:0x1001B560; // type:label
lbl_1001B590 = .text:0x1001B590; // type:label
?GetMsgListAsync@LHPOP3@@QAE?AW4LH_RETURN@@AAV?$LHLinkedList@PAVLHPOP3Mail@@@@PAW4LH_POP3_ACTION@@@Z = .text:0x1001B5B0; // type:function size:0x338
lbl_1001B5E4 = .text:0x1001B5E4; // type:label
lbl_1001B613 = .text:0x1001B613; // type:label
lbl_1001B65A = .text:0x1001B65A; // type:label
lbl_1001B66C = .text:0x1001B66C; // type:label
lbl_1001B85E = .text:0x1001B85E; // type:label
lbl_1001B88D = .text:0x1001B88D; // type:label
lbl_1001B8BF = .text:0x1001B8BF; // type:label
lbl_1001B8E8 = .text:0x1001B8E8; // type:label
?LogoutAsync@LHPOP3@@QAE?AW4LH_RETURN@@PAW4LH_POP3_ACTION@@@Z = .text:0x1001B910; // type:function size:0xD0
?GetMailNameSubject@LHPOP3@@QAE?AW4LH_RETURN@@JAAVLHPOP3Mail@@PAW4LH_POP3_ACTION@@@Z = .text:0x1001B9E0; // type:function size:0x366
lbl_1001BA2A = .text:0x1001BA2A; // type:label
lbl_1001BA49 = .text:0x1001BA49; // type:label
lbl_1001BA97 = .text:0x1001BA97; // type:label
lbl_1001BCEA = .text:0x1001BCEA; // type:label
lbl_1001BD0C = .text:0x1001BD0C; // type:label
lbl_1001BD48 = .text:0x1001BD48; // type:label
fn_1001BD70 = .text:0x1001BD70; // type:function size:0x50
fn_1001BDC0 = .text:0x1001BDC0; // type:function size:0x20
??4LHSerial@@QAEAAV0@ABV0@@Z = .text:0x1001BDE0; // type:function size:0x20
??0LHSerial@@QAE@XZ = .text:0x1001BE00; // type:function size:0x10
??1LHSerial@@QAE@XZ = .text:0x1001BE10; // type:function size:0x10
?Connect@LHSerial@@QAE?AW4LH_RETURN@@PAVLHTransportInfo@@@Z = .text:0x1001BE20; // type:function size:0x130
?Disconnect@LHSerial@@QAE?AW4LH_RETURN@@XZ = .text:0x1001BF50; // type:function size:0x50
?Send@LHSerial@@QAE?AW4LH_RETURN@@PAXK@Z = .text:0x1001BFA0; // type:function size:0x20
?Receive@LHSerial@@QAE?AW4LH_RETURN@@PAXK@Z = .text:0x1001BFC0; // type:function size:0x40
?SendPacket@LHSerial@@QAE?AW4LH_RETURN@@PAVLHPacket@@@Z = .text:0x1001C000; // type:function size:0x20
?RecievePacket@LHSerial@@QAE?AW4LH_RETURN@@PAPAVLHPacket@@@Z = .text:0x1001C020; // type:function size:0x80
?GetWaitingSize@LHSerial@@QAEKXZ = .text:0x1001C0A0; // type:function size:0x20
fn_1001C0C0 = .text:0x1001C0C0; // type:function size:0x20
fn_1001C0E0 = .text:0x1001C0E0; // type:function size:0x20
fn_1001C100 = .text:0x1001C100; // type:function size:0x90
fn_1001C190 = .text:0x1001C190; // type:function size:0xD0
fn_1001C260 = .text:0x1001C260; // type:function size:0x20
fn_1001C280 = .text:0x1001C280; // type:function size:0x10
fn_1001C290 = .text:0x1001C290; // type:function size:0x10
fn_1001C2A0 = .text:0x1001C2A0; // type:function size:0x20
fn_1001C2C0 = .text:0x1001C2C0; // type:function size:0x50
fn_1001C310 = .text:0x1001C310; // type:function size:0xD0
fn_1001C3E0 = .text:0x1001C3E0; // type:function size:0x10
fn_1001C3F0 = .text:0x1001C3F0; // type:function size:0x10
fn_1001C400 = .text:0x1001C400; // type:function size:0x20
fn_1001C420 = .text:0x1001C420; // type:function size:0x10
fn_1001C430 = .text:0x1001C430; // type:function size:0x20
lbl_1001C460 = .text:0x1001C460; // type:label
fn_1001C480 = .text:0x1001C480; // type:function size:0x10
fn_1001C490 = .text:0x1001C490; // type:function size:0x20
lbl_1001C4C0 = .text:0x1001C4C0; // type:label
?SendChecksum@LHSession@@QAE?AW4LH_RETURN@@KKPAXK@Z = .text:0x1001C4E0; // type:function size:0x1F0
?SendOOSChecksumAndWaitForSync@LHSession@@QAE?AW4LH_RETURN@@KKPAXK@Z = .text:0x1001C6D0; // type:function size:0x260
?ClearAllData@LHSession@@AAEXXZ = .text:0x1001C930; // type:function size:0x150
?GetChannelName@LHSession@@QAEPADXZ = .text:0x1001CA80; // type:function size:0x10
?ClearLastGameEventRead@LHSession@@AAEXXZ = .text:0x1001CA90; // type:function size:0x30
?Write@LHSession@@QAE?AW4LH_RETURN@@PAXK@Z = .text:0x1001CAC0; // type:function size:0x70
?SetupGamePlayerInfo@LHSession@@QAEXXZ = .text:0x1001CB30; // type:function size:0x80
?SendDataPacketToAllGamePlayers@LHSession@@QAEXKPAXH@Z = .text:0x1001CBB0; // type:function size:0x40
?GetSuperPacketNextData@LHSession@@QAE?AW4LH_RETURN@@PAPAXPAKPAPAVLHPlayer@@@Z = .text:0x1001CBF0; // type:function size:0xD0
?ClearGameEventQ@LHSession@@AAEXXZ = .text:0x1001CCC0; // type:function size:0x90
?ProcessEvent@LHSession@@EAE?AW4LH_RETURN@@PAVLHNetEvent@@@Z = .text:0x1001CD50; // type:function size:0x129
lbl_1001CD98 = .text:0x1001CD98; // type:label
lbl_1001CDEB = .text:0x1001CDEB; // type:label
lbl_1001CDF4 = .text:0x1001CDF4; // type:label
lbl_1001CDFE = .text:0x1001CDFE; // type:label
lbl_1001CE03 = .text:0x1001CE03; // type:label
lbl_1001CE30 = .text:0x1001CE30; // type:label
lbl_1001CE3F = .text:0x1001CE3F; // type:label
lbl_1001CE4F = .text:0x1001CE4F; // type:label
lbl_1001CE58 = .text:0x1001CE58; // type:label
lbl_1001CE61 = .text:0x1001CE61; // type:label
lbl_1001CE71 = .text:0x1001CE71; // type:label
lbl_1001CE7C = .text:0x1001CE7C; // type:label
lbl_1001CE8C = .text:0x1001CE8C; // type:label
?ProcessServerShutdown@LHSession@@AAE?AW4LH_RETURN@@XZ = .text:0x1001CEB0; // type:function size:0x10
?ProcessMServeGreeting@LHSession@@AAE?AW4LH_RETURN@@PAVLHNetEvent@@@Z = .text:0x1001CEC0; // type:function size:0x70
?ProcessMServeRequestLastSuperpacketData@LHSession@@AAE?AW4LH_RETURN@@PAVLHNetEvent@@@Z = .text:0x1001CF30; // type:function size:0x80
?BuildSuperpacketDatablock@LHSession@@SAPAXKPAK@Z = .text:0x1001CFB0; // type:function size:0xD0
?ProcessMServeCheckSumFailure@LHSession@@QAE?AW4LH_RETURN@@PAVLHNetEvent@@@Z = .text:0x1001D080; // type:function size:0x250
?GetPlayerFromNum@LHSession@@QAEPAVLHPlayer@@K@Z = .text:0x1001D2D0; // type:function size:0x30
?ProcessMServePlayerList@LHSession@@AAE?AW4LH_RETURN@@PAVLHNetEvent@@@Z = .text:0x1001D300; // type:function size:0x3B0
fn_1001D6B0 = .text:0x1001D6B0; // type:function size:0x20
?GetLobbyPlayer@LHSession@@QAEPAVLHPlayer@@PAV2@@Z = .text:0x1001D6D0; // type:function size:0x40
??1LHSession@@UAE@XZ = .text:0x1001D710; // type:function size:0x90
?FakeOpen@LHSession@@QAEXPAVLHNetUser@@@Z = .text:0x1001D7A0; // type:function size:0x180
?IsSinglePlayer@LHSession@@QAEHXZ = .text:0x1001D920; // type:function size:0x30
?ProcessMServeMGJ@LHSession@@AAE?AW4LH_RETURN@@PAVLHNetEvent@@@Z = .text:0x1001D950; // type:function size:0xA0
?SavesCompleteForMGJ@LHSession@@QAEXXZ = .text:0x1001D9F0; // type:function size:0x60
?ProcessMServeGameFile@LHSession@@AAE?AW4LH_RETURN@@PAVLHNetEvent@@@Z = .text:0x1001DA50; // type:function size:0x80
?ProcessMServeChallengeKey@LHSession@@AAE?AW4LH_RETURN@@PAVLHNetEvent@@@Z = .text:0x1001DAD0; // type:function size:0x80
?GetPlayer@LHSession@@QAEPAVLHPlayer@@ULH_USER_ID@@@Z = .text:0x1001DB50; // type:function size:0x30
?ProcessMServeSuperPacket@LHSession@@AAE?AW4LH_RETURN@@PAVLHNetEvent@@@Z = .text:0x1001DB80; // type:function size:0x290
?ProcessServerNewIdleTime@LHSession@@AAE?AW4LH_RETURN@@PAVLHNetEvent@@@Z = .text:0x1001DE10; // type:function size:0x40
?ProcessMServeGameLoopStarted@LHSession@@AAE?AW4LH_RETURN@@PAVLHNetEvent@@@Z = .text:0x1001DE50; // type:function size:0x70
?SyncPoint@LHSession@@QAE_NPADH@Z = .text:0x1001DEC0; // type:function size:0x80
?SyncData@LHSession@@QAE_NKPAX_N@Z = .text:0x1001DF40; // type:function size:0xA0
?SyncAllAndStartSession@LHSession@@QAE?AW4LH_RETURN@@K@Z = .text:0x1001DFE0; // type:function size:0x80
?Close@LHSession@@UAEXXZ = .text:0x1001E060; // type:function size:0xC0
?SetIdlePeriod@LHSession@@QAE?AW4LH_RETURN@@K@Z = .text:0x1001E120; // type:function size:0x40
?StopSession@LHSession@@QAE?AW4LH_RETURN@@XZ = .text:0x1001E160; // type:function size:0x30
?StartSession@LHSession@@QAE?AW4LH_RETURN@@XZ = .text:0x1001E190; // type:function size:0x30
?CloseSession@LHSession@@QAE?AW4LH_RETURN@@XZ = .text:0x1001E1C0; // type:function size:0x30
?Open@LHSession@@QAE?AW4LH_RETURN@@PAVLHNetUser@@PAVLHLobbyChannel@@PAVLHTransportInfo@@HPAVLHMessageServer@@@Z = .text:0x1001E1F0; // type:function size:0x1C0
?GetPacketSource@LHSession@@QAE?AW4LH_PACKET_SOURCE@@XZ = .text:0x1001E3B0; // type:function size:0x10
?SetPacketSource@LHSession@@QAEXW4LH_PACKET_SOURCE@@@Z = .text:0x1001E3C0; // type:function size:0x50
?GetMPPacketSave@LHSession@@QAEPAVLHMPPacketSave@@XZ = .text:0x1001E410; // type:function size:0x10
?GetMessageServer@LHSession@@QAEPAVLHMessageServer@@XZ = .text:0x1001E420; // type:function size:0x10
?MessageServerRunningHere@LHSession@@QAEHXZ = .text:0x1001E430; // type:function size:0x10
?GetLobby@LHSession@@QAEPAVLHLobby@@XZ = .text:0x1001E440; // type:function size:0x10
?NextPacketIsSuperpacket@LHSession@@QAEHXZ = .text:0x1001E450; // type:function size:0x20
?GetLastJoinChannelInfo@LHSession@@QAEXPAPAGPAW4LH_PLAYER_EVENT@@PAK@Z = .text:0x1001E470; // type:function size:0x30
?GetLastJoinChannelInfo@LHSession@@QAEXPAPAGPAW4LH_PLAYER_EVENT@@@Z = .text:0x1001E4A0; // type:function size:0x20
?GetUserData@LHSession@@QAEPAXPAVLHPlayer@@@Z = .text:0x1001E4C0; // type:function size:0x30
?GetUserDataLen@LHSession@@QAEKPAVLHPlayer@@@Z = .text:0x1001E4F0; // type:function size:0x30
?EmptyEventQ@LHSession@@QAEXXZ = .text:0x1001E520; // type:function size:0x50
?Create@LHSession@@SAPAV1@_NPAVLHNetUser@@PAVLHTransportInfo@@PADKKPAXKQAY0DA@GQAULH_USER_ID@@@Z = .text:0x1001E570; // type:function size:0x2B0
?SetUserData@LHSession@@QAE?AW4LH_RETURN@@ULH_USER_ID@@PADKPAX@Z = .text:0x1001E820; // type:function size:0x50
?MigrateHost@LHSession@@QAEXXZ = .text:0x1001E870; // type:function size:0x70
?ProcessMServeHostMigration@LHSession@@AAE?AW4LH_RETURN@@PAVLHNetEvent@@@Z = .text:0x1001E8E0; // type:function size:0x210
?WaitForMigrationCompleted@LHSession@@QAEXXZ = .text:0x1001EAF0; // type:function size:0x1D0
?ConnectToNewHost@LHSession@@AAE?AW4LH_RETURN@@PAVLHTransportInfo@@@Z = .text:0x1001ECC0; // type:function size:0x1A0
?HostSession@LHSession@@AAE?AW4LH_RETURN@@PAV?$LHDynamicQueue@PAVLHNetEvent@@@@@Z = .text:0x1001EE60; // type:function size:0x2D0
?MakeNextPlayerHost@LHSession@@AAE?AW4LH_RETURN@@PAVLHTransportInfo@@@Z = .text:0x1001F130; // type:function size:0x100
?GetHost@LHSession@@AAEPAVLHPlayer@@XZ = .text:0x1001F230; // type:function size:0x30
fn_1001F260 = .text:0x1001F260; // type:function size:0x50
fn_1001F2B0 = .text:0x1001F2B0; // type:function size:0x20
fn_1001F2D0 = .text:0x1001F2D0; // type:function size:0x60
fn_1001F330 = .text:0x1001F330; // type:function size:0x20
fn_1001F350 = .text:0x1001F350; // type:function size:0x50
fn_1001F3A0 = .text:0x1001F3A0; // type:function size:0x50
fn_1001F3F0 = .text:0x1001F3F0; // type:function size:0x10
fn_1001F400 = .text:0x1001F400; // type:function size:0xC0
fn_1001F4C0 = .text:0x1001F4C0; // type:function size:0x30
fn_1001F520 = .text:0x1001F520; // type:function size:0x40
fn_1001F5A0 = .text:0x1001F5A0; // type:function size:0x80
fn_1001F620 = .text:0x1001F620; // type:function size:0x20
fn_1001F970 = .text:0x1001F970; // type:function size:0x200
fn_1001FB70 = .text:0x1001FB70; // type:function size:0x40
fn_1001FBB0 = .text:0x1001FBB0; // type:function size:0x30
fn_1001FBE0 = .text:0x1001FBE0; // type:function size:0x90
fn_1001FC70 = .text:0x1001FC70; // type:function size:0x20
??0LHSocket@@QAE@XZ = .text:0x1001FC90; // type:function size:0x20
??1LHSocket@@QAE@XZ = .text:0x1001FCB0; // type:function size:0x10
?Shutdown@LHSocket@@SAXXZ = .text:0x1001FCC0; // type:function size:0x10
?Startup@LHSocket@@SAXXZ = .text:0x1001FCD0; // type:function
?ClearAllData@LHSocket@@IAEXXZ = .text:0x1001FD10; // type:function size:0x30
?ClearLastUDPPacketBuffer@LHSocket@@QAEXXZ = .text:0x1001FD40; // type:function size:0x20
?WaitForSocketEvents@LHSocket@@SA?AW4LH_RETURN@@PAIGPAUtimeval@@@Z = .text:0x1001FD60; // type:function size:0x110
?Resolving@LHSocket@@QAE?AW4LH_RETURN@@PAD@Z = .text:0x1001FE70; // type:function size:0x70
?GetIP@LHSocket@@QAE?AW4LH_RETURN@@PAD@Z = .text:0x1001FEE0; // type:function size:0x50
?GetIPbin@LHSocket@@QAEJXZ = .text:0x1001FF30; // type:function size:0x10
?GetPort@LHSocket@@QAEJXZ = .text:0x1001FF40; // type:function size:0x20
?GetName@LHSocket@@QAE?AW4LH_RETURN@@PAD@Z = .text:0x1001FF60; // type:function size:0x50
?GetSendBytesTotal@LHSocket@@QAEJXZ = .text:0x1001FFB0; // type:function size:0x10
?GetSendBytes@LHSocket@@QAEJXZ = .text:0x1001FFC0; // type:function size:0x10
?IsReadData@LHSocket@@QAE?AW4LH_RETURN@@XZ = .text:0x1001FFD0; // type:function size:0x90
?IsExcept@LHSocket@@QAE?AW4LH_RETURN@@XZ = .text:0x10020060; // type:function size:0x80
??0LHSocketTCP@@QAE@XZ = .text:0x100200E0; // type:function size:0x170
??0LHSocketTCP@@QAE@H@Z = .text:0x10020250; // type:function size:0x170
??0LHSocketTCP@@QAE@HPAUsockaddr_in@@@Z = .text:0x100203C0; // type:function size:0x1A0
?Connect@LHSocketTCP@@UAE?AW4LH_RETURN@@PAVLHTransportInfo@@@Z = .text:0x10020560; // type:function size:0x220
?Send@LHSocketTCP@@UAE?AW4LH_RETURN@@PAXJ@Z = .text:0x10020780; // type:function size:0x60
?PreparePacketToWrite@LHSocketTCP@@QAE?AW4LH_RETURN@@PAVLHPacket@@@Z = .text:0x100207E0; // type:function size:0x140
?FlushBuffer@LHSocketTCP@@QAE?AW4LH_RETURN@@XZ = .text:0x10020920; // type:function size:0xB0
?Flushed@LHSocketTCP@@QAE_NXZ = .text:0x100209D0; // type:function size:0x30
?Receive@LHSocketTCP@@UAE?AW4LH_RETURN@@PAXJH@Z = .text:0x10020A00; // type:function size:0xB0
?DoAttemptReadPacketNonBlocking@LHSocketTCP@@QAE?AW4LH_RETURN@@XZ = .text:0x10020AB0; // type:function size:0x1F0
?ResetReadPacket@LHSocketTCP@@QAEXXZ = .text:0x10020CA0; // type:function size:0x20
?DecompressPacketIfCompressed@LHSocketTCP@@QAE?AW4LH_RETURN@@XZ = .text:0x10020CC0; // type:function size:0xE0
?GetLastReadPacket@LHSocketTCP@@QAEXPAPAVLHPacket@@@Z = .text:0x10020DA0; // type:function size:0x60
?ReceiveRaw@LHSocketTCP@@QAE?AW4LH_RETURN@@PAXPAJ@Z = .text:0x10020E00; // type:function size:0xB0
?Disconnect@LHSocketTCP@@UAE?AW4LH_RETURN@@XZ = .text:0x10020EB0; // type:function size:0x70
??1LHSocketTCP@@QAE@XZ = .text:0x10020F20; // type:function size:0x20
?SendPacket@LHSocketTCP@@UAE?AW4LH_RETURN@@PAVLHPacket@@@Z = .text:0x10020F40; // type:function size:0x20
?GetNewPacket@LHSocketTCP@@QAE?AW4LH_RETURN@@K@Z = .text:0x10020F60; // type:function size:0x40
?ReceivePacket@LHSocketTCP@@UAE?AW4LH_RETURN@@PAPAVLHPacket@@@Z = .text:0x10020FA0; // type:function size:0x90
?AcceptConnections@LHSocketTCP@@QAE?AW4LH_RETURN@@G@Z = .text:0x10021030; // type:function size:0x1A0
?GetDatagram@LHSocketTCP@@QAE?AW4LH_RETURN@@PAXKPAKPAVLHTransportInfo@@K@Z = .text:0x100211D0; // type:function size:0x120
?ReceiveUDPPacket@LHSocketTCP@@UAE?AW4LH_RETURN@@PAPAVLHPacket@@KPAVLHTransportInfo@@@Z = .text:0x100212F0; // type:function size:0x90
?sockaddr_inFromLHTransportInfo@LHSocketTCP@@SA?AW4LH_RETURN@@PAUsockaddr_in@@PAVLHTransportInfo@@@Z = .text:0x10021380; // type:function size:0x60
?LHTransportInfoFromsockaddr_in@LHSocketTCP@@SA?AW4LH_RETURN@@PAVLHTransportInfo@@PAUsockaddr_in@@@Z = .text:0x100213E0; // type:function size:0xB0
?GetNewConnectedSocket@LHSocketTCP@@QAE?AW4LH_RETURN@@PAPAV1@K@Z = .text:0x10021490; // type:function size:0x220
?SendDatagramPacket@LHSocketTCP@@UAE?AW4LH_RETURN@@PAVLHPacket@@PAVLHTransportInfo@@@Z = .text:0x100216B0; // type:function size:0x30
?SendDatagram@LHSocketTCP@@UAE?AW4LH_RETURN@@PAXKPAVLHTransportInfo@@@Z = .text:0x100216E0; // type:function size:0x1C0
?ListenForBroadcastRequests@LHSocketTCP@@UAE?AW4LH_RETURN@@PAVLHTransportInfo@@@Z = .text:0x100218A0; // type:function size:0x1A0
?GetSocketInfo@LHSocketTCP@@QAE?AW4LH_RETURN@@PAVLHTransportInfo@@H@Z = .text:0x10021A40; // type:function size:0x130
?GetIPAddress@LHSocketTCP@@SAPADXZ = .text:0x10021B70; // type:function size:0x60
?GetIPAddress@@YAPADXZ = .text:0x10021BD0; // type:function size:0x10
?CheckActivity@LHSocketTCP@@QAE_NW4LH_ACTIVITY_TYPE@@@Z = .text:0x10021BE0; // type:function size:0xA0
?SetBlockingMode@LHSocketTCP@@QAE?AW4LH_RETURN@@_N@Z = .text:0x10021C80; // type:function size:0x60
?HasTimedOut@LHSocketTCP@@QAE_NXZ = .text:0x10021CE0; // type:function size:0xB0
fn_10021D90 = .text:0x10021D90; // type:function size:0x20
fn_10021DB0 = .text:0x10021DB0; // type:function size:0x50
fn_10021E00 = .text:0x10021E00; // type:function size:0x220
lbl_10021E10 = .text:0x10021E10; // type:label
fn_10022020 = .text:0x10022020; // type:function size:0x90
fn_100220B0 = .text:0x100220B0; // type:function size:0x70
fn_10022120 = .text:0x10022120; // type:function size:0x80
fn_100221A0 = .text:0x100221A0; // type:function size:0x20
fn_100221C0 = .text:0x100221C0; // type:function size:0x20
fn_100221E0 = .text:0x100221E0; // type:function size:0x60
fn_10022240 = .text:0x10022240; // type:function size:0x20
?ClearAllData@LHTransport@@IAEXXZ = .text:0x10022260; // type:function size:0x20
?ClearLastIncomingEvent@LHTransport@@AAEXXZ = .text:0x10022280; // type:function size:0x30
??1LHTransport@@MAE@XZ = .text:0x100222B0; // type:function size:0x10
?IsDisconnected@LHTransport@@UAEHXZ = .text:0x100222C0; // type:function size:0x10
?IsConnected@LHTransport@@QAEHXZ = .text:0x100222D0; // type:function size:0x20
?GetTransportInfo@LHTransport@@UAE?AW4LH_RETURN@@PAVLHTransportInfo@@H@Z = .text:0x100222F0; // type:function size:0x10
?Open@LHTransport@@UAE?AW4LH_RETURN@@PAV?$LHDynamicQueue@PAVLHNetEvent@@@@0PAVLHTransportInfo@@@Z = .text:0x10022300; // type:function size:0xB0
?OpenConnectionToTransport@LHTransport@@UAE?AW4LH_RETURN@@PAV1@P6AXPAX@Z1@Z = .text:0x100223B0; // type:function size:0xE0
?CheckForEvents@LHTransport@@UAEHXZ = .text:0x10022490; // type:function size:0x10
?CheckForEvent@LHTransport@@UAEHW4LH_NETEVENT_TYPE@@@Z = .text:0x100224A0; // type:function size:0x40
?WaitForEvent@LHTransport@@UAEHW4LH_NETEVENT_TYPE@@K@Z = .text:0x100224E0; // type:function size:0x10
?Close@LHTransport@@UAEXXZ = .text:0x100224F0; // type:function size:0xE0
?Disconnect@LHTransport@@UAE_NXZ = .text:0x100225D0; // type:function size:0x20
?Write@LHTransport@@UAEXPAVLHNetEvent@@@Z = .text:0x100225F0; // type:function size:0x20
?AddToIncomingEventQ@LHTransport@@UAEXPAVLHNetEvent@@@Z = .text:0x10022610; // type:function size:0x20
?AddAtPositionInIncomingEventQ@LHTransport@@UAEXPAVLHNetEvent@@K@Z = .text:0x10022630; // type:function size:0x30
?AddToFrontOfIncomingEventQ@LHTransport@@UAEXPAVLHNetEvent@@@Z = .text:0x10022660; // type:function size:0x20
?GetIncomingEventQSize@LHTransport@@QAEKXZ = .text:0x10022680; // type:function size:0x10
?Read@LHTransport@@UAEPAVLHNetEvent@@K@Z = .text:0x10022690; // type:function size:0x60
?SetLastEventReadToBeIgnored@LHTransport@@QAEXXZ = .text:0x100226F0; // type:function size:0x20
?Peek@LHTransport@@UAEPAVLHNetEvent@@K@Z = .text:0x10022710; // type:function size:0x30
?ExtractEvent@LHTransport@@UAEPAVLHNetEvent@@W4LH_NETEVENT_TYPE@@K@Z = .text:0x10022740; // type:function size:0x40
?RawPeek@LHTransport@@UAEPAVLHNetEvent@@W4LH_NETEVENT_TYPE@@K@Z = .text:0x10022780; // type:function size:0x40
?GetFirstEventOfType@LHTransport@@QAEPAVLHNetEvent@@W4LH_NETEVENT_TYPE@@@Z = .text:0x100227C0; // type:function size:0x90
?PeekAtFirstEventOfType@LHTransport@@AAEPAVLHNetEvent@@W4LH_NETEVENT_TYPE@@@Z = .text:0x10022850; // type:function size:0x30
?PeekAtNextEvent@LHTransport@@AAEPAVLHNetEvent@@XZ = .text:0x10022880; // type:function size:0x20
?Flush@LHTransport@@UAE?AW4LH_RETURN@@K@Z = .text:0x100228A0; // type:function size:0x20
?Flushed@LHTransport@@UAE_NXZ = .text:0x100228C0; // type:function size:0x10
?Create@LHTransport@@SAPAV1@W4LH_TRANSPORT_TYPE@@@Z = .text:0x100228D0; // type:function size:0x171
lbl_100228FE = .text:0x100228FE; // type:label
lbl_1002293C = .text:0x1002293C; // type:label
lbl_10022975 = .text:0x10022975; // type:label
lbl_100229AE = .text:0x100229AE; // type:label
lbl_100229E3 = .text:0x100229E3; // type:label
lbl_10022A44 = .text:0x10022A44; // type:label
?GetSignalDataToRead@LHTransport@@UAEPAXXZ = .text:0x10022A60; // type:function size:0x10
?Destroy@LHTransport@@SAXPAV1@@Z = .text:0x10022A70; // type:function size:0x30
??0LHSyncTransport@@QAE@XZ = .text:0x10022AA0; // type:function size:0x60
?ClearAllData@LHSyncTransport@@AAEXXZ = .text:0x10022B00; // type:function size:0x10
?Read@LHSyncTransport@@UAEPAVLHNetEvent@@K@Z = .text:0x10022B10; // type:function size:0x30
?CheckForEvents@LHSyncTransport@@UAEHXZ = .text:0x10022B40; // type:function size:0x20
?CheckForEvent@LHSyncTransport@@UAEHW4LH_NETEVENT_TYPE@@@Z = .text:0x10022B60; // type:function size:0x30
??1LHAsyncTransport@@UAE@XZ = .text:0x10022B90; // type:function size:0x50
??0LHAsyncTransport@@QAE@XZ = .text:0x10022BE0; // type:function size:0x60
?ClearAllData@LHAsyncTransport@@QAEXXZ = .text:0x10022C40; // type:function size:0x20
?Open@LHAsyncTransport@@MAE?AW4LH_RETURN@@PAV?$LHDynamicQueue@PAVLHNetEvent@@@@0PAVLHTransportInfo@@@Z = .text:0x10022C60; // type:function size:0x60
?OpenConnectionToTransport@LHAsyncTransport@@UAE?AW4LH_RETURN@@PAVLHTransport@@P6AXPAX@Z1@Z = .text:0x10022CC0; // type:function size:0x50
?InitialiseLocks@LHAsyncTransport@@AAEXPAV1@@Z = .text:0x10022D10; // type:function size:0x70
?InitialiseSignals@LHAsyncTransport@@AAE?AW4LH_RETURN@@PAV1@@Z = .text:0x10022D80; // type:function size:0x80
?Close@LHAsyncTransport@@MAEXXZ = .text:0x10022E00; // type:function size:0xA0
?CheckForEvents@LHAsyncTransport@@UAEHXZ = .text:0x10022EA0; // type:function size:0x30
?CheckForEvent@LHAsyncTransport@@UAEHW4LH_NETEVENT_TYPE@@@Z = .text:0x10022ED0; // type:function size:0x40
?Flush@LHAsyncTransport@@UAE?AW4LH_RETURN@@K@Z = .text:0x10022F10; // type:function size:0x70
?WaitForEvent@LHAsyncTransport@@UAEHW4LH_NETEVENT_TYPE@@K@Z = .text:0x10022F80; // type:function size:0x240
?WaitForEvent@LHAsyncTransport@@QAEHK@Z = .text:0x100231C0; // type:function size:0x70
?Read@LHAsyncTransport@@QAEPAVLHNetEvent@@XZ = .text:0x10023230; // type:function size:0x40
?Read@LHAsyncTransport@@UAEPAVLHNetEvent@@K@Z = .text:0x10023270; // type:function size:0x80
?Peek@LHAsyncTransport@@QAEPAVLHNetEvent@@XZ = .text:0x100232F0; // type:function size:0x30
?Peek@LHAsyncTransport@@UAEPAVLHNetEvent@@K@Z = .text:0x10023320; // type:function size:0x40
?ExtractEvent@LHAsyncTransport@@QAEPAVLHNetEvent@@W4LH_NETEVENT_TYPE@@@Z = .text:0x10023360; // type:function size:0x30
?ExtractEvent@LHAsyncTransport@@UAEPAVLHNetEvent@@W4LH_NETEVENT_TYPE@@K@Z = .text:0x10023390; // type:function size:0x40
?RawPeek@LHAsyncTransport@@QAEPAVLHNetEvent@@W4LH_NETEVENT_TYPE@@@Z = .text:0x100233D0; // type:function size:0x30
?RawPeek@LHAsyncTransport@@UAEPAVLHNetEvent@@W4LH_NETEVENT_TYPE@@K@Z = .text:0x10023400; // type:function size:0x40
?Write@LHAsyncTransport@@UAEXPAVLHNetEvent@@@Z = .text:0x10023440; // type:function size:0x40
?AddToIncomingEventQ@LHAsyncTransport@@UAEXPAVLHNetEvent@@@Z = .text:0x10023480; // type:function size:0x40
?AddToFrontOfIncomingEventQ@LHAsyncTransport@@UAEXPAVLHNetEvent@@@Z = .text:0x100234C0; // type:function size:0x40
?AddAtPositionInIncomingEventQ@LHAsyncTransport@@UAEXPAVLHNetEvent@@K@Z = .text:0x10023500; // type:function size:0x40
?Disconnect@LHTransportRemote@@UAE_NXZ = .text:0x10023540; // type:function size:0x40
?ClearAllData@LHTransportRemote@@QAEXXZ = .text:0x10023580; // type:function size:0x10
?Open@LHTransportRemote@@EAE?AW4LH_RETURN@@PAV?$LHDynamicQueue@PAVLHNetEvent@@@@0PAVLHTransportInfo@@@Z = .text:0x10023590; // type:function size:0x90
?Open@LHTransportRemote@@QAE?AW4LH_RETURN@@XZ = .text:0x10023620; // type:function size:0x10
?Close@LHTransportRemote@@UAEXXZ = .text:0x10023630; // type:function size:0x30
??1LHTransportRemote@@UAE@XZ = .text:0x10023660; // type:function size:0x50
??0LHTransportRemote@@QAE@XZ = .text:0x100236B0; // type:function size:0x20
lbl_100236D0 = .text:0x100236D0; // type:label
?RemoteTransportThread@LHTransportRemote@@QAEXXZ = .text:0x100236E0; // type:function size:0x100
?ProcessRemoteDataOrWrite@LHTransportRemote@@AAE?AW4LH_RETURN@@XZ = .text:0x100237E0; // type:function size:0x40
?ProcessRemoteData@LHTransportRemote@@AAE?AW4LH_RETURN@@XZ = .text:0x10023820; // type:function size:0x1A0
?WriteAllOutgoingQEvents@LHTransportRemote@@AAE?AW4LH_RETURN@@XZ = .text:0x100239C0; // type:function size:0xA0
?WriteInternalCloseConnectionEvent@LHTransportRemote@@QAEXXZ = .text:0x10023A60; // type:function size:0x50
?RemoteShutdown@LHTransportTCP@@EAEXXZ = .text:0x10023AB0; // type:function size:0x20
?ClearAllData@LHTransportTCP@@AAEXXZ = .text:0x10023AD0; // type:function size:0x10
?ClearSocket@LHTransportTCP@@AAEXXZ = .text:0x10023AE0; // type:function size:0x30
?Open@LHTransportTCP@@UAE?AW4LH_RETURN@@PAV?$LHDynamicQueue@PAVLHNetEvent@@@@0PAVLHTransportInfo@@@Z = .text:0x10023B10; // type:function size:0xB0
?Open@LHTransportTCP@@QAE?AW4LH_RETURN@@PAVLHSocketTCP@@@Z = .text:0x10023BC0; // type:function size:0x10
?Close@LHTransportTCP@@UAEXXZ = .text:0x10023BD0; // type:function size:0x40
?GetTransportInfo@LHTransportTCP@@EAE?AW4LH_RETURN@@PAVLHTransportInfo@@H@Z = .text:0x10023C10; // type:function size:0x20
?GetRemoteDataAvailableSignal@LHTransportTCP@@EAEPAXXZ = .text:0x10023C30; // type:function size:0x10
??1LHTransportTCP@@UAE@XZ = .text:0x10023C40; // type:function size:0x50
??0LHTransportTCP@@QAE@XZ = .text:0x10023C90; // type:function size:0x20
?ReadyToRead@LHTransportTCP@@EAE_NXZ = .text:0x10023CB0; // type:function size:0x10
?ReadyToWrite@LHTransportTCP@@EAE_NXZ = .text:0x10023CC0; // type:function size:0x10
?FlushBuffer@LHTransportTCP@@EAE?AW4LH_RETURN@@XZ = .text:0x10023CD0; // type:function size:0x30
?Flushed@LHTransportTCP@@EAE_NXZ = .text:0x10023D00; // type:function size:0x40
?ReadOnePacket@LHTransportTCP@@EAE?AW4LH_RETURN@@PAPAVLHPacket@@PAVLHTransportInfo@@@Z = .text:0x10023D40; // type:function size:0x50
?WriteOnePacket@LHTransportTCP@@EAE?AW4LH_RETURN@@PAVLHPacket@@PAVLHTransportInfo@@@Z = .text:0x10023D90; // type:function size:0x10
?PingConnection@LHTransportTCP@@EAE?AW4LH_RETURN@@XZ = .text:0x10023DA0; // type:function size:0x50
?ClearAllData@LHTransportUDP@@AAEXXZ = .text:0x10023DF0; // type:function size:0x10
?RemoteShutdown@LHTransportUDP@@EAEXXZ = .text:0x10023E00; // type:function size:0x20
?ClearSocket@LHTransportUDP@@AAEXXZ = .text:0x10023E20; // type:function size:0x30
?GetTransportInfo@LHTransportUDP@@EAE?AW4LH_RETURN@@PAVLHTransportInfo@@H@Z = .text:0x10023E50; // type:function size:0x20
?Write@LHTransportUDP@@QAE?AW4LH_RETURN@@PAVLHNetEvent@@PAVLHTransportInfo@@@Z = .text:0x10023E70; // type:function size:0x40
?GetRemoteDataAvailableSignal@LHTransportUDP@@EAEPAXXZ = .text:0x10023EB0; // type:function size:0x20
?Open@LHTransportUDP@@UAE?AW4LH_RETURN@@PAV?$LHDynamicQueue@PAVLHNetEvent@@@@0PAVLHTransportInfo@@@Z = .text:0x10023ED0; // type:function size:0xB0
?Close@LHTransportUDP@@UAEXXZ = .text:0x10023F80; // type:function size:0x40
??1LHTransportUDP@@UAE@XZ = .text:0x10023FC0; // type:function size:0x50
??0LHTransportUDP@@QAE@XZ = .text:0x10024010; // type:function size:0x20
?ReadyToRead@LHTransportUDP@@EAE_NXZ = .text:0x10024030; // type:function size:0x10
?ReadyToWrite@LHTransportUDP@@EAE_NXZ = .text:0x10024040; // type:function size:0x10
?ReadOnePacket@LHTransportUDP@@EAE?AW4LH_RETURN@@PAPAVLHPacket@@PAVLHTransportInfo@@@Z = .text:0x10024050; // type:function size:0x20
?WriteOnePacket@LHTransportUDP@@EAE?AW4LH_RETURN@@PAVLHPacket@@PAVLHTransportInfo@@@Z = .text:0x10024070; // type:function size:0x20
?FlushBuffer@LHTransportUDP@@EAE?AW4LH_RETURN@@XZ = .text:0x10024090; // type:function size:0x10
?Flushed@LHTransportUDP@@EAE_NXZ = .text:0x100240A0; // type:function size:0x10
?PingConnection@LHTransportUDP@@EAE?AW4LH_RETURN@@XZ = .text:0x100240B0; // type:function size:0x10
fn_100240C0 = .text:0x100240C0; // type:function size:0x80
fn_10024140 = .text:0x10024140; // type:function size:0x50
fn_10024190 = .text:0x10024190; // type:function size:0x20
?GetEncodedLength@LHTransportInfo@@UAEKKPAX@Z = .text:0x100241B0; // type:function size:0x10
?EncodeToBuffer@LHTransportInfo@@UAEPAEPAEKPAX@Z = .text:0x100241C0; // type:function size:0x40
?DecodeFromBuffer@LHTransportInfo@@UAEPAEPAE@Z = .text:0x10024200; // type:function size:0x40
?Create@LHTransportInfo@@SAPAV1@XZ = .text:0x10024240; // type:function size:0x30
?ClearObject@LHTransportInfo@@UAEXXZ = .text:0x10024270; // type:function size:0x20
fn_10024290 = .text:0x10024290; // type:function size:0x10
fn_100242A0 = .text:0x100242A0; // type:function size:0x20
lbl_100242D0 = .text:0x100242D0; // type:label
fn_0x100242d5 = .text:0x100242D5; // type:function size:0x6
_EnterCriticalSection = .text:0x100242E0; // type:function size:0x6
_LeaveCriticalSection = .text:0x100242E6; // type:function size:0x6
_GetTickCount = .text:0x100242EC; // type:function size:0x6
_WaitForMultipleObjects = .text:0x100242F2; // type:function size:0x6
_CloseHandle = .text:0x100242F8; // type:function size:0x6
_Sleep = .text:0x100242FE; // type:function size:0x6
_CreateEventA = .text:0x10024304; // type:function size:0x6
_InitializeCriticalSection = .text:0x1002430A; // type:function size:0x6
_SetEvent = .text:0x10024310; // type:function size:0x6
_ResetEvent = .text:0x10024316; // type:function size:0x6
_WaitForSingleObject = .text:0x1002431C; // type:function size:0x6
_DeleteCriticalSection = .text:0x10024322; // type:function size:0x6
_GetDiskFreeSpaceA = .text:0x10024328; // type:function size:0x6
_WriteFile = .text:0x1002432E; // type:function size:0x6
_CreateFileA = .text:0x10024334; // type:function size:0x6
_CreateDirectoryA = .text:0x1002433A; // type:function size:0x6
_GetComputerNameA = .text:0x10024340; // type:function size:0x6
_GetProcAddress = .text:0x10024346; // type:function size:0x6
_LoadLibraryA = .text:0x1002434C; // type:function size:0x6
_FreeLibrary = .text:0x10024352; // type:function size:0x6
_GetFileAttributesA = .text:0x10024358; // type:function size:0x6
_ReadFile = .text:0x1002435E; // type:function size:0x6
_SetFilePointer = .text:0x10024364; // type:function size:0x6
_GetFileSize = .text:0x1002436A; // type:function size:0x6
_SetFileAttributesA = .text:0x10024370; // type:function size:0x6
_MultiByteToWideChar = .text:0x10024376; // type:function size:0x6
_WideCharToMultiByte = .text:0x1002437C; // type:function size:0x6
_GetVersionExA = .text:0x10024382; // type:function size:0x6
_SetCommTimeouts = .text:0x10024388; // type:function size:0x6
_SetCommState = .text:0x1002438E; // type:function size:0x6
_GetCommState = .text:0x10024394; // type:function size:0x6
_PurgeComm = .text:0x1002439A; // type:function size:0x6
_SetupComm = .text:0x100243A0; // type:function size:0x6
_SetCommMask = .text:0x100243A6; // type:function size:0x6
_EscapeCommFunction = .text:0x100243AC; // type:function size:0x6
_ClearCommError = .text:0x100243B2; // type:function size:0x6
_SetLastError = .text:0x100243B8; // type:function size:0x6
_GlobalAlloc = .text:0x100243BE; // type:function size:0x6
_GlobalFree = .text:0x100243C4; // type:function size:0x6
_wsprintfA = .text:0x100243CA; // type:function size:0x6
_GetUserNameW = .text:0x100243D0; // type:function size:0x6
_RegCloseKey = .text:0x100243D6; // type:function size:0x6
_RegEnumKeyA = .text:0x100243DC; // type:function size:0x6
_RegQueryInfoKeyA = .text:0x100243E2; // type:function size:0x6
_RegOpenKeyA = .text:0x100243E8; // type:function size:0x6
_RegDeleteKeyA = .text:0x100243EE; // type:function size:0x6
lbl_100243F4 = .text:0x100243F4; // type:label
lbl_10024414 = .text:0x10024414; // type:label
fn_10024426 = .text:0x10024426; // type:function size:0xC
fn_10024438 = .text:0x10024438; // type:function size:0xC
fn_1002444A = .text:0x1002444A; // type:function size:0xC
fn_1002445C = .text:0x1002445C; // type:function size:0xC
fn_10024468 = .text:0x10024468; // type:function size:0x6
fn_1002446E = .text:0x1002446E; // type:function size:0xC
fn_1002447A = .text:0x1002447A; // type:function size:0x6
fn_10024480 = .text:0x10024480; // type:function size:0xC
fn_10024492 = .text:0x10024492; // type:function size:0xC
fn_1002449E = .text:0x1002449E; // type:function size:0x12
lbl_100244A4 = .text:0x100244A4; // type:label
fn_100244B6 = .text:0x100244B6; // type:function size:0xC
fn_100244C8 = .text:0x100244C8; // type:function size:0xC
fn_100244DA = .text:0x100244DA; // type:function size:0xC
fn_100244EC = .text:0x100244EC; // type:function size:0xC
fn_100244FE = .text:0x100244FE; // type:function size:0xC
fn_10024510 = .text:0x10024510; // type:function size:0xC
fn_10024522 = .text:0x10024522; // type:function size:0xC
fn_10024534 = .text:0x10024534; // type:function size:0xC
fn_10024546 = .text:0x10024546; // type:function size:0xC
fn_10024558 = .text:0x10024558; // type:function size:0xC
fn_1002456A = .text:0x1002456A; // type:function size:0xC
fn_1002457C = .text:0x1002457C; // type:function size:0xC
fn_1002458E = .text:0x1002458E; // type:function size:0xC
fn_100245A0 = .text:0x100245A0; // type:function size:0xC
fn_100245B2 = .text:0x100245B2; // type:function size:0xC
fn_100245C4 = .text:0x100245C4; // type:function size:0xC
fn_100245D6 = .text:0x100245D6; // type:function size:0xC
fn_100245E8 = .text:0x100245E8; // type:function size:0xC
fn_100245FA = .text:0x100245FA; // type:function size:0xC
fn_1002460C = .text:0x1002460C; // type:function size:0x1F9
fn_10024895 = .text:0x10024895; // type:function size:0x2B
fn_100248C0 = .text:0x100248C0; // type:function size:0xA0
fn_10024960 = .text:0x10024960; // type:function size:0xB0
fn_10024A10 = .text:0x10024A10; // type:function size:0x20
fn_10024A30 = .text:0x10024A30; // type:function size:0x50
fn_10024A80 = .text:0x10024A80; // type:function size:0x50
fn_10024AD0 = .text:0x10024AD0; // type:function size:0x110
fn_10024BE0 = .text:0x10024BE0; // type:function size:0x20
fn_10024C00 = .text:0x10024C00; // type:function size:0x3DA
lbl_10024C57 = .text:0x10024C57; // type:label
lbl_10024CCE = .text:0x10024CCE; // type:label
lbl_10024D45 = .text:0x10024D45; // type:label
lbl_10024DB2 = .text:0x10024DB2; // type:label
lbl_10024DE7 = .text:0x10024DE7; // type:label
lbl_10024E21 = .text:0x10024E21; // type:label
lbl_10024E5B = .text:0x10024E5B; // type:label
lbl_10024EC0 = .text:0x10024EC0; // type:label
lbl_10024EF8 = .text:0x10024EF8; // type:label
lbl_10024F35 = .text:0x10024F35; // type:label
lbl_10024F6E = .text:0x10024F6E; // type:label
lbl_10024FB6 = .text:0x10024FB6; // type:label
lbl_10024FE3 = .text:0x10024FE3; // type:label
lbl_10024FED = .text:0x10024FED; // type:label
lbl_10024FF8 = .text:0x10024FF8; // type:label
fn_100251C0 = .text:0x100251C0; // type:function size:0x30
fn_100251F0 = .text:0x100251F0; // type:function size:0x200
fn_100254F0 = .text:0x100254F0; // type:function size:0x80
fn_10025640 = .text:0x10025640; // type:function size:0x2B0
fn_100258F0 = .text:0x100258F0; // type:function size:0x30
fn_10025920 = .text:0x10025920; // type:function size:0x80
fn_100259A0 = .text:0x100259A0; // type:function size:0xB0
fn_10025C00 = .text:0x10025C00; // type:function size:0xA0
fn_10025CA0 = .text:0x10025CA0; // type:function size:0x160
fn_10025E00 = .text:0x10025E00; // type:function size:0x130
fn_10025F30 = .text:0x10025F30; // type:function size:0x80
fn_10025FB0 = .text:0x10025FB0; // type:function size:0x330
fn_100262E0 = .text:0x100262E0; // type:function size:0x170
fn_10026450 = .text:0x10026450; // type:function size:0x430
fn_10026880 = .text:0x10026880; // type:function size:0x80
fn_10026900 = .text:0x10026900; // type:function size:0xA0
lbl_100269F4 = .text:0x100269F4; // type:label
lbl_10026A58 = .text:0x10026A58; // type:label
lbl_10026A76 = .text:0x10026A76; // type:label
lbl_10026AD5 = .text:0x10026AD5; // type:label
lbl_10026AEA = .text:0x10026AEA; // type:label
lbl_10026B5D = .text:0x10026B5D; // type:label
lbl_10026C8C = .text:0x10026C8C; // type:label
lbl_10026D35 = .text:0x10026D35; // type:label
lbl_10026E1E = .text:0x10026E1E; // type:label
lbl_1002706E = .text:0x1002706E; // type:label
lbl_1002718F = .text:0x1002718F; // type:label
lbl_1002752C = .text:0x1002752C; // type:label
lbl_10027593 = .text:0x10027593; // type:label
lbl_100275D7 = .text:0x100275D7; // type:label
lbl_10027660 = .text:0x10027660; // type:label
lbl_10027688 = .text:0x10027688; // type:label
fn_100276A0 = .text:0x100276A0; // type:function size:0x40
fn_10027730 = .text:0x10027730; // type:function size:0x130
lbl_10027890 = .text:0x10027890; // type:label
lbl_100278B0 = .text:0x100278B0; // type:label
fn_100278C0 = .text:0x100278C0; // type:function size:0x70
fn_10027930 = .text:0x10027930; // type:function size:0x10
fn_10027940 = .text:0x10027940; // type:function size:0x70
fn_100279B0 = .text:0x100279B0; // type:function size:0xA0
fn_10027A50 = .text:0x10027A50; // type:function size:0x260
fn_10027CB0 = .text:0x10027CB0; // type:function size:0x1F0
fn_10027EA0 = .text:0x10027EA0; // type:function size:0x240
fn_100280E0 = .text:0x100280E0; // type:function size:0xE0
fn_100281C0 = .text:0x100281C0; // type:function size:0x230
fn_100283F0 = .text:0x100283F0; // type:function size:0x80
fn_10028470 = .text:0x10028470; // type:function size:0x70
fn_100284E0 = .text:0x100284E0; // type:function size:0xF0
fn_100285D0 = .text:0x100285D0; // type:function size:0x270
fn_10028840 = .text:0x10028840; // type:function size:0x580
fn_10028E70 = .text:0x10028E70; // type:function size:0x440
fn_100292B0 = .text:0x100292B0; // type:function size:0x80
fn_10029330 = .text:0x10029330; // type:function size:0x20
fn_10029350 = .text:0x10029350; // type:function size:0x90
fn_100293E0 = .text:0x100293E0; // type:function size:0x80
fn_10029460 = .text:0x10029460; // type:function size:0xA0
lbl_10029593 = .text:0x10029593; // type:label
lbl_10029655 = .text:0x10029655; // type:label
lbl_10029749 = .text:0x10029749; // type:label
lbl_100297CA = .text:0x100297CA; // type:label
lbl_10029877 = .text:0x10029877; // type:label
lbl_100298EA = .text:0x100298EA; // type:label
lbl_10029A17 = .text:0x10029A17; // type:label
lbl_10029BA8 = .text:0x10029BA8; // type:label
lbl_10029C17 = .text:0x10029C17; // type:label
lbl_10029C4F = .text:0x10029C4F; // type:label
lbl_10029CC0 = .text:0x10029CC0; // type:label
fn_10029CF0 = .text:0x10029CF0; // type:function size:0x20
?GetCode@LHLogger@@SAKXZ = .text:0x1002A920; // type:function size:0x6
?GetText@LHLogger@@SAPADXZ = .text:0x1002A926; // type:function size:0x6
?ChecksumBlock@LHVersion@@SAKPAEG@Z = .text:0x1002A92C; // type:function size:0x6
?GetMajorMinorULONG@LHVersion@@SA?AW4LH_RETURN@@PADPAK@Z = .text:0x1002A932; // type:function size:0x6
??0LHVersion@@QAE@PAULHVersionBlock@@@Z = .text:0x1002A938; // type:function size:0x6
fn_0x1002a93e = .text:0x1002A93E; // type:function size:0x6
?_lhbeginthread@@YAKPADP6AXPAX@ZI1J@Z = .text:0x1002A944; // type:function size:0x6
?LogS@LHLogger@@SAXPAD0K0ZZ = .text:0x1002A94A; // type:function size:0x6
??0LHSPrintf@@QAA@PADZZ = .text:0x1002A950; // type:function size:0x6
?GetFileName@LHLogger@@SAPADPAD@Z = .text:0x1002A956; // type:function size:0x6
?AppendString@LHSPrintf@@QAAXPADZZ = .text:0x1002A95C; // type:function size:0x6
?RegistryRetrieveString@@YA?AW4LH_RETURN@@PAD00PAK@Z = .text:0x1002A962; // type:function size:0x6
?LHRegistrySetCurrentKey@@YAXW4LH_REG_KEY_TYPE@@@Z = .text:0x1002A968; // type:function size:0x6
?LHRegistryGetCurrentKey@@YA?AW4LH_REG_KEY_TYPE@@XZ = .text:0x1002A96E; // type:function size:0x6
?EncryptBlock@LHVersion@@SAXPAEG@Z = .text:0x1002A974; // type:function size:0x6
?RegistryRetrieveWString@@YA?AW4LH_RETURN@@PAD0PAGPAK@Z = .text:0x1002A97A; // type:function size:0x6
?RegistrySetWString@@YA?AW4LH_RETURN@@PAD0PAG@Z = .text:0x1002A980; // type:function size:0x6
?RegistryCheckKey@@YAHPAD@Z = .text:0x1002A986; // type:function size:0x6
?RegistryRetrieveULong@@YA?AW4LH_RETURN@@PAD0PAK@Z = .text:0x1002A98C; // type:function size:0x6
?RegistryRetrieveDouble@@YA?AW4LH_RETURN@@PAD0PAN@Z = .text:0x1002A992; // type:function size:0x6
?RegistryRetrieveData@@YA?AW4LH_RETURN@@PAD0PAEPAK@Z = .text:0x1002A998; // type:function size:0x6
?RegistrySetULong@@YA?AW4LH_RETURN@@PAD0K@Z = .text:0x1002A99E; // type:function size:0x6
?RegistrySetString@@YA?AW4LH_RETURN@@PAD00@Z = .text:0x1002A9A4; // type:function size:0x6
?RegistrySetDouble@@YA?AW4LH_RETURN@@PAD0N@Z = .text:0x1002A9AA; // type:function size:0x6
?RegistrySetData@@YA?AW4LH_RETURN@@PAD0PAEK@Z = .text:0x1002A9B0; // type:function size:0x6
?SetString@LHSPrintf@@QAAXPADZZ = .text:0x1002A9B6; // type:function size:0x6
lbl_1002A9BC = .text:0x1002A9BC; // type:label
?_CallMemberFunction0@@YGXPAX0@Z = .text:0x1002A9F9; // type:function scope:global
lbl_1002AA36 = .text:0x1002AA36; // type:label
lbl_1002AB01 = .text:0x1002AB01; // type:label
lbl_1002ABAE = .text:0x1002ABAE; // type:label
lbl_1002ABDC = .text:0x1002ABDC; // type:label
lbl_1002ACE4 = .text:0x1002ACE4; // type:label
__unwind_handler = .text:0x1002ACEC; // type:function scope:local
fn_1002AD0E = .text:0x1002AD0E; // type:function size:0x68
__abnormal_termination = .text:0x1002AD76; // type:function scope:global
fn_1002AD99 = .text:0x1002AD99; // type:function size:0x9
fn_1002ADA2 = .text:0x1002ADA2; // type:function size:0x18
fn_1002ADBA = .text:0x1002ADBA; // type:function size:0xB
??_M@YGXPAXIHP6EX0@Z@Z = .text:0x1002ADC5; // type:function scope:global
fn_1002AE2D = .text:0x1002AE2D; // type:function
?__ArrayUnwind@@YGXPAXIHP6EX0@Z@Z = .text:0x1002AE45; // type:function scope:global
fn_1002AE81 = .text:0x1002AE81; // type:function size:0xA
fn_1002AE8B = .text:0x1002AE8B; // type:function size:0x18
fn_1002AEA3 = .text:0x1002AEA3; // type:function size:0x1D
_strncpy = .text:0x1002AEC0; // type:function scope:global
??_L@YGXPAXIHP6EX0@Z1@Z = .text:0x1002AFBE; // type:function scope:global
fn_1002B028 = .text:0x1002B028; // type:function
_free = .text:0x1002B040; // type:function scope:global
fn_1002B0AA = .text:0x1002B0AA; // type:function size:0x9
fn_1002B102 = .text:0x1002B102; // type:function size:0x9
_malloc = .text:0x1002B129; // type:function scope:global
__nh_malloc = .text:0x1002B13B; // type:function scope:global
__heap_alloc = .text:0x1002B167; // type:function scope:global
fn_1002B1CE = .text:0x1002B1CE; // type:function size:0x9
fn_1002B22A = .text:0x1002B22A; // type:function size:0x3
fn_1002B22D = .text:0x1002B22D; // type:function size:0x9
??2@YAPAXI@Z = .text:0x1002B263; // type:function scope:global
_wcsncpy = .text:0x1002B271; // type:function scope:global
_srand = .text:0x1002B2AE; // type:function scope:global
_rand = .text:0x1002B2BB; // type:function scope:global
__onexit = .text:0x1002B2DD; // type:function scope:global
_atexit = .text:0x1002B35B; // type:function scope:global
___onexitinit = .text:0x1002B36D; // type:function scope:global
fn_1002B39C = .text:0x1002B39C; // type:function size:0x17
fn_1002B3B3 = .text:0x1002B3B3; // type:function size:0x1
__cfltcvt_init = .text:0x1002B3B4; // type:function scope:global
__ftol = .text:0x1002B3FC; // type:function scope:global
_sprintf = .text:0x1002B423; // type:function scope:global
_time = .text:0x1002B475; // type:function scope:global
fn_1002B551 = .text:0x1002B551; // type:function size:0x3F
_strstr = .text:0x1002B590; // type:function scope:global
fn_1002B610 = .text:0x1002B610; // type:function size:0x2F
__fread_lk = .text:0x1002B63F; // type:function scope:global
_ftell = .text:0x1002B727; // type:function scope:global
__ftell_lk = .text:0x1002B749; // type:function scope:global
_fseek = .text:0x1002B8AA; // type:function scope:global
__fseek_lk = .text:0x1002B8D6; // type:function scope:global
_fclose = .text:0x1002B963; // type:function scope:global
__fclose_lk = .text:0x1002B994; // type:function scope:global
fn_1002B9E0 = .text:0x1002B9E0; // type:function size:0x2F
__fwrite_lk = .text:0x1002BA0F; // type:function scope:global
__fsopen = .text:0x1002BB19; // type:function scope:global
fn_1002BB4A = .text:0x1002BB4A; // type:function size:0x16
__chkstk = .text:0x1002BB60; // type:function scope:global
_strncmp = .text:0x1002BB90; // type:function scope:global
__strlwr = .text:0x1002BBC8; // type:function scope:global
_atol = .text:0x1002BCFC; // type:function scope:global
fn_1002BD87 = .text:0x1002BD87; // type:function size:0xB
_iswspace = .text:0x1002BEAD; // type:function scope:global
_wcscpy = .text:0x1002BF40; // type:function scope:global
_fprintf = .text:0x1002BF65; // type:function scope:global
_wcslen = .text:0x1002CCB3; // type:function scope:global
_calloc = .text:0x1002CCD0; // type:function scope:global
fn_1002CD64 = .text:0x1002CD64; // type:function size:0x5
fn_1002CD69 = .text:0x1002CD69; // type:function size:0x9
fn_1002CDED = .text:0x1002CDED; // type:function size:0x5
fn_1002CDF2 = .text:0x1002CDF2; // type:function size:0x9
_isxdigit = .text:0x1002CEB3; // type:function scope:global
_isspace = .text:0x1002CEE0; // type:function scope:global
_isalnum = .text:0x1002CF30; // type:function scope:global
_toupper = .text:0x1002D079; // type:function scope:global
__toupper_lk = .text:0x1002D0E8; // type:function scope:global
_wcscmp = .text:0x1002D1B4; // type:function scope:global
_tolower = .text:0x1002D1F1; // type:function scope:global
__tolower_lk = .text:0x1002D260; // type:function scope:global
___tzset = .text:0x1002D52B; // type:function scope:global
__tzset_lk = .text:0x1002D56F; // type:function scope:local
__isindst = .text:0x1002D7F6; // type:function scope:global
__isindst_lk = .text:0x1002D817; // type:function scope:local
_cvtdate = .text:0x1002D9C3; // type:function scope:local
__CRT_INIT@12 = .text:0x1002DBB8; // type:function scope:global
__DllMainCRTStartup@12 = .text:0x1002DC91; // type:function
__amsg_exit = .text:0x1002DD2E; // type:function scope:global
fn_1002E11D = .text:0x1002E11D; // type:function size:0xA
fn_1002E127 = .text:0x1002E127; // type:function size:0x2D
fn_1002E154 = .text:0x1002E154; // type:function size:0x136
fn_1002E28A = .text:0x1002E28A; // type:function size:0xA
fn_1002E294 = .text:0x1002E294; // type:function size:0x18
fn_1002E2AC = .text:0x1002E2AC; // type:function size:0x54
?ExFilterRethrow@@YAHPAU_EXCEPTION_POINTERS@@@Z = .text:0x1002E300; // type:function scope:local
fn_1002E4E2 = .text:0x1002E4E2; // type:function size:0x4
fn_1002E4E6 = .text:0x1002E4E6; // type:function size:0x8
?_DestructExceptionObject@@YAXPAUEHExceptionRecord@@E@Z = .text:0x1002E4EE; // type:function scope:global
fn_1002E544 = .text:0x1002E544; // type:function size:0x9
fn_1002E54D = .text:0x1002E54D; // type:function size:0x33
fn_1002E580 = .text:0x1002E580; // type:function size:0x4C
__mtinit = .text:0x1002E5CC; // type:function scope:global
__mtterm = .text:0x1002E620; // type:function scope:global
__initptd = .text:0x1002E63E; // type:function scope:global
__getptd = .text:0x1002E651; // type:function scope:global
__freeptd = .text:0x1002E6B8; // type:function scope:global
_GetCurrentThreadId = .text:0x1002E758; // type:function size:0x6
_GetCurrentThread = .text:0x1002E75E; // type:function size:0x6
lbl_1002E764 = .text:0x1002E764; // type:label
fn_1002E7AC = .text:0x1002E7AC; // type:function size:0x4
fn_1002E7B0 = .text:0x1002E7B0; // type:function size:0x10
fn_1002E7C0 = .text:0x1002E7C0; // type:function
fn_1002E7DD = .text:0x1002E7DD; // type:function size:0x3D
fn_1002E81A = .text:0x1002E81A; // type:function size:0x4
fn_1002E81E = .text:0x1002E81E; // type:function size:0x10
fn_1002E82E = .text:0x1002E82E; // type:function
__except_handler3 = .text:0x1002E83C; // type:function scope:global
fn_1002E914 = .text:0x1002E914; // type:function size:0x2D
fn_1002E941 = .text:0x1002E941; // type:function size:0x148
__heap_init = .text:0x1002EA89; // type:function scope:global
__heap_term = .text:0x1002EAE6; // type:function scope:global
fn_1002EC60 = .text:0x1002EC60; // type:function size:0x48
___sbh_find_block = .text:0x1002ECA8; // type:function scope:global
fn_1002ECD3 = .text:0x1002ECD3; // type:function size:0x329
___sbh_alloc_block = .text:0x1002EFFC; // type:function scope:global
___sbh_alloc_new_region = .text:0x1002F305; // type:function scope:global
___sbh_alloc_new_group = .text:0x1002F3B6; // type:function scope:global
___sbh_resize_block = .text:0x1002F4B1; // type:function scope:global
fn_1002FBC9 = .text:0x1002FBC9; // type:function size:0x144
fn_1002FD0D = .text:0x1002FD0D; // type:function size:0x56
fn_1002FD63 = .text:0x1002FD63; // type:function size:0xC2
fn_1002FE25 = .text:0x1002FE25; // type:function size:0x57
fn_1002FE7C = .text:0x1002FE7C; // type:function size:0x45
fn_1002FEC1 = .text:0x1002FEC1; // type:function size:0x208
fn_100300C9 = .text:0x100300C9; // type:function size:0x124
fn_100301ED = .text:0x100301ED; // type:function size:0xA9
__mtinitlocks = .text:0x100303F4; // type:function scope:global
__mtdeletelocks = .text:0x1003041D; // type:function scope:global
__lock = .text:0x10030489; // type:function scope:global
__unlock = .text:0x100304EA; // type:function scope:global
__callnewh = .text:0x10030541; // type:function scope:global
__cinit = .text:0x1003055C; // type:function scope:global
__exit = .text:0x1003059A; // type:function scope:global
__cexit = .text:0x100305AB; // type:function scope:global
_doexit = .text:0x100305C9; // type:function scope:local
__lockexit = .text:0x1003066E; // type:function scope:global
__unlockexit = .text:0x10030677; // type:function scope:global
__initterm = .text:0x10030680; // type:function scope:local
_realloc = .text:0x1003069A; // type:function scope:global
fn_1003081D = .text:0x1003081D; // type:function size:0x8
fn_10030825 = .text:0x10030825; // type:function size:0x9
fn_1003096D = .text:0x1003096D; // type:function size:0x6
fn_10030973 = .text:0x10030973; // type:function size:0xB
__msize = .text:0x100309C9; // type:function scope:global
fn_10030A30 = .text:0x10030A30; // type:function size:0x3
fn_10030A33 = .text:0x10030A33; // type:function
fn_10030AAB = .text:0x10030AAB; // type:function size:0x3
fn_10030AAE = .text:0x10030AAE; // type:function
__setdefaultprecision = .text:0x10030AB7; // type:function scope:global
__ms_p5_mp_test_fdiv = .text:0x10030B07; // type:function scope:global
__forcdecpt = .text:0x10030B30; // type:function scope:global
__cropzeros = .text:0x10030B8A; // type:function scope:global
__positive = .text:0x10030BD8; // type:function scope:global
__fassign = .text:0x10030BF0; // type:function scope:global
__cfltcvt = .text:0x10030EE0; // type:function scope:global
__flsbuf = .text:0x10030F56; // type:function scope:global
__output = .text:0x1003106E; // type:function scope:global
lbl_100310E3 = .text:0x100310E3; // type:label
lbl_100310FE = .text:0x100310FE; // type:label
lbl_1003114A = .text:0x1003114A; // type:label
lbl_10031181 = .text:0x10031181; // type:label
lbl_10031189 = .text:0x10031189; // type:label
lbl_100311BE = .text:0x100311BE; // type:label
lbl_1003120D = .text:0x1003120D; // type:label
lbl_10031251 = .text:0x10031251; // type:label
lbl_1003178F = .text:0x1003178F; // type:label
___loctotime_t = .text:0x10031878; // type:function scope:global
__input = .text:0x1003193A; // type:function scope:global
__hextodec = .text:0x1003235F; // type:function scope:local
__inc = .text:0x10032396; // type:function scope:local
__un_inc = .text:0x100323B0; // type:function scope:local
__whiteout = .text:0x100323C7; // type:function scope:local
_strlen = .text:0x100323F0; // type:function scope:global
_strchr = .text:0x10032480; // type:function scope:global
___initstdio = .text:0x1003253C; // type:function scope:global
___endstdio = .text:0x100325E4; // type:function scope:global
__lock_file = .text:0x100325F8; // type:function scope:global
__lock_file2 = .text:0x10032627; // type:function scope:global
__unlock_file = .text:0x1003264A; // type:function scope:global
__unlock_file2 = .text:0x10032679; // type:function scope:global
__filbuf = .text:0x1003269C; // type:function scope:global
__read = .text:0x10032778; // type:function scope:global
__read_lk = .text:0x100327DD; // type:function scope:global
_memcpy = .text:0x100329C0; // type:function scope:global
lbl_10032A20 = .text:0x10032A20; // type:label
lbl_10032A30 = .text:0x10032A30; // type:label
lbl_10032A5C = .text:0x10032A5C; // type:label
lbl_10032A80 = .text:0x10032A80; // type:label
lbl_10032A9C = .text:0x10032A9C; // type:label
lbl_10032ABC = .text:0x10032ABC; // type:label
lbl_10032AC4 = .text:0x10032AC4; // type:label
lbl_10032ACC = .text:0x10032ACC; // type:label
lbl_10032AD4 = .text:0x10032AD4; // type:label
lbl_10032ADC = .text:0x10032ADC; // type:label
lbl_10032AE4 = .text:0x10032AE4; // type:label
lbl_10032AEC = .text:0x10032AEC; // type:label
lbl_10032AFF = .text:0x10032AFF; // type:label
lbl_10032B08 = .text:0x10032B08; // type:label
lbl_10032B18 = .text:0x10032B18; // type:label
lbl_10032B20 = .text:0x10032B20; // type:label
lbl_10032B2C = .text:0x10032B2C; // type:label
lbl_10032B40 = .text:0x10032B40; // type:label
lbl_10032BA8 = .text:0x10032BA8; // type:label
lbl_10032BB8 = .text:0x10032BB8; // type:label
lbl_10032BD8 = .text:0x10032BD8; // type:label
lbl_10032C00 = .text:0x10032C00; // type:label
lbl_10032C50 = .text:0x10032C50; // type:label
lbl_10032C54 = .text:0x10032C54; // type:label
lbl_10032C5C = .text:0x10032C5C; // type:label
lbl_10032C64 = .text:0x10032C64; // type:label
lbl_10032C6C = .text:0x10032C6C; // type:label
lbl_10032C74 = .text:0x10032C74; // type:label
lbl_10032C7C = .text:0x10032C7C; // type:label
lbl_10032C84 = .text:0x10032C84; // type:label
lbl_10032C97 = .text:0x10032C97; // type:label
lbl_10032CA0 = .text:0x10032CA0; // type:label
lbl_10032CB0 = .text:0x10032CB0; // type:label
lbl_10032CB8 = .text:0x10032CB8; // type:label
lbl_10032CC8 = .text:0x10032CC8; // type:label
lbl_10032CDC = .text:0x10032CDC; // type:label
__dosmaperr = .text:0x10032CF5; // type:function scope:global
__errno = .text:0x10032D68; // type:function scope:global
___doserrno = .text:0x10032D71; // type:function scope:global
__ioinit = .text:0x10032D7A; // type:function scope:global
__ioterm = .text:0x10032F36; // type:function scope:global
__lseek = .text:0x10032F8A; // type:function scope:global
__lseek_lk = .text:0x10032FEF; // type:function scope:global
__fflush_lk = .text:0x10033091; // type:function scope:global
__flush = .text:0x100330BF; // type:function scope:global
__flushall = .text:0x1003311B; // type:function scope:global
_flsall = .text:0x10033124; // type:function scope:local
__close = .text:0x100331C8; // type:function scope:global
__close_lk = .text:0x10033225; // type:function scope:global
__freebuf = .text:0x100332A8; // type:function scope:global
__write = .text:0x100332D3; // type:function scope:global
__write_lk = .text:0x10033338; // type:function scope:global
__openfile = .text:0x100334C3; // type:function scope:global
__getstream = .text:0x10033633; // type:function scope:global
_strcpy = .text:0x10033700; // type:function scope:global
__mbscat = .text:0x10033710; // type:function scope:global
___crtLCMapStringA = .text:0x100337F0; // type:function scope:global
fn_10033900 = .text:0x10033900; // type:function size:0x4
fn_10033904 = .text:0x10033904; // type:function size:0xB0
fn_100339B4 = .text:0x100339B4; // type:function size:0x4
fn_100339B8 = .text:0x100339B8; // type:function size:0x5C
fn_10033A14 = .text:0x10033A14; // type:function size:0x2B
fn_10033F71 = .text:0x10033F71; // type:function size:0x3
__isctype = .text:0x100340B8; // type:function scope:global
__allmul = .text:0x10034130; // type:function scope:global
_iswctype = .text:0x10034164; // type:function scope:global
__stbuf = .text:0x100341C6; // type:function scope:global
__ftbuf = .text:0x10034253; // type:function scope:global
fn_10034280 = .text:0x10034280; // type:function size:0xD0
_memset = .text:0x10034350; // type:function scope:global
_strcmp = .text:0x10034510; // type:function scope:global
__getenv_lk = .text:0x100345B5; // type:function scope:global
___crtsetenv = .text:0x10034888; // type:function scope:global
_findenv = .text:0x10034A0F; // type:function scope:local
_copy_environ = .text:0x10034A67; // type:function scope:local
__setenvp = .text:0x10034ACE; // type:function scope:global
__setargv = .text:0x10034B87; // type:function scope:global
_parse_cmdline = .text:0x10034C20; // type:function scope:local
___crtGetEnvironmentStringsA = .text:0x10034DD4; // type:function scope:global
_DllMain@12 = .text:0x10034F06; // type:function scope:global
__FF_MSGBANNER = .text:0x10034F0C; // type:function scope:global
__NMSG_WRITE = .text:0x10034F45; // type:function scope:global
?__CxxUnhandledExceptionFilter@@YGJPAU_EXCEPTION_POINTERS@@@Z = .text:0x100350C9; // type:function scope:global
fn_1003510F = .text:0x1003510F; // type:function size:0x11
fn_10035120 = .text:0x10035120; // type:function size:0xD
?_ValidateExecute@@YAHP6GHXZ@Z = .text:0x10035165; // type:function scope:global
fn_10035180 = .text:0x10035180; // type:function size:0x473
lbl_100351E0 = .text:0x100351E0; // type:label
lbl_100351F0 = .text:0x100351F0; // type:label
lbl_1003521C = .text:0x1003521C; // type:label
lbl_10035240 = .text:0x10035240; // type:label
lbl_1003525C = .text:0x1003525C; // type:label
lbl_1003527C = .text:0x1003527C; // type:label
lbl_10035284 = .text:0x10035284; // type:label
lbl_1003528C = .text:0x1003528C; // type:label
lbl_10035294 = .text:0x10035294; // type:label
lbl_1003529C = .text:0x1003529C; // type:label
lbl_100352A4 = .text:0x100352A4; // type:label
lbl_100352AC = .text:0x100352AC; // type:label
lbl_100352BF = .text:0x100352BF; // type:label
lbl_100352C8 = .text:0x100352C8; // type:label
lbl_100352D8 = .text:0x100352D8; // type:label
lbl_100352E0 = .text:0x100352E0; // type:label
lbl_100352EC = .text:0x100352EC; // type:label
lbl_10035300 = .text:0x10035300; // type:label
lbl_10035368 = .text:0x10035368; // type:label
lbl_10035378 = .text:0x10035378; // type:label
lbl_10035398 = .text:0x10035398; // type:label
lbl_100353C0 = .text:0x100353C0; // type:label
lbl_10035410 = .text:0x10035410; // type:label
lbl_10035414 = .text:0x10035414; // type:label
lbl_1003541C = .text:0x1003541C; // type:label
lbl_10035424 = .text:0x10035424; // type:label
lbl_1003542C = .text:0x1003542C; // type:label
lbl_10035434 = .text:0x10035434; // type:label
lbl_1003543C = .text:0x1003543C; // type:label
lbl_10035444 = .text:0x10035444; // type:label
lbl_10035457 = .text:0x10035457; // type:label
lbl_10035460 = .text:0x10035460; // type:label
lbl_10035470 = .text:0x10035470; // type:label
lbl_10035478 = .text:0x10035478; // type:label
lbl_10035488 = .text:0x10035488; // type:label
lbl_1003549C = .text:0x1003549C; // type:label
_xcptlookup = .text:0x100355F3; // type:function scope:local
__spawnv = .text:0x10035644; // type:function scope:global
__spawnve = .text:0x1003565B; // type:function scope:global
__control87 = .text:0x1003589E; // type:function scope:global
__controlfp = .text:0x100358D3; // type:function scope:global
__abstract_cw = .text:0x10035914; // type:function scope:local
__hw_cw = .text:0x100359A6; // type:function scope:local
fn_10036081 = .text:0x10036081; // type:function size:0x9
__getbuf = .text:0x1003608A; // type:function scope:global
__isatty = .text:0x100360CE; // type:function scope:global
_mbtowc = .text:0x100362A5; // type:function scope:global
__mbstowcs_lk = .text:0x10036302; // type:function scope:global
__allshl = .text:0x100363D0; // type:function scope:global
__ungetc_lk = .text:0x10036418; // type:function scope:global
__alloc_osfhnd = .text:0x10036507; // type:function scope:global
__set_osfhnd = .text:0x1003662A; // type:function scope:global
__free_osfhnd = .text:0x100366A6; // type:function scope:global
__get_osfhandle = .text:0x10036725; // type:function scope:global
__lock_fhandle = .text:0x1003680E; // type:function scope:global
__unlock_fhandle = .text:0x1003686D; // type:function scope:global
__commit = .text:0x1003688F; // type:function scope:global
__sopen = .text:0x10036939; // type:function scope:global
___init_time = .text:0x10036C08; // type:function scope:global
__get_lc_time = .text:0x10036C99; // type:function scope:local
__free_lc_time = .text:0x10036FE7; // type:function scope:local
___init_numeric = .text:0x10037177; // type:function scope:global
_fix_grouping = .text:0x1003734C; // type:function scope:local
___init_monetary = .text:0x10037383; // type:function scope:global
__get_lc_lconv = .text:0x1003744E; // type:function scope:local
fn_0x10037570 = .text:0x10037570; // type:function scope:local
__free_lc_lconv = .text:0x100375A7; // type:function scope:local
___init_ctype = .text:0x100375F5; // type:function scope:global
fn_1003783A = .text:0x1003783A; // type:function size:0x6
lbl_10037B16 = .text:0x10037B16; // type:label
lbl_10037D70 = .text:0x10037D70; // type:label
lbl_10037E64 = .text:0x10037E64; // type:label
lbl_10038021 = .text:0x10038021; // type:label
___crtGetStringTypeA = .text:0x10038161; // type:function scope:global
fn_1003825A = .text:0x1003825A; // type:function size:0x4
fn_1003825E = .text:0x1003825E; // type:function size:0x4C
___crtGetStringTypeW = .text:0x100382AA; // type:function scope:global
fn_10038396 = .text:0x10038396; // type:function size:0x4
fn_1003839A = .text:0x1003839A; // type:function size:0x59
fn_100383F3 = .text:0x100383F3; // type:function size:0x4
fn_100383F7 = .text:0x100383F7; // type:function size:0x78
__mbsnbicoll = .text:0x1003846F; // type:function scope:global
___wtomb_environ = .text:0x100384AE; // type:function scope:global
__mbschr = .text:0x100386BC; // type:function scope:global
__mbsdup = .text:0x10038753; // type:function scope:global
__setmbcp = .text:0x1003877E; // type:function scope:global
fn_1003892B = .text:0x1003892B; // type:function size:0x1A
_GetOEMCP = .text:0x10038945; // type:function size:0x6
_GetACP = .text:0x1003895A; // type:function size:0x6
_CPtoLCID = .text:0x10038975; // type:function scope:local
_setSBCS = .text:0x100389A8; // type:function scope:local
_setSBUpLow = .text:0x100389D1; // type:function scope:local
___initmbctable = .text:0x10038B66; // type:function scope:global
___crtMessageBoxA = .text:0x10038B82; // type:function scope:global
lbl_10038D8D = .text:0x10038D8D; // type:label
_raise = .text:0x10038DEF; // type:function scope:global
_siglookup = .text:0x10038F71; // type:function scope:local
lbl_100391CB = .text:0x100391CB; // type:label
lbl_1003921A = .text:0x1003921A; // type:label
lbl_10039271 = .text:0x10039271; // type:label
lbl_1003929B = .text:0x1003929B; // type:label
lbl_100392F6 = .text:0x100392F6; // type:label
lbl_1003936D = .text:0x1003936D; // type:label
lbl_100393A3 = .text:0x100393A3; // type:label
lbl_100393CC = .text:0x100393CC; // type:label
lbl_100393ED = .text:0x100393ED; // type:label
lbl_10039407 = .text:0x10039407; // type:label
lbl_1003943B = .text:0x1003943B; // type:label
lbl_10039451 = .text:0x10039451; // type:label
lbl_10039602 = .text:0x10039602; // type:label
__chsize_lk = .text:0x1003995A; // type:function scope:global
___getlocaleinfo = .text:0x10039A7F; // type:function scope:global
___crtCompareStringA = .text:0x10039E61; // type:function scope:global
fn_1003A018 = .text:0x1003A018; // type:function size:0x4
fn_1003A01C = .text:0x1003A01C; // type:function size:0x6B
fn_1003A087 = .text:0x1003A087; // type:function size:0x4
fn_1003A08B = .text:0x1003A08B; // type:function size:0x53
fn_1003A0DE = .text:0x1003A0DE; // type:function size:0x2B
fn_1003A22E = .text:0x1003A22E; // type:function size:0x4
fn_1003A232 = .text:0x1003A232; // type:function size:0x72
fn_1003A2A4 = .text:0x1003A2A4; // type:function size:0x4
fn_1003A2A8 = .text:0x1003A2A8; // type:function size:0x7C
__setmode_lk = .text:0x1003A741; // type:function scope:global
___crtGetLocaleInfoW = .text:0x1003A7A2; // type:function scope:global
fn_1003A85B = .text:0x1003A85B; // type:function size:0x4
fn_1003A85F = .text:0x1003A85F; // type:function size:0x56
___crtGetLocaleInfoA = .text:0x1003A8B5; // type:function scope:global
fn_1003A974 = .text:0x1003A974; // type:function size:0x4
fn_1003A978 = .text:0x1003A978; // type:function size:0x5B
fn_1003ABC4 = .text:0x1003ABC4; // type:function size:0x4
fn_1003ABC8 = .text:0x1003ABC8; // type:function size:0x79
fn_1003AC41 = .text:0x1003AC41; // type:function size:0x4
fn_1003AC45 = .text:0x1003AC45; // type:function size:0x86
_timeGetTime = .text:0x1003AD00; // type:function size:0x6
lbl_1003BF10 = .text:0x1003BF10; // type:label
lbl_1003C320 = .text:0x1003C320; // type:label
fn_1003C5E0 = .text:0x1003C5E0; // type:function size:0x120
fn_1003C700 = .text:0x1003C700; // type:function size:0x10
fn_1003C710 = .text:0x1003C710; // type:function size:0x10
fn_1003C720 = .text:0x1003C720; // type:function size:0x20
fn_1003C770 = .text:0x1003C770; // type:function size:0x20
fn_1003C790 = .text:0x1003C790; // type:function size:0x10
fn_1003C7A0 = .text:0x1003C7A0; // type:function size:0x20
fn_1003C800 = .text:0x1003C800; // type:function size:0x60
fn_1003C860 = .text:0x1003C860; // type:function size:0x10
fn_1003C870 = .text:0x1003C870; // type:function size:0x40
fn_1003C910 = .text:0x1003C910; // type:function size:0x50
fn_1003C960 = .text:0x1003C960; // type:function size:0x10
fn_1003C970 = .text:0x1003C970; // type:function size:0x70
fn_1003CA40 = .text:0x1003CA40; // type:function size:0x40
fn_1003CA80 = .text:0x1003CA80; // type:function size:0x10
fn_1003CA90 = .text:0x1003CA90; // type:function size:0x20
fn_1003CAF0 = .text:0x1003CAF0; // type:function size:0x50
fn_1003CB40 = .text:0x1003CB40; // type:function size:0x10
fn_1003CB50 = .text:0x1003CB50; // type:function size:0x30
fn_1003CBD0 = .text:0x1003CBD0; // type:function size:0x40
fn_1003CC10 = .text:0x1003CC10; // type:function size:0x10
fn_1003CC20 = .text:0x1003CC20; // type:function size:0x30
fn_1003CC90 = .text:0x1003CC90; // type:function size:0x40
fn_1003CCD0 = .text:0x1003CCD0; // type:function size:0x10
fn_1003CCE0 = .text:0x1003CCE0; // type:function size:0x30
fn_1003CD50 = .text:0x1003CD50; // type:function size:0x70
fn_1003CDC0 = .text:0x1003CDC0; // type:function size:0x20
fn_1003CDE0 = .text:0x1003CDE0; // type:function size:0x30
fn_1003CE70 = .text:0x1003CE70; // type:function size:0xA0
fn_1003CF10 = .text:0x1003CF10; // type:function size:0x30
fn_1003CF40 = .text:0x1003CF40; // type:function size:0x30
fn_1003CFD0 = .text:0x1003CFD0; // type:function size:0x20
fn_1003CFF0 = .text:0x1003CFF0; // type:function size:0x10
fn_1003D000 = .text:0x1003D000; // type:function size:0x20
fn_1003D060 = .text:0x1003D060; // type:function size:0x70
fn_1003D0D0 = .text:0x1003D0D0; // type:function size:0x20
fn_1003D0F0 = .text:0x1003D0F0; // type:function size:0x30
fn_1003D170 = .text:0x1003D170; // type:function size:0xA0
fn_1003D210 = .text:0x1003D210; // type:function size:0x30
fn_1003D240 = .text:0x1003D240; // type:function size:0x30
fn_1003D2C0 = .text:0x1003D2C0; // type:function size:0x40
fn_1003D300 = .text:0x1003D300; // type:function size:0x10
fn_1003D310 = .text:0x1003D310; // type:function size:0x20
fn_1003D380 = .text:0x1003D380; // type:function size:0x40
fn_1003D3C0 = .text:0x1003D3C0; // type:function size:0x10
fn_1003D3D0 = .text:0x1003D3D0; // type:function size:0x20
fn_1003D440 = .text:0x1003D440; // type:function size:0x40
fn_1003D480 = .text:0x1003D480; // type:function size:0x10
fn_1003D490 = .text:0x1003D490; // type:function size:0x20
fn_1003D500 = .text:0x1003D500; // type:function size:0x40
fn_1003D540 = .text:0x1003D540; // type:function size:0x10
fn_1003D550 = .text:0x1003D550; // type:function size:0x20
fn_1003D5C0 = .text:0x1003D5C0; // type:function size:0x70
fn_1003D630 = .text:0x1003D630; // type:function size:0x20
fn_1003D650 = .text:0x1003D650; // type:function size:0x30
fn_1003D6D0 = .text:0x1003D6D0; // type:function size:0x20
fn_1003D6F0 = .text:0x1003D6F0; // type:function size:0x10
fn_1003D700 = .text:0x1003D700; // type:function size:0x20
fn_1003D760 = .text:0x1003D760; // type:function size:0x70
fn_1003D7D0 = .text:0x1003D7D0; // type:function size:0x20
fn_1003D7F0 = .text:0x1003D7F0; // type:function size:0x30
fn_1003D870 = .text:0x1003D870; // type:function size:0x40
fn_1003D8B0 = .text:0x1003D8B0; // type:function size:0x10
fn_1003D8C0 = .text:0x1003D8C0; // type:function size:0x30
fn_1003D940 = .text:0x1003D940; // type:function size:0x30
fn_1003D970 = .text:0x1003D970; // type:function size:0x10
fn_1003D980 = .text:0x1003D980; // type:function size:0x20
fn_1003D9E0 = .text:0x1003D9E0; // type:function size:0x40
fn_1003DA20 = .text:0x1003DA20; // type:function size:0x10
fn_1003DA30 = .text:0x1003DA30; // type:function size:0x20
fn_1003DAA0 = .text:0x1003DAA0; // type:function size:0x70
fn_1003DB10 = .text:0x1003DB10; // type:function size:0x20
fn_1003DB30 = .text:0x1003DB30; // type:function size:0x30
fn_1003DBB0 = .text:0x1003DBB0; // type:function size:0x70
fn_1003DC20 = .text:0x1003DC20; // type:function size:0x20
fn_1003DC40 = .text:0x1003DC40; // type:function size:0x30
lbl_1003DD00 = .text:0x1003DD00; // type:label
lbl_1003DFA0 = .text:0x1003DFA0; // type:label
lbl_1003E000 = .text:0x1003E000; // type:label
lbl_1003E0A0 = .text:0x1003E0A0; // type:label
lbl_1003E110 = .text:0x1003E110; // type:label
lbl_1003E290 = .text:0x1003E290; // type:label
lbl_1003E2F0 = .text:0x1003E2F0; // type:label
lbl_1003E320 = .text:0x1003E320; // type:label
lbl_1003E440 = .text:0x1003E440; // type:label
lbl_1003E4D0 = .text:0x1003E4D0; // type:label
lbl_1003E6E0 = .text:0x1003E6E0; // type:label
lbl_1003E780 = .text:0x1003E780; // type:label
lbl_1003E930 = .text:0x1003E930; // type:label
lbl_1003EA60 = .text:0x1003EA60; // type:label
lbl_1003EB00 = .text:0x1003EB00; // type:label
lbl_1003EC60 = .text:0x1003EC60; // type:label
fn_0x1003ed20 = .text:0x1003ED20; // type:function size:0x6
fn_1003F160 = .text:0x1003F160; // type:function size:0xA0
lbl_1003F8D0 = .text:0x1003F8D0; // type:label
lbl_1003FF60 = .text:0x1003FF60; // type:label
lbl_100406E0 = .text:0x100406E0; // type:label
lbl_100406F0 = .text:0x100406F0; // type:label
lbl_10040790 = .text:0x10040790; // type:label
lbl_100408B0 = .text:0x100408B0; // type:label
lbl_10040B70 = .text:0x10040B70; // type:label
lbl_10040CA0 = .text:0x10040CA0; // type:label
lbl_10041330 = .text:0x10041330; // type:label
lbl_100413D0 = .text:0x100413D0; // type:label
lbl_10041480 = .text:0x10041480; // type:label
lbl_10041490 = .text:0x10041490; // type:label
lbl_100414A0 = .text:0x100414A0; // type:label
lbl_10041600 = .text:0x10041600; // type:label
lbl_10041640 = .text:0x10041640; // type:label
lbl_100418B0 = .text:0x100418B0; // type:label
lbl_10041B40 = .text:0x10041B40; // type:label
lbl_10041DF0 = .text:0x10041DF0; // type:label
lbl_10041E30 = .text:0x10041E30; // type:label
lbl_10041E50 = .text:0x10041E50; // type:label
lbl_10042160 = .text:0x10042160; // type:label
lbl_100421F0 = .text:0x100421F0; // type:label
lbl_10042280 = .text:0x10042280; // type:label
lbl_10042B1D = .text:0x10042B1D; // type:label
lbl_10042B34 = .text:0x10042B34; // type:label
lbl_10042B4B = .text:0x10042B4B; // type:label
lbl_10042B62 = .text:0x10042B62; // type:label
lbl_10042B79 = .text:0x10042B79; // type:label
lbl_10042BBD = .text:0x10042BBD; // type:label
lbl_10042C2E = .text:0x10042C2E; // type:label
lbl_10042C43 = .text:0x10042C43; // type:label
lbl_10042CA8 = .text:0x10042CA8; // type:label
lbl_10043620 = .text:0x10043620; // type:label
lbl_10043640 = .text:0x10043640; // type:label
lbl_10043A90 = .text:0x10043A90; // type:label
lbl_10043B20 = .text:0x10043B20; // type:label
lbl_10043B70 = .text:0x10043B70; // type:label
lbl_10043C10 = .text:0x10043C10; // type:label
lbl_10043C50 = .text:0x10043C50; // type:label
lbl_10043CA0 = .text:0x10043CA0; // type:label
lbl_10043D40 = .text:0x10043D40; // type:label
lbl_10043DF0 = .text:0x10043DF0; // type:label
lbl_10043E80 = .text:0x10043E80; // type:label
lbl_10043F60 = .text:0x10043F60; // type:label
lbl_10044110 = .text:0x10044110; // type:label
lbl_10044150 = .text:0x10044150; // type:label
lbl_10044200 = .text:0x10044200; // type:label
lbl_100445B0 = .text:0x100445B0; // type:label
lbl_10044805 = .text:0x10044805; // type:label
lbl_10044811 = .text:0x10044811; // type:label
lbl_1004481D = .text:0x1004481D; // type:label
lbl_1004485C = .text:0x1004485C; // type:label
fn_10044990 = .text:0x10044990; // type:function size:0x10
fn_100449A0 = .text:0x100449A0; // type:function size:0x10
fn_100449B0 = .text:0x100449B0; // type:function size:0x10
lbl_10044C70 = .text:0x10044C70; // type:label
lbl_10044C90 = .text:0x10044C90; // type:label
lbl_10044CF0 = .text:0x10044CF0; // type:label
lbl_10044D10 = .text:0x10044D10; // type:label
lbl_10044D30 = .text:0x10044D30; // type:label
lbl_10044D40 = .text:0x10044D40; // type:label
fn_10044D50 = .text:0x10044D50; // type:function size:0x30
fn_10044D80 = .text:0x10044D80; // type:function size:0xB0
fn_10044E30 = .text:0x10044E30; // type:function size:0x70
fn_10044EA0 = .text:0x10044EA0; // type:function size:0x950
fn_100457F0 = .text:0x100457F0; // type:function size:0x50
fn_10045840 = .text:0x10045840; // type:function size:0x50
fn_10045890 = .text:0x10045890; // type:function size:0x20
fn_100458B0 = .text:0x100458B0; // type:function size:0x30
fn_100458E0 = .text:0x100458E0; // type:function size:0x30
fn_10045910 = .text:0x10045910; // type:function size:0x50
fn_10045FC0 = .text:0x10045FC0; // type:function size:0x80
fn_10046040 = .text:0x10046040; // type:function size:0x30
fn_10046070 = .text:0x10046070; // type:function size:0x60
fn_100460D0 = .text:0x100460D0; // type:function size:0x30
lbl_10046312 = .text:0x10046312; // type:label
lbl_1004631C = .text:0x1004631C; // type:label
lbl_10046326 = .text:0x10046326; // type:label
lbl_10046330 = .text:0x10046330; // type:label
lbl_10046334 = .text:0x10046334; // type:label
lbl_10046D00 = .text:0x10046D00; // type:label
lbl_10046D06 = .text:0x10046D06; // type:label
lbl_10046D0C = .text:0x10046D0C; // type:label
lbl_10046D12 = .text:0x10046D12; // type:label
lbl_10046D18 = .text:0x10046D18; // type:label
lbl_10046D1E = .text:0x10046D1E; // type:label
lbl_10046D2C = .text:0x10046D2C; // type:label
lbl_10046DC0 = .text:0x10046DC0; // type:label
lbl_10046DC7 = .text:0x10046DC7; // type:label
lbl_10046DCE = .text:0x10046DCE; // type:label
lbl_10046DD5 = .text:0x10046DD5; // type:label
lbl_10046E08 = .text:0x10046E08; // type:label
lbl_10046E20 = .text:0x10046E20; // type:label
lbl_10046E80 = .text:0x10046E80; // type:label
lbl_10046F10 = .text:0x10046F10; // type:label
lbl_10046FA0 = .text:0x10046FA0; // type:label
fn_10047010 = .text:0x10047010; // type:function size:0x50
fn_100470A0 = .text:0x100470A0; // type:function size:0x20
fn_100470C0 = .text:0x100470C0; // type:function size:0x10
fn_100470D0 = .text:0x100470D0; // type:function size:0x20
fn_100470F0 = .text:0x100470F0; // type:function size:0x20
fn_10047110 = .text:0x10047110; // type:function size:0x70
fn_10047180 = .text:0x10047180; // type:function size:0x30
fn_100471B0 = .text:0x100471B0; // type:function size:0x40
fn_10047230 = .text:0x10047230; // type:function size:0x50
fn_10047280 = .text:0x10047280; // type:function size:0x20
fn_100472A0 = .text:0x100472A0; // type:function size:0x30
fn_100472F0 = .text:0x100472F0; // type:function size:0x90
fn_10047380 = .text:0x10047380; // type:function size:0x40
fn_10047460 = .text:0x10047460; // type:function size:0x50
fn_100474B0 = .text:0x100474B0; // type:function size:0x70
fn_10047AA0 = .text:0x10047AA0; // type:function size:0x60
fn_10047B00 = .text:0x10047B00; // type:function size:0xB0
fn_10047BB0 = .text:0x10047BB0; // type:function size:0x60
lbl_100484F0 = .text:0x100484F0; // type:label
lbl_10048569 = .text:0x10048569; // type:label
lbl_10048587 = .text:0x10048587; // type:label
lbl_1004859B = .text:0x1004859B; // type:label
lbl_100485D4 = .text:0x100485D4; // type:label
lbl_10048604 = .text:0x10048604; // type:label
lbl_10048618 = .text:0x10048618; // type:label
lbl_1004862B = .text:0x1004862B; // type:label
lbl_10048649 = .text:0x10048649; // type:label
lbl_10048651 = .text:0x10048651; // type:label
lbl_100486AE = .text:0x100486AE; // type:label
lbl_100486CD = .text:0x100486CD; // type:label
lbl_100486D8 = .text:0x100486D8; // type:label
lbl_10048719 = .text:0x10048719; // type:label
lbl_1004877F = .text:0x1004877F; // type:label
lbl_100487B0 = .text:0x100487B0; // type:label
lbl_100487C5 = .text:0x100487C5; // type:label
lbl_10048810 = .text:0x10048810; // type:label
lbl_1004882F = .text:0x1004882F; // type:label
lbl_10048841 = .text:0x10048841; // type:label
lbl_10048884 = .text:0x10048884; // type:label
lbl_10048894 = .text:0x10048894; // type:label
fn_10048910 = .text:0x10048910; // type:function size:0xB10
lbl_100489E0 = .text:0x100489E0; // type:label
lbl_10048A07 = .text:0x10048A07; // type:label
lbl_10048A45 = .text:0x10048A45; // type:label
lbl_10048A83 = .text:0x10048A83; // type:label
lbl_10048AC1 = .text:0x10048AC1; // type:label
lbl_10048B1C = .text:0x10048B1C; // type:label
lbl_10048B3B = .text:0x10048B3B; // type:label
lbl_10048B62 = .text:0x10048B62; // type:label
lbl_10048BD3 = .text:0x10048BD3; // type:label
lbl_10048C29 = .text:0x10048C29; // type:label
lbl_10048C64 = .text:0x10048C64; // type:label
lbl_10048CB4 = .text:0x10048CB4; // type:label
lbl_10048CDA = .text:0x10048CDA; // type:label
lbl_10048D15 = .text:0x10048D15; // type:label
lbl_10048E7F = .text:0x10048E7F; // type:label
lbl_10048EBF = .text:0x10048EBF; // type:label
lbl_10048EFC = .text:0x10048EFC; // type:label
lbl_10048F67 = .text:0x10048F67; // type:label
lbl_10048F8F = .text:0x10048F8F; // type:label
lbl_10049061 = .text:0x10049061; // type:label
lbl_10049169 = .text:0x10049169; // type:label
lbl_100491C8 = .text:0x100491C8; // type:label
lbl_100491F0 = .text:0x100491F0; // type:label
lbl_100492B8 = .text:0x100492B8; // type:label
lbl_100492D8 = .text:0x100492D8; // type:label
lbl_100493FB = .text:0x100493FB; // type:label
lbl_10049420 = .text:0x10049420; // type:label
lbl_100494AB = .text:0x100494AB; // type:label
lbl_100494C9 = .text:0x100494C9; // type:label
lbl_100494EB = .text:0x100494EB; // type:label
lbl_10049511 = .text:0x10049511; // type:label
lbl_1004953F = .text:0x1004953F; // type:label
lbl_10049565 = .text:0x10049565; // type:label
lbl_10049583 = .text:0x10049583; // type:label
lbl_100495B9 = .text:0x100495B9; // type:label
lbl_100495E7 = .text:0x100495E7; // type:label
lbl_1004961D = .text:0x1004961D; // type:label
lbl_10049647 = .text:0x10049647; // type:label
lbl_10049669 = .text:0x10049669; // type:label
lbl_1004968F = .text:0x1004968F; // type:label
lbl_100496BC = .text:0x100496BC; // type:label
lbl_100498F0 = .text:0x100498F0; // type:label
lbl_10049940 = .text:0x10049940; // type:label
lbl_10049960 = .text:0x10049960; // type:label
lbl_10049A20 = .text:0x10049A20; // type:label
fn_10049A40 = .text:0x10049A40; // type:function size:0x60
fn_10049AA0 = .text:0x10049AA0; // type:function size:0x120
lbl_10049BC0 = .text:0x10049BC0; // type:label
lbl_10049BD0 = .text:0x10049BD0; // type:label
lbl_10049BF0 = .text:0x10049BF0; // type:label
fn_10049C00 = .text:0x10049C00; // type:function size:0x90
fn_10049C90 = .text:0x10049C90; // type:function size:0x20
fn_10049CB0 = .text:0x10049CB0; // type:function size:0x60
lbl_10049D90 = .text:0x10049D90; // type:label
fn_10049E40 = .text:0x10049E40; // type:function size:0x20
fn_10049E60 = .text:0x10049E60; // type:function size:0x40
fn_10049EA0 = .text:0x10049EA0; // type:function size:0x40
fn_10049EE0 = .text:0x10049EE0; // type:function size:0x80
fn_10049F80 = .text:0x10049F80; // type:function size:0x30
fn_10049FB0 = .text:0x10049FB0; // type:function size:0x20
fn_10049FD0 = .text:0x10049FD0; // type:function size:0x40
fn_1004A030 = .text:0x1004A030; // type:function size:0x100
fn_1004A130 = .text:0x1004A130; // type:function size:0x70
fn_1004A1A0 = .text:0x1004A1A0; // type:function size:0x80
lbl_1004A220 = .text:0x1004A220; // type:label
fn_1004A260 = .text:0x1004A260; // type:function size:0x40
lbl_1004A2A0 = .text:0x1004A2A0; // type:label
fn_1004A380 = .text:0x1004A380; // type:function size:0x150
lbl_1004A650 = .text:0x1004A650; // type:label
fn_1004A680 = .text:0x1004A680; // type:function size:0x80
lbl_1004A700 = .text:0x1004A700; // type:label
lbl_1004A810 = .text:0x1004A810; // type:label
lbl_1004A880 = .text:0x1004A880; // type:label
lbl_1004A8E0 = .text:0x1004A8E0; // type:label
fn_1004AB70 = .text:0x1004AB70; // type:function size:0x60
fn_1004ABD0 = .text:0x1004ABD0; // type:function size:0x30
fn_1004AC00 = .text:0x1004AC00; // type:function size:0x3D0
fn_1004B4F0 = .text:0x1004B4F0; // type:function size:0x16D
lbl_1004B544 = .text:0x1004B544; // type:label
lbl_1004B54E = .text:0x1004B54E; // type:label
lbl_1004B554 = .text:0x1004B554; // type:label
lbl_1004B558 = .text:0x1004B558; // type:label
lbl_1004B55F = .text:0x1004B55F; // type:label
lbl_1004B56B = .text:0x1004B56B; // type:label
lbl_1004B572 = .text:0x1004B572; // type:label
lbl_1004B579 = .text:0x1004B579; // type:label
lbl_1004B585 = .text:0x1004B585; // type:label
lbl_1004B58C = .text:0x1004B58C; // type:label
lbl_1004B593 = .text:0x1004B593; // type:label
lbl_1004B59A = .text:0x1004B59A; // type:label
lbl_1004B5A6 = .text:0x1004B5A6; // type:label
lbl_1004B5B2 = .text:0x1004B5B2; // type:label
lbl_1004B5BB = .text:0x1004B5BB; // type:label
lbl_1004B5C2 = .text:0x1004B5C2; // type:label
lbl_1004B627 = .text:0x1004B627; // type:label
lbl_1004B660 = .text:0x1004B660; // type:label
lbl_1004B6A4 = .text:0x1004B6A4; // type:label
fn_1004B720 = .text:0x1004B720; // type:function size:0x7C
lbl_1004B744 = .text:0x1004B744; // type:label
lbl_1004B74A = .text:0x1004B74A; // type:label
lbl_1004B76D = .text:0x1004B76D; // type:label
lbl_1004B774 = .text:0x1004B774; // type:label
lbl_1004B77B = .text:0x1004B77B; // type:label
lbl_1004B782 = .text:0x1004B782; // type:label
lbl_1004B789 = .text:0x1004B789; // type:label
lbl_1004B78E = .text:0x1004B78E; // type:label
lbl_1004B79C = .text:0x1004B79C; // type:label
fn_1004B7C0 = .text:0x1004B7C0; // type:function size:0x70
fn_1004B830 = .text:0x1004B830; // type:function size:0x1E0
fn_1004BA10 = .text:0x1004BA10; // type:function size:0xD0
fn_1004BAE0 = .text:0x1004BAE0; // type:function size:0xD0
fn_1004BBB0 = .text:0x1004BBB0; // type:function size:0x20
fn_1004BBD0 = .text:0x1004BBD0; // type:function size:0xB0
fn_1004BC80 = .text:0x1004BC80; // type:function size:0xA0
fn_1004BD20 = .text:0x1004BD20; // type:function size:0x1C0
fn_1004BEE0 = .text:0x1004BEE0; // type:function size:0xE0
fn_1004BFC0 = .text:0x1004BFC0; // type:function size:0x140
lbl_1004C100 = .text:0x1004C100; // type:label
fn_1004C1B0 = .text:0x1004C1B0; // type:function size:0x30
lbl_1004C1E0 = .text:0x1004C1E0; // type:label
fn_1004C290 = .text:0x1004C290; // type:function size:0x30
fn_1004C2C0 = .text:0x1004C2C0; // type:function size:0x70
fn_1004C330 = .text:0x1004C330; // type:function size:0x110
fn_1004C440 = .text:0x1004C440; // type:function size:0x70
fn_1004C4B0 = .text:0x1004C4B0; // type:function size:0x50
fn_1004C500 = .text:0x1004C500; // type:function size:0x1C0
fn_1004C6C0 = .text:0x1004C6C0; // type:function size:0x160
fn_1004C820 = .text:0x1004C820; // type:function size:0xC0
fn_1004C8E0 = .text:0x1004C8E0; // type:function size:0xC0
fn_1004C9A0 = .text:0x1004C9A0; // type:function size:0x90
fn_1004CA30 = .text:0x1004CA30; // type:function size:0x130
fn_1004CB60 = .text:0x1004CB60; // type:function size:0xA0
fn_1004CC00 = .text:0x1004CC00; // type:function size:0x90
fn_1004CC90 = .text:0x1004CC90; // type:function size:0x40
fn_1004CCD0 = .text:0x1004CCD0; // type:function size:0x1F0
fn_1004CEC0 = .text:0x1004CEC0; // type:function size:0x70
fn_1004CF30 = .text:0x1004CF30; // type:function size:0x120
fn_1004D050 = .text:0x1004D050; // type:function size:0x180
fn_1004D1D0 = .text:0x1004D1D0; // type:function size:0x120
fn_1004D2F0 = .text:0x1004D2F0; // type:function size:0xA0
fn_1004D390 = .text:0x1004D390; // type:function size:0xC0
fn_1004D450 = .text:0x1004D450; // type:function size:0x80
fn_1004D4D0 = .text:0x1004D4D0; // type:function size:0x30
fn_1004D500 = .text:0x1004D500; // type:function size:0xB0
fn_1004D5B0 = .text:0x1004D5B0; // type:function size:0x70
fn_1004D620 = .text:0x1004D620; // type:function size:0x70
fn_1004D690 = .text:0x1004D690; // type:function size:0x70
fn_1004D700 = .text:0x1004D700; // type:function size:0x70
fn_1004D770 = .text:0x1004D770; // type:function size:0x70
fn_1004D7E0 = .text:0x1004D7E0; // type:function size:0x70
fn_1004D850 = .text:0x1004D850; // type:function size:0x10
fn_1004D860 = .text:0x1004D860; // type:function size:0x20
fn_1004D880 = .text:0x1004D880; // type:function size:0x30
fn_1004D8B0 = .text:0x1004D8B0; // type:function size:0x70
fn_1004D990 = .text:0x1004D990; // type:function size:0x60
fn_1004D9F0 = .text:0x1004D9F0; // type:function size:0x50
fn_1004DA40 = .text:0x1004DA40; // type:function size:0x50
fn_1004DA90 = .text:0x1004DA90; // type:function size:0x40
lbl_1004E580 = .text:0x1004E580; // type:label
__rmdir = .text:0x1004E7D0; // type:function scope:global
fn_1004E7FA = .text:0x1004E7FA; // type:function size:0xB
___inittime = .text:0x1004E848; // type:function scope:global
_vsprintf = .text:0x1004EA98; // type:function scope:global
fn_1004EAE9 = .text:0x1004EAE9; // type:function size:0x9C
_WSOCK32_8 = .text:0x1004EC16; // type:function size:0x6
_LocalAlloc = .text:0x1004EC1C; // type:function size:0x6
_InterlockedExchange = .text:0x1004EC22; // type:function size:0x6
_RaiseException = .text:0x1004EC28; // type:function size:0x6
_GetLastError = .text:0x1004EC2E; // type:function size:0x6
_LocalFree = .text:0x1004EC34; // type:function size:0x6
_RtlUnwind = .text:0x1004EC3A; // type:function size:0x6
_HeapFree = .text:0x1004EC40; // type:function size:0x6
_HeapAlloc = .text:0x1004EC46; // type:function size:0x6
_GetTimeZoneInformation = .text:0x1004EC4C; // type:function size:0x6
_GetSystemTime = .text:0x1004EC52; // type:function size:0x6
_GetLocalTime = .text:0x1004EC58; // type:function size:0x6
_InterlockedDecrement = .text:0x1004EC5E; // type:function size:0x6
_InterlockedIncrement = .text:0x1004EC64; // type:function size:0x6
_GetCommandLineA = .text:0x1004EC6A; // type:function size:0x6
_GetVersion = .text:0x1004EC70; // type:function size:0x6
fn_0x1004ec76 = .text:0x1004EC76; // type:function size:0x6
_TlsSetValue = .text:0x1004EC7C; // type:function size:0x6
_TlsAlloc = .text:0x1004EC82; // type:function size:0x6
_TlsFree = .text:0x1004EC88; // type:function size:0x6
_TlsGetValue = .text:0x1004EC8E; // type:function size:0x6
fn_0x1004ec94 = .text:0x1004EC94; // type:function size:0x6
_GetModuleHandleA = .text:0x1004EC9A; // type:function size:0x6
_GetModuleFileNameA = .text:0x1004ECA0; // type:function size:0x6
_GetEnvironmentVariableA = .text:0x1004ECA6; // type:function size:0x6
_HeapDestroy = .text:0x1004ECAC; // type:function size:0x6
_HeapCreate = .text:0x1004ECB2; // type:function size:0x6
_VirtualFree = .text:0x1004ECB8; // type:function size:0x6
_VirtualAlloc = .text:0x1004ECBE; // type:function size:0x6
_HeapReAlloc = .text:0x1004ECC4; // type:function size:0x6
_IsBadWritePtr = .text:0x1004ECCA; // type:function size:0x6
_ExitProcess = .text:0x1004ECD0; // type:function size:0x6
_FatalAppExitA = .text:0x1004ECD6; // type:function size:0x6
_TerminateProcess = .text:0x1004ECDC; // type:function size:0x6
_GetCurrentProcess = .text:0x1004ECE2; // type:function size:0x6
_HeapSize = .text:0x1004ECE8; // type:function size:0x6
_SetHandleCount = .text:0x1004ECEE; // type:function size:0x6
_GetStdHandle = .text:0x1004ECF4; // type:function size:0x6
_GetFileType = .text:0x1004ECFA; // type:function size:0x6
_GetStartupInfoA = .text:0x1004ED00; // type:function size:0x6
_LCMapStringA = .text:0x1004ED06; // type:function size:0x6
_LCMapStringW = .text:0x1004ED0C; // type:function size:0x6
_SetEnvironmentVariableW = .text:0x1004ED12; // type:function size:0x6
_SetEnvironmentVariableA = .text:0x1004ED18; // type:function size:0x6
_FreeEnvironmentStringsA = .text:0x1004ED1E; // type:function size:0x6
_FreeEnvironmentStringsW = .text:0x1004ED24; // type:function size:0x6
_GetEnvironmentStrings = .text:0x1004ED2A; // type:function size:0x6
_GetEnvironmentStringsW = .text:0x1004ED30; // type:function size:0x6
_SetUnhandledExceptionFilter = .text:0x1004ED36; // type:function size:0x6
_IsBadReadPtr = .text:0x1004ED3C; // type:function size:0x6
_IsBadCodePtr = .text:0x1004ED42; // type:function size:0x6
_UnhandledExceptionFilter = .text:0x1004ED48; // type:function size:0x6
_SetStdHandle = .text:0x1004ED4E; // type:function size:0x6
_FlushFileBuffers = .text:0x1004ED54; // type:function size:0x6
_GetCPInfo = .text:0x1004ED5A; // type:function size:0x6
_IsValidLocale = .text:0x1004ED60; // type:function size:0x6
_IsValidCodePage = .text:0x1004ED66; // type:function size:0x6
_GetLocaleInfoA = .text:0x1004ED6C; // type:function size:0x6
_EnumSystemLocalesA = .text:0x1004ED72; // type:function size:0x6
_GetUserDefaultLCID = .text:0x1004ED78; // type:function size:0x6
_GetStringTypeA = .text:0x1004ED7E; // type:function size:0x6
_GetStringTypeW = .text:0x1004ED84; // type:function size:0x6
fn_0x1004ed8a = .text:0x1004ED8A; // type:function size:0x6
fn_0x1004ed90 = .text:0x1004ED90; // type:function size:0x6
_SetConsoleCtrlHandler = .text:0x1004ED96; // type:function size:0x6
_SetEndOfFile = .text:0x1004ED9C; // type:function size:0x6
_CompareStringA = .text:0x1004EDA2; // type:function size:0x6
_CompareStringW = .text:0x1004EDA8; // type:function size:0x6
_GetLocaleInfoW = .text:0x1004EDAE; // type:function size:0x6
_QueryPerformanceCounter = .text:0x1004EDB4; // type:function size:0x6
_DeleteFileA = .text:0x1004EDBA; // type:function size:0x6
_GetSystemTimeAsFileTime = .text:0x1004EDC0; // type:function size:0x6
_RegSetValueExA = .text:0x1004EDC6; // type:function size:0x6
_RegCreateKeyExA = .text:0x1004EDCC; // type:function size:0x6
_RegQueryValueExA = .text:0x1004EDD2; // type:function size:0x6
_RegOpenKeyExA = .text:0x1004EDD8; // type:function size:0x6
fn_1004EDE0 = .text:0x1004EDE0; // type:function size:0x8
lbl_1004EDE8 = .text:0x1004EDE8; // type:label
fn_1004EE00 = .text:0x1004EE00; // type:function size:0xB
fn_1004EE0B = .text:0x1004EE0B; // type:function size:0x8
lbl_1004EE13 = .text:0x1004EE13; // type:label
fn_1004EE20 = .text:0x1004EE20; // type:function size:0xB
lbl_1004EE2B = .text:0x1004EE2B; // type:label
fn_1004EE40 = .text:0x1004EE40; // type:function size:0xB
lbl_1004EE4B = .text:0x1004EE4B; // type:label
fn_1004EE60 = .text:0x1004EE60; // type:function size:0xE
lbl_1004EE6E = .text:0x1004EE6E; // type:label
fn_1004EE80 = .text:0x1004EE80; // type:function size:0xE
lbl_1004EE8E = .text:0x1004EE8E; // type:label
fn_1004EEA0 = .text:0x1004EEA0; // type:function size:0xB
fn_1004EEAB = .text:0x1004EEAB; // type:function size:0x8
fn_1004EEB3 = .text:0x1004EEB3; // type:function size:0xE
lbl_1004EEC1 = .text:0x1004EEC1; // type:label
fn_1004EED0 = .text:0x1004EED0; // type:function size:0xB
fn_1004EEDB = .text:0x1004EEDB; // type:function size:0x8
fn_1004EEE3 = .text:0x1004EEE3; // type:function size:0xE
lbl_1004EEF1 = .text:0x1004EEF1; // type:label
fn_1004EF00 = .text:0x1004EF00; // type:function size:0x8
fn_1004EF08 = .text:0x1004EF08; // type:function size:0xE
fn_1004EF16 = .text:0x1004EF16; // type:function size:0x18
lbl_1004EF2E = .text:0x1004EF2E; // type:label
fn_1004EF40 = .text:0x1004EF40; // type:function size:0xB
lbl_1004EF4B = .text:0x1004EF4B; // type:label
fn_1004EF60 = .text:0x1004EF60; // type:function size:0x8
lbl_1004EF68 = .text:0x1004EF68; // type:label
fn_1004EF80 = .text:0x1004EF80; // type:function size:0xE
lbl_1004EF8E = .text:0x1004EF8E; // type:label
fn_1004EFA0 = .text:0x1004EFA0; // type:function size:0xE
fn_1004EFAE = .text:0x1004EFAE; // type:function size:0xE
lbl_1004EFBC = .text:0x1004EFBC; // type:label
fn_1004EFD0 = .text:0x1004EFD0; // type:function size:0xB
lbl_1004EFDB = .text:0x1004EFDB; // type:label
fn_1004EFF0 = .text:0x1004EFF0; // type:function size:0xB
fn_1004EFFB = .text:0x1004EFFB; // type:function size:0xB
fn_1004F006 = .text:0x1004F006; // type:function size:0x8
lbl_1004F00E = .text:0x1004F00E; // type:label
fn_1004F020 = .text:0x1004F020; // type:function size:0xE
lbl_1004F02E = .text:0x1004F02E; // type:label
fn_1004F040 = .text:0x1004F040; // type:function size:0xE
lbl_1004F04E = .text:0x1004F04E; // type:label
fn_1004F060 = .text:0x1004F060; // type:function size:0xB
fn_1004F06B = .text:0x1004F06B; // type:function size:0xB
fn_1004F076 = .text:0x1004F076; // type:function size:0x8
lbl_1004F07E = .text:0x1004F07E; // type:label
fn_1004F090 = .text:0x1004F090; // type:function size:0xE
lbl_1004F09E = .text:0x1004F09E; // type:label
fn_1004F0B0 = .text:0x1004F0B0; // type:function size:0xE
lbl_1004F0BE = .text:0x1004F0BE; // type:label
fn_1004F0D0 = .text:0x1004F0D0; // type:function size:0xE
fn_1004F0DE = .text:0x1004F0DE; // type:function size:0xE
lbl_1004F0EC = .text:0x1004F0EC; // type:label
fn_1004F100 = .text:0x1004F100; // type:function size:0xE
lbl_1004F10E = .text:0x1004F10E; // type:label
fn_1004F120 = .text:0x1004F120; // type:function size:0xE
lbl_1004F12E = .text:0x1004F12E; // type:label
fn_1004F140 = .text:0x1004F140; // type:function size:0xE
fn_1004F14E = .text:0x1004F14E; // type:function size:0x8
fn_1004F156 = .text:0x1004F156; // type:function size:0x8
lbl_1004F15E = .text:0x1004F15E; // type:label
fn_1004F170 = .text:0x1004F170; // type:function size:0xE
lbl_1004F17E = .text:0x1004F17E; // type:label
fn_1004F190 = .text:0x1004F190; // type:function size:0x8
fn_1004F198 = .text:0x1004F198; // type:function size:0x8
fn_1004F1A0 = .text:0x1004F1A0; // type:function size:0x8
lbl_1004F1A8 = .text:0x1004F1A8; // type:label
fn_1004F1C0 = .text:0x1004F1C0; // type:function size:0x8
fn_1004F1C8 = .text:0x1004F1C8; // type:function size:0xE
fn_1004F1D6 = .text:0x1004F1D6; // type:function size:0xE
lbl_1004F1E4 = .text:0x1004F1E4; // type:label
fn_1004F1F0 = .text:0x1004F1F0; // type:function size:0xB
fn_1004F1FB = .text:0x1004F1FB; // type:function size:0xE
fn_1004F209 = .text:0x1004F209; // type:function size:0xE
fn_1004F217 = .text:0x1004F217; // type:function size:0x8
fn_1004F21F = .text:0x1004F21F; // type:function size:0xE
fn_1004F22D = .text:0x1004F22D; // type:function size:0xE
lbl_1004F23B = .text:0x1004F23B; // type:label
fn_1004F250 = .text:0x1004F250; // type:function size:0x8
fn_1004F258 = .text:0x1004F258; // type:function size:0xE
fn_1004F266 = .text:0x1004F266; // type:function size:0xE
lbl_1004F274 = .text:0x1004F274; // type:label
fn_1004F280 = .text:0x1004F280; // type:function size:0x8
lbl_1004F288 = .text:0x1004F288; // type:label
fn_1004F2A0 = .text:0x1004F2A0; // type:function size:0xE
fn_1004F2AE = .text:0x1004F2AE; // type:function size:0x11
fn_1004F2BF = .text:0x1004F2BF; // type:function size:0x11
fn_1004F2D0 = .text:0x1004F2D0; // type:function size:0xB
fn_1004F2DB = .text:0x1004F2DB; // type:function size:0x11
fn_1004F2EC = .text:0x1004F2EC; // type:function size:0x11
fn_1004F2FD = .text:0x1004F2FD; // type:function size:0x11
lbl_1004F30E = .text:0x1004F30E; // type:label
fn_1004F320 = .text:0x1004F320; // type:function size:0x8
fn_1004F328 = .text:0x1004F328; // type:function size:0xE
fn_1004F336 = .text:0x1004F336; // type:function size:0xE
fn_1004F344 = .text:0x1004F344; // type:function size:0xE
lbl_1004F352 = .text:0x1004F352; // type:label
fn_1004F360 = .text:0x1004F360; // type:function size:0xE
fn_1004F36E = .text:0x1004F36E; // type:function size:0xB
fn_1004F379 = .text:0x1004F379; // type:function size:0x11
fn_1004F38A = .text:0x1004F38A; // type:function size:0x1B
lbl_1004F3A5 = .text:0x1004F3A5; // type:label
fn_1004F3B0 = .text:0x1004F3B0; // type:function size:0x8
fn_1004F3B8 = .text:0x1004F3B8; // type:function size:0xB
fn_1004F3C3 = .text:0x1004F3C3; // type:function size:0xE
fn_1004F3D1 = .text:0x1004F3D1; // type:function size:0xE
fn_1004F3DF = .text:0x1004F3DF; // type:function size:0xE
lbl_1004F3ED = .text:0x1004F3ED; // type:label
fn_1004F400 = .text:0x1004F400; // type:function size:0x8
fn_1004F408 = .text:0x1004F408; // type:function size:0xE
fn_1004F416 = .text:0x1004F416; // type:function size:0xE
lbl_1004F424 = .text:0x1004F424; // type:label
fn_1004F430 = .text:0x1004F430; // type:function size:0x8
fn_1004F438 = .text:0x1004F438; // type:function size:0xE
lbl_1004F446 = .text:0x1004F446; // type:label
fn_1004F450 = .text:0x1004F450; // type:function size:0xB
fn_1004F45B = .text:0x1004F45B; // type:function size:0xB
fn_1004F466 = .text:0x1004F466; // type:function size:0x8
fn_1004F46E = .text:0x1004F46E; // type:function size:0xE
lbl_1004F47C = .text:0x1004F47C; // type:label
fn_1004F490 = .text:0x1004F490; // type:function size:0x8
fn_1004F498 = .text:0x1004F498; // type:function size:0xB
fn_1004F4A3 = .text:0x1004F4A3; // type:function size:0xE
lbl_1004F4B1 = .text:0x1004F4B1; // type:label
fn_1004F4C0 = .text:0x1004F4C0; // type:function size:0x8
fn_1004F4C8 = .text:0x1004F4C8; // type:function size:0xB
lbl_1004F4D3 = .text:0x1004F4D3; // type:label
fn_1004F4E0 = .text:0x1004F4E0; // type:function size:0xB
fn_1004F4EB = .text:0x1004F4EB; // type:function size:0xB
fn_1004F4F6 = .text:0x1004F4F6; // type:function size:0x8
lbl_1004F4FE = .text:0x1004F4FE; // type:label
fn_1004F510 = .text:0x1004F510; // type:function size:0xB
fn_1004F51B = .text:0x1004F51B; // type:function size:0xB
fn_1004F526 = .text:0x1004F526; // type:function size:0x8
lbl_1004F52E = .text:0x1004F52E; // type:label
fn_1004F540 = .text:0x1004F540; // type:function size:0xB
fn_1004F54B = .text:0x1004F54B; // type:function size:0xB
lbl_1004F556 = .text:0x1004F556; // type:label
fn_1004F560 = .text:0x1004F560; // type:function size:0xB
fn_1004F56B = .text:0x1004F56B; // type:function size:0xB
lbl_1004F576 = .text:0x1004F576; // type:label
fn_1004F580 = .text:0x1004F580; // type:function size:0x8
lbl_1004F588 = .text:0x1004F588; // type:label
fn_1004F5A0 = .text:0x1004F5A0; // type:function size:0x8
fn_1004F5A8 = .text:0x1004F5A8; // type:function size:0xE
lbl_1004F5B6 = .text:0x1004F5B6; // type:label
fn_1004F5C0 = .text:0x1004F5C0; // type:function size:0xE
lbl_1004F5CE = .text:0x1004F5CE; // type:label
fn_1004F5E0 = .text:0x1004F5E0; // type:function size:0xB
fn_1004F5EB = .text:0x1004F5EB; // type:function size:0xB
lbl_1004F5F6 = .text:0x1004F5F6; // type:label
fn_1004F600 = .text:0x1004F600; // type:function size:0xB
lbl_1004F60B = .text:0x1004F60B; // type:label
fn_1004F620 = .text:0x1004F620; // type:function size:0xE
lbl_1004F62E = .text:0x1004F62E; // type:label
fn_1004F640 = .text:0x1004F640; // type:function size:0xE
lbl_1004F64E = .text:0x1004F64E; // type:label
fn_1004F660 = .text:0x1004F660; // type:function size:0xE
fn_1004F66E = .text:0x1004F66E; // type:function size:0xB
fn_1004F679 = .text:0x1004F679; // type:function size:0xB
fn_1004F684 = .text:0x1004F684; // type:function size:0xB
lbl_1004F68F = .text:0x1004F68F; // type:label
fn_1004F6A0 = .text:0x1004F6A0; // type:function size:0xE
lbl_1004F6AE = .text:0x1004F6AE; // type:label
fn_1004F6C0 = .text:0x1004F6C0; // type:function size:0xE
lbl_1004F6CE = .text:0x1004F6CE; // type:label
fn_1004F6E0 = .text:0x1004F6E0; // type:function size:0xE
lbl_1004F6EE = .text:0x1004F6EE; // type:label
fn_1004F700 = .text:0x1004F700; // type:function size:0xE
lbl_1004F70E = .text:0x1004F70E; // type:label
fn_1004F720 = .text:0x1004F720; // type:function size:0xB
lbl_1004F72B = .text:0x1004F72B; // type:label
fn_1004F740 = .text:0x1004F740; // type:function size:0xB
fn_1004F74B = .text:0x1004F74B; // type:function size:0x8
lbl_1004F753 = .text:0x1004F753; // type:label
fn_1004F760 = .text:0x1004F760; // type:function size:0x8
lbl_1004F768 = .text:0x1004F768; // type:label
fn_1004F780 = .text:0x1004F780; // type:function size:0xB
lbl_1004F78B = .text:0x1004F78B; // type:label
fn_1004F7A0 = .text:0x1004F7A0; // type:function size:0x8
fn_1004F7A8 = .text:0x1004F7A8; // type:function size:0xB
fn_1004F7B3 = .text:0x1004F7B3; // type:function size:0xB
fn_1004F7BE = .text:0x1004F7BE; // type:function size:0x8
lbl_1004F7C6 = .text:0x1004F7C6; // type:label
fn_1004F7D0 = .text:0x1004F7D0; // type:function size:0x8
fn_1004F7D8 = .text:0x1004F7D8; // type:function size:0xE
fn_1004F7E6 = .text:0x1004F7E6; // type:function size:0x18
lbl_1004F7FE = .text:0x1004F7FE; // type:label
fn_1004F810 = .text:0x1004F810; // type:function size:0xE
fn_1004F81E = .text:0x1004F81E; // type:function size:0xE
fn_1004F82C = .text:0x1004F82C; // type:function size:0xE
fn_1004F83A = .text:0x1004F83A; // type:function size:0xB
fn_1004F845 = .text:0x1004F845; // type:function size:0x11
lbl_1004F856 = .text:0x1004F856; // type:label
fn_1004F860 = .text:0x1004F860; // type:function size:0xE
fn_1004F86E = .text:0x1004F86E; // type:function size:0xB
fn_1004F879 = .text:0x1004F879; // type:function size:0x11
fn_1004F88A = .text:0x1004F88A; // type:function size:0x1B
fn_1004F8A5 = .text:0x1004F8A5; // type:function size:0xE
fn_1004F8B3 = .text:0x1004F8B3; // type:function size:0xE
fn_1004F8C1 = .text:0x1004F8C1; // type:function size:0xB
fn_1004F8CC = .text:0x1004F8CC; // type:function size:0x11
lbl_1004F8DD = .text:0x1004F8DD; // type:label
fn_1004F8F0 = .text:0x1004F8F0; // type:function size:0xB
lbl_1004F8FB = .text:0x1004F8FB; // type:label
fn_1004F910 = .text:0x1004F910; // type:function size:0xB
lbl_1004F91B = .text:0x1004F91B; // type:label
fn_1004F930 = .text:0x1004F930; // type:function size:0xB
lbl_1004F93B = .text:0x1004F93B; // type:label
fn_1004F950 = .text:0x1004F950; // type:function size:0xB
lbl_1004F95B = .text:0x1004F95B; // type:label
fn_1004F970 = .text:0x1004F970; // type:function size:0xB
fn_1004F97B = .text:0x1004F97B; // type:function size:0xB
lbl_1004F986 = .text:0x1004F986; // type:label
fn_1004F990 = .text:0x1004F990; // type:function size:0xB
fn_1004F99B = .text:0x1004F99B; // type:function size:0xB
fn_1004F9A6 = .text:0x1004F9A6; // type:function size:0xB
fn_1004F9B1 = .text:0x1004F9B1; // type:function size:0xB
lbl_1004F9BC = .text:0x1004F9BC; // type:label
fn_1004F9D0 = .text:0x1004F9D0; // type:function size:0x8
lbl_1004F9D8 = .text:0x1004F9D8; // type:label
fn_1004F9F0 = .text:0x1004F9F0; // type:function size:0x8
lbl_1004F9F8 = .text:0x1004F9F8; // type:label
fn_1004FA10 = .text:0x1004FA10; // type:function size:0x8
lbl_1004FA18 = .text:0x1004FA18; // type:label
fn_1004FA30 = .text:0x1004FA30; // type:function size:0x8
lbl_1004FA38 = .text:0x1004FA38; // type:label
fn_1004FA50 = .text:0x1004FA50; // type:function size:0xB
lbl_1004FA5B = .text:0x1004FA5B; // type:label
fn_1004FA70 = .text:0x1004FA70; // type:function size:0x8
lbl_1004FA78 = .text:0x1004FA78; // type:label
fn_1004FA90 = .text:0x1004FA90; // type:function size:0xB
lbl_1004FA9B = .text:0x1004FA9B; // type:label
fn_1004FAB0 = .text:0x1004FAB0; // type:function size:0x8
lbl_1004FAB8 = .text:0x1004FAB8; // type:label
__imp__RegCreateKeyExA = .rdata:0x10050000; // type:object size:0x4
__imp__RegOpenKeyExA = .rdata:0x10050004; // type:object size:0x4
__imp__RegQueryValueExA = .rdata:0x10050008; // type:object size:0x4
__imp__RegDeleteKeyA = .rdata:0x1005000C; // type:object size:0x4
__imp__RegOpenKeyA = .rdata:0x10050010; // type:object size:0x4
__imp__RegQueryInfoKeyA = .rdata:0x10050014; // type:object size:0x4
__imp__RegEnumKeyA = .rdata:0x10050018; // type:object size:0x4
__imp__RegCloseKey = .rdata:0x1005001C; // type:object size:0x4
__imp__GetUserNameW = .rdata:0x10050020; // type:object size:0x4
__imp__RegSetValueExA = .rdata:0x10050024; // type:object size:0x4
__imp__GetDiskFreeSpaceA = .rdata:0x1005002C; // type:object size:0x4
__imp__WriteFile@20 = .rdata:0x10050030; // type:object scope:global
lbl_3_rdata_10050030 = .rdata:0x10050030; // type:object size:0x8
__imp__CreateFileA = .rdata:0x10050034; // type:object
__imp__CreateDirectoryA = .rdata:0x10050038; // type:object size:0x4
__imp__GetComputerNameA = .rdata:0x1005003C; // type:object size:0x4
__imp__DeleteCriticalSection@4 = .rdata:0x10050040; // type:object scope:global
lbl_3_rdata_10050040 = .rdata:0x10050040; // type:object size:0xC
__imp__GetProcAddress = .rdata:0x10050044; // type:object
__imp__LoadLibraryA = .rdata:0x10050048; // type:object
__imp__FreeLibrary = .rdata:0x1005004C; // type:object size:0x4
__imp__GetFileAttributesA = .rdata:0x10050050; // type:object size:0x4
__imp__ReadFile = .rdata:0x10050054; // type:object size:0x4
__imp__SetFilePointer = .rdata:0x10050058; // type:object size:0x4
__imp__GetFileSize = .rdata:0x1005005C; // type:object size:0x4
__imp__SetFileAttributesA = .rdata:0x10050060; // type:object size:0x4
__imp__ResetEvent = .rdata:0x10050064; // type:object size:0x4
__imp__WaitForSingleObject = .rdata:0x10050068; // type:object size:0x4
__imp__GetVersionExA = .rdata:0x1005006C; // type:object size:0x4
__imp__SetCommTimeouts = .rdata:0x10050070; // type:object size:0x4
__imp__SetCommState = .rdata:0x10050074; // type:object size:0x4
__imp__GetCommState = .rdata:0x10050078; // type:object size:0x4
__imp__PurgeComm = .rdata:0x1005007C; // type:object size:0x4
__imp__SetupComm = .rdata:0x10050080; // type:object size:0x4
__imp__SetCommMask = .rdata:0x10050084; // type:object size:0x4
__imp__EscapeCommFunction = .rdata:0x10050088; // type:object size:0x4
__imp__ClearCommError = .rdata:0x1005008C; // type:object size:0x4
__imp__SetLastError@4 = .rdata:0x10050090; // type:object scope:global
lbl_3_rdata_10050090 = .rdata:0x10050090; // type:object size:0x4
__imp__GlobalAlloc = .rdata:0x10050094; // type:object size:0x4
__imp__GlobalFree = .rdata:0x10050098; // type:object size:0x4
__imp__SetEvent = .rdata:0x1005009C; // type:object size:0x4
__imp__GetSystemTimeAsFileTime@4 = .rdata:0x100500A0; // type:object scope:global
lbl_3_rdata_100500A0 = .rdata:0x100500A0; // type:object size:0x8
__imp__InitializeCriticalSection = .rdata:0x100500A4; // type:object
__imp__CreateEventA = .rdata:0x100500A8; // type:object size:0x4
__imp__Sleep = .rdata:0x100500AC; // type:object size:0x4
__imp__CloseHandle@4 = .rdata:0x100500B0; // type:object scope:global
lbl_3_rdata_100500B0 = .rdata:0x100500B0; // type:object size:0x4
__imp__WaitForMultipleObjects = .rdata:0x100500B4; // type:object size:0x4
__imp__GetTickCount = .rdata:0x100500B8; // type:object size:0x4
__imp__LeaveCriticalSection@4 = .rdata:0x100500BC; // type:object scope:global
lbl_3_rdata_100500BC = .rdata:0x100500BC; // type:object size:0x8
__imp__WideCharToMultiByte = .rdata:0x100500C0; // type:object
__imp__MultiByteToWideChar = .rdata:0x100500C4; // type:object size:0x4
__imp__GetLocaleInfoW = .rdata:0x100500C8; // type:object size:0x4
__imp__TlsFree@4 = .rdata:0x100500CC; // type:object scope:global
lbl_3_rdata_100500CC = .rdata:0x100500CC; // type:object size:0x8
__imp__TlsAlloc = .rdata:0x100500D0; // type:object
__imp__CompareStringA = .rdata:0x100500D4; // type:object size:0x4
__imp__SetEndOfFile@4 = .rdata:0x100500D8; // type:object scope:global
lbl_3_rdata_100500D8 = .rdata:0x100500D8; // type:object size:0x4
__imp__SetConsoleCtrlHandler = .rdata:0x100500DC; // type:object size:0x4
__imp__GetOEMCP = .rdata:0x100500E0; // type:object size:0x4
__imp__GetACP = .rdata:0x100500E4; // type:object size:0x4
__imp__GetStringTypeW = .rdata:0x100500E8; // type:object size:0x4
__imp__GetStringTypeA = .rdata:0x100500EC; // type:object size:0x4
__imp__GetUserDefaultLCID = .rdata:0x100500F0; // type:object size:0x4
__imp__EnumSystemLocalesA = .rdata:0x100500F4; // type:object size:0x4
__imp__GetLocaleInfoA = .rdata:0x100500F8; // type:object size:0x4
__imp__IsValidCodePage = .rdata:0x100500FC; // type:object size:0x4
__imp__IsValidLocale = .rdata:0x10050100; // type:object size:0x4
__imp__GetCPInfo@8 = .rdata:0x10050104; // type:object scope:global
lbl_3_rdata_10050104 = .rdata:0x10050104; // type:object size:0xC
__imp__FlushFileBuffers = .rdata:0x10050108; // type:object
__imp__SetStdHandle = .rdata:0x1005010C; // type:object
__imp__UnhandledExceptionFilter = .rdata:0x10050110; // type:object size:0x4
__imp__IsBadCodePtr = .rdata:0x10050114; // type:object size:0x4
__imp__IsBadReadPtr = .rdata:0x10050118; // type:object size:0x4
__imp__SetUnhandledExceptionFilter = .rdata:0x1005011C; // type:object size:0x4
__imp__GetEnvironmentStringsW@0 = .rdata:0x10050120; // type:object scope:global
lbl_3_rdata_10050120 = .rdata:0x10050120; // type:object size:0x4
__imp__CompareStringW = .rdata:0x10050124; // type:object size:0x4
__imp__QueryPerformanceCounter = .rdata:0x10050128; // type:object size:0x4
__imp__TlsGetValue@4 = .rdata:0x1005012C; // type:object scope:global
lbl_3_rdata_1005012C = .rdata:0x1005012C; // type:object size:0x10
__imp__GetEnvironmentStrings = .rdata:0x10050130; // type:object
__imp__EnterCriticalSection = .rdata:0x10050134; // type:object
__imp__DeleteFileA = .rdata:0x10050138; // type:object
__imp__GetCurrentThread = .rdata:0x1005013C; // type:object size:0x4
__imp__FreeEnvironmentStringsA@4 = .rdata:0x10050140; // type:object scope:global
lbl_3_rdata_10050140 = .rdata:0x10050140; // type:object size:0x4
__imp__LocalAlloc = .rdata:0x10050144; // type:object size:0x4
__imp__InterlockedExchange = .rdata:0x10050148; // type:object size:0x4
__imp__RaiseException = .rdata:0x1005014C; // type:object size:0x4
__imp__GetLastError@0 = .rdata:0x10050150; // type:object scope:global
lbl_3_rdata_10050150 = .rdata:0x10050150; // type:object size:0x4
__imp__LocalFree = .rdata:0x10050154; // type:object size:0x4
__imp__RtlUnwind = .rdata:0x10050158; // type:object size:0x4
__imp__HeapFree@12 = .rdata:0x1005015C; // type:object scope:global
lbl_3_rdata_1005015C = .rdata:0x1005015C; // type:object size:0x34
__imp__HeapAlloc = .rdata:0x10050160; // type:object
__imp__GetTimeZoneInformation = .rdata:0x10050164; // type:object
__imp__GetSystemTime = .rdata:0x10050168; // type:object
__imp__GetLocalTime = .rdata:0x1005016C; // type:object
__imp__InterlockedDecrement = .rdata:0x10050170; // type:object
__imp__InterlockedIncrement = .rdata:0x10050174; // type:object
__imp__GetCommandLineA = .rdata:0x10050178; // type:object
__imp__GetVersion = .rdata:0x1005017C; // type:object
__imp__GetCurrentThreadId = .rdata:0x10050180; // type:object
__imp__TlsSetValue = .rdata:0x10050184; // type:object
__imp__FreeEnvironmentStringsW = .rdata:0x10050188; // type:object
__imp__SetEnvironmentVariableA = .rdata:0x1005018C; // type:object
__imp__LCMapStringW = .rdata:0x10050190; // type:object size:0x4
__imp__SetEnvironmentVariableW = .rdata:0x10050194; // type:object size:0x4
__imp__GetModuleHandleA@4 = .rdata:0x10050198; // type:object scope:global
lbl_3_rdata_10050198 = .rdata:0x10050198; // type:object size:0x8
__imp__GetModuleFileNameA = .rdata:0x1005019C; // type:object
__imp__GetEnvironmentVariableA = .rdata:0x100501A0; // type:object size:0x4
__imp__HeapDestroy = .rdata:0x100501A4; // type:object size:0x4
__imp__HeapCreate = .rdata:0x100501A8; // type:object size:0x4
__imp__VirtualFree = .rdata:0x100501AC; // type:object size:0x4
__imp__VirtualAlloc@16 = .rdata:0x100501B0; // type:object scope:global
lbl_3_rdata_100501B0 = .rdata:0x100501B0; // type:object size:0x8
__imp__HeapReAlloc = .rdata:0x100501B4; // type:object
__imp__IsBadWritePtr = .rdata:0x100501B8; // type:object size:0x4
__imp__ExitProcess@4 = .rdata:0x100501BC; // type:object scope:global
lbl_3_rdata_100501BC = .rdata:0x100501BC; // type:object size:0x4
__imp__FatalAppExitA = .rdata:0x100501C0; // type:object size:0x4
__imp__TerminateProcess@8 = .rdata:0x100501C4; // type:object scope:global
lbl_3_rdata_100501C4 = .rdata:0x100501C4; // type:object size:0x8
__imp__GetCurrentProcess = .rdata:0x100501C8; // type:object
__imp__HeapSize = .rdata:0x100501CC; // type:object size:0x4
__imp__SetHandleCount@4 = .rdata:0x100501D0; // type:object scope:global
lbl_3_rdata_100501D0 = .rdata:0x100501D0; // type:object size:0x10
__imp__GetStdHandle = .rdata:0x100501D4; // type:object
__imp__GetFileType = .rdata:0x100501D8; // type:object
__imp__GetStartupInfoA = .rdata:0x100501DC; // type:object
__imp__LCMapStringA = .rdata:0x100501E0; // type:object size:0x4
__imp_?GetCode@LHLogger@@SAKXZ = .rdata:0x100501E8; // type:object size:0x4
__imp_?GetText@LHLogger@@SAPADXZ = .rdata:0x100501EC; // type:object size:0x4
__imp_?ChecksumBlock@LHVersion@@SAKPAEG@Z = .rdata:0x100501F0; // type:object size:0x4
__imp_?SetString@LHSPrintf@@QAAXPADZZ = .rdata:0x100501F4; // type:object size:0x4
__imp_?RegistrySetString@@YA?AW4LH_RETURN@@PAD00@Z = .rdata:0x100501F8; // type:object size:0x4
__imp_?RegistrySetULong@@YA?AW4LH_RETURN@@PAD0K@Z = .rdata:0x100501FC; // type:object size:0x4
__imp_?RegistryRetrieveData@@YA?AW4LH_RETURN@@PAD0PAEPAK@Z = .rdata:0x10050200; // type:object size:0x4
__imp_?RegistryRetrieveDouble@@YA?AW4LH_RETURN@@PAD0PAN@Z = .rdata:0x10050204; // type:object size:0x4
__imp_?RegistryRetrieveULong@@YA?AW4LH_RETURN@@PAD0PAK@Z = .rdata:0x10050208; // type:object size:0x4
__imp_?RegistryCheckKey@@YAHPAD@Z = .rdata:0x1005020C; // type:object size:0x4
__imp_?RegistrySetWString@@YA?AW4LH_RETURN@@PAD0PAG@Z = .rdata:0x10050210; // type:object size:0x4
__imp_?RegistryRetrieveWString@@YA?AW4LH_RETURN@@PAD0PAGPAK@Z = .rdata:0x10050214; // type:object size:0x4
__imp_?EncryptBlock@LHVersion@@SAXPAEG@Z = .rdata:0x10050218; // type:object size:0x4
__imp_?LHRegistryGetCurrentKey@@YA?AW4LH_REG_KEY_TYPE@@XZ = .rdata:0x1005021C; // type:object size:0x4
__imp_?LHRegistrySetCurrentKey@@YAXW4LH_REG_KEY_TYPE@@@Z = .rdata:0x10050220; // type:object size:0x4
__imp_?RegistryRetrieveString@@YA?AW4LH_RETURN@@PAD00PAK@Z = .rdata:0x10050224; // type:object size:0x4
__imp_?AppendString@LHSPrintf@@QAAXPADZZ = .rdata:0x10050228; // type:object size:0x4
__imp_?ModuleChecksumString@LHVersion@@0PADA = .rdata:0x1005022C; // type:object size:0x4
__imp_?ModuleChecksum@LHVersion@@0KA = .rdata:0x10050230; // type:object size:0x4
__imp_?GetFileName@LHLogger@@SAPADPAD@Z = .rdata:0x10050234; // type:object size:0x4
__imp_??0LHSPrintf@@QAA@PADZZ = .rdata:0x10050238; // type:object size:0x4
__imp_?LogS@LHLogger@@SAXPAD0K0ZZ = .rdata:0x1005023C; // type:object size:0x4
__imp_?_lhbeginthread@@YAKPADP6AXPAX@ZI1J@Z = .rdata:0x10050240; // type:object size:0x4
__imp_??1LHVersion@@QAE@XZ = .rdata:0x10050244; // type:object size:0x4
__imp_??0LHVersion@@QAE@PAULHVersionBlock@@@Z = .rdata:0x10050248; // type:object size:0x4
__imp_?GetMajorMinorULONG@LHVersion@@SA?AW4LH_RETURN@@PADPAK@Z = .rdata:0x1005024C; // type:object size:0x4
__imp_?RegistrySetDouble@@YA?AW4LH_RETURN@@PAD0N@Z = .rdata:0x10050250; // type:object size:0x4
__imp_?RegistrySetData@@YA?AW4LH_RETURN@@PAD0PAEK@Z = .rdata:0x10050254; // type:object size:0x4
__imp__wsprintfA = .rdata:0x1005025C; // type:object size:0x4
__imp__timeGetTime = .rdata:0x10050264; // type:object size:0x4
__imp__WSOCK32_8 = .rdata:0x1005026C; // type:object size:0x4
lbl_3_rdata_10050270 = .rdata:0x10050270; // type:object size:0x2C
??_7LHPacketisableObject@@6B@ = .rdata:0x1005029C; // type:object size:0x10
??_7LHTransportInfo@@6B@ = .rdata:0x100502AC; // type:object size:0x10
??_7LHPlayer@@6B@ = .rdata:0x100502BC; // type:object size:0x10
??_7LHConnection@@6B@ = .rdata:0x100502CC; // type:object size:0x10
??_7LHChannel@@6B@ = .rdata:0x100502DC; // type:object size:0x14
??_7LHLocalLobbyInfo@@6B@ = .rdata:0x100502F0; // type:object size:0x10
??_7LHLobbyChannel@@6B@ = .rdata:0x10050300; // type:object size:0x14
??_7LHLobby@@6B@ = .rdata:0x10050314; // type:object size:0x10
??_7LHSession@@6B@ = .rdata:0x10050324; // type:object size:0x10
??_7LHTransport@@6B@ = .rdata:0x10050334; // type:object size:0x54
??_7LHSyncTransport@@6B@ = .rdata:0x10050388; // type:object size:0x54
??_7LHAsyncTransport@@6B@ = .rdata:0x100503DC; // type:object size:0x54
??_7LHTransportRemote@@6B@ = .rdata:0x10050430; // type:object size:0x74
??_7LHTransportTCP@@6B@ = .rdata:0x100504A4; // type:object size:0x74
??_7LHTransportUDP@@6B@ = .rdata:0x10050518; // type:object size:0x74
lbl_1005058C = .rdata:0x1005058C; // type:object size:0x10
lbl_1005059C = .rdata:0x1005059C; // type:object size:0x20
lbl_100505BC = .rdata:0x100505BC; // type:object size:0x4
lbl_100505C0 = .rdata:0x100505C0; // type:object size:0xE data:string
lbl_100505D0 = .rdata:0x100505D0; // type:object size:0x8 data:string
lbl_100505D8 = .rdata:0x100505D8; // type:object size:0x4
lbl_100505DC = .rdata:0x100505DC; // type:object size:0x4
lbl_100505E0 = .rdata:0x100505E0; // type:object size:0x4
??_7LHSocket@@6B@ = .rdata:0x100505E4; // type:object size:0x28
??_7LHSocketTCP@@6B@ = .rdata:0x1005060C; // type:object size:0x28
lbl_10050634 = .rdata:0x10050634; // type:object size:0x20
lbl_10050654 = .rdata:0x10050654; // type:object size:0x20
lbl_10050674 = .rdata:0x10050674; // type:object size:0x14
lbl_10050688 = .rdata:0x10050688; // type:object size:0x16 data:string
??_7LHMail@@6B@ = .rdata:0x100506A0; // type:object size:0x18
??_7LHMailOutlook@@6B@ = .rdata:0x100506B8; // type:object size:0x18
??_7LHMailPOP3@@6B@ = .rdata:0x100506D0; // type:object size:0x18
lbl_100506E8 = .rdata:0x100506E8; // type:object size:0x2C
lbl_10050714 = .rdata:0x10050714; // type:object size:0x2C
lbl_10050740 = .rdata:0x10050740; // type:object size:0xC
lbl_1005074C = .rdata:0x1005074C; // type:object size:0x3C
lbl_10050788 = .rdata:0x10050788; // type:object size:0x2
lbl_1005078A = .rdata:0x1005078A; // type:object size:0x2
lbl_1005078C = .rdata:0x1005078C; // type:object size:0x2
lbl_1005078E = .rdata:0x1005078E; // type:object size:0x2
lbl_10050790 = .rdata:0x10050790; // type:object size:0x70
lbl_10050800 = .rdata:0x10050800; // type:object size:0x4C
lbl_1005084C = .rdata:0x1005084C; // type:object size:0x74
lbl_100508C0 = .rdata:0x100508C0; // type:object size:0x78
lbl_10050938 = .rdata:0x10050938; // type:object size:0x4C
lbl_10050984 = .rdata:0x10050984; // type:object size:0x14
lbl_10050998 = .rdata:0x10050998; // type:object size:0x400
lbl_10050D98 = .rdata:0x10050D98; // type:object size:0x2
lbl_10050D9A = .rdata:0x10050D9A; // type:object size:0x7E
lbl_10050E18 = .rdata:0x10050E18; // type:object size:0x78
lbl_10050E90 = .rdata:0x10050E90; // type:object size:0x100
lbl_10050F90 = .rdata:0x10050F90; // type:object size:0x100
lbl_10051090 = .rdata:0x10051090; // type:object size:0x100
lbl_10051190 = .rdata:0x10051190; // type:object size:0x74
lbl_10051204 = .rdata:0x10051204; // type:object size:0xA8
lbl_100512AC = .rdata:0x100512AC; // type:object size:0x7C
lbl_10051328 = .rdata:0x10051328; // type:object size:0x7C
lbl_100513A4 = .rdata:0x100513A4; // type:object size:0x78
lbl_1005141C = .rdata:0x1005141C; // type:object size:0x7C
$T16509 = .rdata:0x10051498; // type:object scope:local
lbl_3_rdata_10051498 = .rdata:0x10051498; // type:object size:0x10
lbl_100514A8 = .rdata:0x100514A8; // type:object size:0x10
$T267 = .rdata:0x100514B8; // type:object scope:local
lbl_3_rdata_100514B8 = .rdata:0x100514B8; // type:object size:0x10
lbl_100514C8 = .rdata:0x100514C8; // type:object size:0x18
lbl_100514E0 = .rdata:0x100514E0; // type:object size:0x18
lbl_100514F8 = .rdata:0x100514F8; // type:object size:0x8 data:string
lbl_10051500 = .rdata:0x10051500; // type:object size:0x14 data:string
lbl_10051514 = .rdata:0x10051514; // type:object size:0x7 data:string
lbl_1005151C = .rdata:0x1005151C; // type:object size:0x3 data:string
lbl_10051520 = .rdata:0x10051520; // type:object size:0x3 data:string
lbl_10051524 = .rdata:0x10051524; // type:object size:0x9 data:string
lbl_10051530 = .rdata:0x10051530; // type:object size:0x9 data:string
lbl_1005153C = .rdata:0x1005153C; // type:object size:0x8 data:string
lbl_10051544 = .rdata:0x10051544; // type:object size:0xA data:string
lbl_10051550 = .rdata:0x10051550; // type:object size:0x7 data:string
lbl_10051558 = .rdata:0x10051558; // type:object size:0x5 data:string
lbl_10051560 = .rdata:0x10051560; // type:object size:0x5 data:string
lbl_10051568 = .rdata:0x10051568; // type:object size:0x6 data:string
lbl_10051570 = .rdata:0x10051570; // type:object size:0x6 data:string
lbl_10051578 = .rdata:0x10051578; // type:object size:0x9 data:string
lbl_10051584 = .rdata:0x10051584; // type:object size:0x8 data:string
lbl_1005158C = .rdata:0x1005158C; // type:object size:0x4 data:string
lbl_10051590 = .rdata:0x10051590; // type:object size:0x4 data:string
lbl_10051594 = .rdata:0x10051594; // type:object size:0x4 data:string
lbl_10051598 = .rdata:0x10051598; // type:object size:0x4 data:string
lbl_1005159C = .rdata:0x1005159C; // type:object size:0x4 data:string
lbl_100515A0 = .rdata:0x100515A0; // type:object size:0x4 data:string
lbl_100515A4 = .rdata:0x100515A4; // type:object size:0x4 data:string
lbl_100515A8 = .rdata:0x100515A8; // type:object size:0x4 data:string
lbl_100515AC = .rdata:0x100515AC; // type:object size:0x4 data:string
lbl_100515B0 = .rdata:0x100515B0; // type:object size:0x4 data:string
lbl_100515B4 = .rdata:0x100515B4; // type:object size:0x4 data:string
lbl_100515B8 = .rdata:0x100515B8; // type:object size:0x4 data:string
lbl_100515BC = .rdata:0x100515BC; // type:object size:0x9 data:string
lbl_100515C8 = .rdata:0x100515C8; // type:object size:0x7 data:string
lbl_100515D0 = .rdata:0x100515D0; // type:object size:0x9 data:string
lbl_100515DC = .rdata:0x100515DC; // type:object size:0xA data:string
lbl_100515E8 = .rdata:0x100515E8; // type:object size:0x8 data:string
lbl_100515F0 = .rdata:0x100515F0; // type:object size:0x7 data:string
lbl_100515F8 = .rdata:0x100515F8; // type:object size:0x7 data:string
lbl_10051600 = .rdata:0x10051600; // type:object size:0x4 data:string
lbl_10051604 = .rdata:0x10051604; // type:object size:0x4 data:string
lbl_10051608 = .rdata:0x10051608; // type:object size:0x4 data:string
lbl_1005160C = .rdata:0x1005160C; // type:object size:0x4 data:string
lbl_10051610 = .rdata:0x10051610; // type:object size:0x4 data:string
lbl_10051614 = .rdata:0x10051614; // type:object size:0x4 data:string
lbl_10051618 = .rdata:0x10051618; // type:object size:0x4 data:string
lbl_1005161C = .rdata:0x1005161C; // type:object size:0x4 data:string
lbl_10051620 = .rdata:0x10051620; // type:object size:0x6 data:string
lbl_10051628 = .rdata:0x10051628; // type:object size:0x18
??_C@_02JHIA@TZ?$AA@ = .rdata:0x10051640; // type:object scope:global data:string
lbl_3_rdata_10051640 = .rdata:0x10051640; // type:object size:0x8
lbl_10051648 = .rdata:0x10051648; // type:object size:0x10
lbl_10051658 = .rdata:0x10051658; // type:object size:0x18
lbl_10051670 = .rdata:0x10051670; // type:object size:0x10
$T17343 = .rdata:0x10051680; // type:object scope:local
lbl_3_rdata_10051680 = .rdata:0x10051680; // type:object size:0x10
lbl_10051690 = .rdata:0x10051690; // type:object size:0x18
lbl_100516A8 = .rdata:0x100516A8; // type:object size:0x18
lbl_100516C0 = .rdata:0x100516C0; // type:object size:0x17 data:string
lbl_100516D8 = .rdata:0x100516D8; // type:object size:0x15 data:string
lbl_100516F0 = .rdata:0x100516F0; // type:object size:0x18
lbl_10051708 = .rdata:0x10051708; // type:object size:0x18
lbl_10051720 = .rdata:0x10051720; // type:object size:0x8
lbl_10051728 = .rdata:0x10051728; // type:object size:0x8
lbl_10051730 = .rdata:0x10051730; // type:object size:0x8
??_C@_0BK@JEGK@IsProcessorFeaturePresent?$AA@ = .rdata:0x10051738; // type:object scope:global data:string
lbl_3_rdata_10051738 = .rdata:0x10051738; // type:object size:0x18
lbl_10051750 = .rdata:0x10051750; // type:object size:0x2 data:string
lbl_3_rdata_10051752 = .rdata:0x10051752; // type:object size:0x16
??_C@_08OBID@KERNEL32?$AA@ = .rdata:0x10051754; // type:object scope:global data:string
__real@8@00000000000000000000 = .rdata:0x10051760; // type:object scope:global
lbl_10051768 = .rdata:0x10051768; // type:object size:0x6 data:string
lbl_10051770 = .rdata:0x10051770; // type:object size:0x5C
lbl_100517CC = .rdata:0x100517CC; // type:object size:0x10
lbl_100517DC = .rdata:0x100517DC; // type:object size:0x7 data:string
lbl_100517E4 = .rdata:0x100517E4; // type:object size:0x4
lbl_100517E8 = .rdata:0x100517E8; // type:object size:0x8
lbl_100517F0 = .rdata:0x100517F0; // type:object size:0x18
lbl_10051808 = .rdata:0x10051808; // type:object size:0x8 data:string
lbl_10051810 = .rdata:0x10051810; // type:object size:0xB data:string
lbl_1005181C = .rdata:0x1005181C; // type:object size:0xC data:string
lbl_10051828 = .rdata:0x10051828; // type:object size:0x9 data:string
lbl_10051834 = .rdata:0x10051834; // type:object size:0xB data:string
lbl_10051840 = .rdata:0x10051840; // type:object size:0x7 data:string
lbl_10051848 = .rdata:0x10051848; // type:object size:0x2 data:string
lbl_1005184C = .rdata:0x1005184C; // type:object size:0x3 data:string
lbl_10051850 = .rdata:0x10051850; // type:object size:0x2 data:string
lbl_10051854 = .rdata:0x10051854; // type:object size:0x4 data:string
lbl_10051858 = .rdata:0x10051858; // type:object size:0x44
lbl_1005189C = .rdata:0x1005189C; // type:object size:0xF data:string
lbl_100518AC = .rdata:0x100518AC; // type:object size:0xE data:string
lbl_100518BC = .rdata:0x100518BC; // type:object size:0xD data:string
lbl_100518CC = .rdata:0x100518CC; // type:object size:0xF data:string
lbl_100518DC = .rdata:0x100518DC; // type:object size:0x25 data:string
lbl_10051904 = .rdata:0x10051904; // type:object size:0x35 data:string
lbl_1005193C = .rdata:0x1005193C; // type:object size:0x35 data:string
lbl_10051974 = .rdata:0x10051974; // type:object size:0x26 data:string
lbl_1005199C = .rdata:0x1005199C; // type:object size:0x35 data:string
lbl_100519D4 = .rdata:0x100519D4; // type:object size:0x29 data:string
lbl_10051A00 = .rdata:0x10051A00; // type:object size:0x21 data:string
lbl_10051A24 = .rdata:0x10051A24; // type:object size:0x2D data:string
lbl_10051A54 = .rdata:0x10051A54; // type:object size:0x2C data:string
lbl_10051A80 = .rdata:0x10051A80; // type:object size:0x21 data:string
lbl_10051AA4 = .rdata:0x10051AA4; // type:object size:0x2C data:string
lbl_10051AD0 = .rdata:0x10051AD0; // type:object size:0x2A data:string
lbl_10051AFC = .rdata:0x10051AFC; // type:object size:0x25 data:string
lbl_10051B24 = .rdata:0x10051B24; // type:object size:0x25 data:string
lbl_10051B4C = .rdata:0x10051B4C; // type:object size:0x3 data:string
lbl_10051B50 = .rdata:0x10051B50; // type:object size:0x1A data:string
lbl_10051B6C = .rdata:0x10051B6C; // type:object size:0x4 data:string
lbl_10051B70 = .rdata:0x10051B70; // type:object size:0x17 data:string
lbl_10051B88 = .rdata:0x10051B88; // type:object size:0x9 data:string
lbl_10051B94 = .rdata:0x10051B94; // type:object size:0x8 data:string
lbl_10051B9C = .rdata:0x10051B9C; // type:object size:0x6 data:string
lbl_10051BA4 = .rdata:0x10051BA4; // type:object size:0x8 data:string
lbl_10051BAC = .rdata:0x10051BAC; // type:object size:0xA data:string
lbl_10051BB8 = .rdata:0x10051BB8; // type:object size:0x5 data:string
lbl_10051BC0 = .rdata:0x10051BC0; // type:object size:0x9 data:string
lbl_10051BCC = .rdata:0x10051BCC; // type:object size:0xA data:string
lbl_10051BD8 = .rdata:0x10051BD8; // type:object size:0x13 data:string
lbl_10051BEC = .rdata:0x10051BEC; // type:object size:0xD data:string
lbl_10051BFC = .rdata:0x10051BFC; // type:object size:0x7 data:string
lbl_10051C04 = .rdata:0x10051C04; // type:object size:0xB data:string
lbl_10051C10 = .rdata:0x10051C10; // type:object size:0xB data:string
lbl_10051C1C = .rdata:0x10051C1C; // type:object size:0xC data:string
lbl_10051C28 = .rdata:0x10051C28; // type:object size:0xA data:string
lbl_10051C34 = .rdata:0x10051C34; // type:object size:0x7 data:string
lbl_10051C3C = .rdata:0x10051C3C; // type:object size:0x16 data:string
lbl_10051C54 = .rdata:0x10051C54; // type:object size:0xA data:string
lbl_10051C60 = .rdata:0x10051C60; // type:object size:0x8 data:string
lbl_10051C68 = .rdata:0x10051C68; // type:object size:0x8 data:string
lbl_10051C70 = .rdata:0x10051C70; // type:object size:0x7 data:string
lbl_10051C78 = .rdata:0x10051C78; // type:object size:0x8 data:string
lbl_10051C80 = .rdata:0x10051C80; // type:object size:0x7 data:string
lbl_10051C88 = .rdata:0x10051C88; // type:object size:0x8 data:string
lbl_10051C90 = .rdata:0x10051C90; // type:object size:0x7 data:string
lbl_10051C98 = .rdata:0x10051C98; // type:object size:0x7 data:string
lbl_10051CA0 = .rdata:0x10051CA0; // type:object size:0x8 data:string
lbl_10051CA8 = .rdata:0x10051CA8; // type:object size:0x8 data:string
lbl_10051CB0 = .rdata:0x10051CB0; // type:object size:0xA data:string
lbl_10051CBC = .rdata:0x10051CBC; // type:object size:0x7 data:string
lbl_10051CC4 = .rdata:0x10051CC4; // type:object size:0x7 data:string
lbl_10051CCC = .rdata:0x10051CCC; // type:object size:0x8 data:string
lbl_10051CD4 = .rdata:0x10051CD4; // type:object size:0x8 data:string
lbl_10051CDC = .rdata:0x10051CDC; // type:object size:0x6 data:string
lbl_10051CE4 = .rdata:0x10051CE4; // type:object size:0x1B data:string
lbl_10051D00 = .rdata:0x10051D00; // type:object size:0xE data:string
lbl_10051D10 = .rdata:0x10051D10; // type:object size:0xF data:string
lbl_10051D20 = .rdata:0x10051D20; // type:object size:0x12 data:string
lbl_10051D34 = .rdata:0x10051D34; // type:object size:0xC data:string
lbl_10051D40 = .rdata:0x10051D40; // type:object size:0xD data:string
lbl_10051D50 = .rdata:0x10051D50; // type:object size:0xC data:string
lbl_10051D5C = .rdata:0x10051D5C; // type:object size:0xD data:string
lbl_10051D6C = .rdata:0x10051D6C; // type:object size:0x7 data:string
lbl_10051D74 = .rdata:0x10051D74; // type:object size:0xC data:string
lbl_10051D80 = .rdata:0x10051D80; // type:object size:0x9 data:string
lbl_10051D8C = .rdata:0x10051D8C; // type:object size:0x9 data:string
lbl_10051D98 = .rdata:0x10051D98; // type:object size:0x3 data:string
lbl_10051D9C = .rdata:0x10051D9C; // type:object size:0xC data:string
lbl_10051DA8 = .rdata:0x10051DA8; // type:object size:0xA data:string
lbl_10051DB4 = .rdata:0x10051DB4; // type:object size:0x8 data:string
lbl_10051DBC = .rdata:0x10051DBC; // type:object size:0xE data:string
lbl_10051DCC = .rdata:0x10051DCC; // type:object size:0x8 data:string
lbl_10051DD4 = .rdata:0x10051DD4; // type:object size:0x6 data:string
lbl_10051DDC = .rdata:0x10051DDC; // type:object size:0x6 data:string
lbl_10051DE4 = .rdata:0x10051DE4; // type:object size:0x8 data:string
lbl_10051DEC = .rdata:0x10051DEC; // type:object size:0x8 data:string
lbl_10051DF4 = .rdata:0x10051DF4; // type:object size:0x4 data:string
lbl_10051DF8 = .rdata:0x10051DF8; // type:object size:0x3 data:string
lbl_10051DFC = .rdata:0x10051DFC; // type:object size:0x3 data:string
lbl_10051E00 = .rdata:0x10051E00; // type:object size:0x6 data:string
lbl_10051E08 = .rdata:0x10051E08; // type:object size:0x10 data:string
lbl_10051E18 = .rdata:0x10051E18; // type:object size:0x12 data:string
lbl_10051E2C = .rdata:0x10051E2C; // type:object size:0x10 data:string
lbl_10051E3C = .rdata:0x10051E3C; // type:object size:0x14 data:string
lbl_10051E50 = .rdata:0x10051E50; // type:object size:0xD data:string
lbl_10051E60 = .rdata:0x10051E60; // type:object size:0x11 data:string
lbl_10051E74 = .rdata:0x10051E74; // type:object size:0xF data:string
lbl_10051E84 = .rdata:0x10051E84; // type:object size:0x12 data:string
lbl_10051E98 = .rdata:0x10051E98; // type:object size:0xF data:string
lbl_10051EA8 = .rdata:0x10051EA8; // type:object size:0x10 data:string
lbl_10051EB8 = .rdata:0x10051EB8; // type:object size:0x11 data:string
lbl_10051ECC = .rdata:0x10051ECC; // type:object size:0x12 data:string
lbl_10051EE0 = .rdata:0x10051EE0; // type:object size:0x14 data:string
lbl_10051EF4 = .rdata:0x10051EF4; // type:object size:0x10 data:string
lbl_10051F04 = .rdata:0x10051F04; // type:object size:0x1B data:string
lbl_10051F20 = .rdata:0x10051F20; // type:object size:0x13 data:string
lbl_10051F34 = .rdata:0x10051F34; // type:object size:0x11 data:string
lbl_10051F48 = .rdata:0x10051F48; // type:object size:0xE data:string
lbl_10051F58 = .rdata:0x10051F58; // type:object size:0x10 data:string
lbl_10051F68 = .rdata:0x10051F68; // type:object size:0x12 data:string
lbl_10051F7C = .rdata:0x10051F7C; // type:object size:0x15 data:string
lbl_10051F94 = .rdata:0x10051F94; // type:object size:0x12 data:string
lbl_10051FA8 = .rdata:0x10051FA8; // type:object size:0x11 data:string
lbl_10051FBC = .rdata:0x10051FBC; // type:object size:0xA data:string
lbl_10051FC8 = .rdata:0x10051FC8; // type:object size:0xE data:string
lbl_10051FD8 = .rdata:0x10051FD8; // type:object size:0xE data:string
lbl_10051FE8 = .rdata:0x10051FE8; // type:object size:0xD data:string
lbl_10051FF8 = .rdata:0x10051FF8; // type:object size:0x12 data:string
lbl_1005200C = .rdata:0x1005200C; // type:object size:0x14 data:string
lbl_10052020 = .rdata:0x10052020; // type:object size:0x10 data:string
lbl_10052030 = .rdata:0x10052030; // type:object size:0xD data:string
lbl_10052040 = .rdata:0x10052040; // type:object size:0x12 data:string
lbl_10052054 = .rdata:0x10052054; // type:object size:0x10 data:string
lbl_10052064 = .rdata:0x10052064; // type:object size:0xF data:string
lbl_10052074 = .rdata:0x10052074; // type:object size:0xC data:string
lbl_10052080 = .rdata:0x10052080; // type:object size:0xB data:string
lbl_1005208C = .rdata:0x1005208C; // type:object size:0xB data:string
lbl_10052098 = .rdata:0x10052098; // type:object size:0x1A data:string
lbl_100520B4 = .rdata:0x100520B4; // type:object size:0x15 data:string
lbl_100520CC = .rdata:0x100520CC; // type:object size:0xB data:string
lbl_100520D8 = .rdata:0x100520D8; // type:object size:0x10 data:string
lbl_100520E8 = .rdata:0x100520E8; // type:object size:0xC data:string
lbl_100520F4 = .rdata:0x100520F4; // type:object size:0x12 data:string
lbl_10052108 = .rdata:0x10052108; // type:object size:0xC data:string
lbl_10052114 = .rdata:0x10052114; // type:object size:0xF data:string
lbl_10052124 = .rdata:0x10052124; // type:object size:0xC data:string
lbl_10052130 = .rdata:0x10052130; // type:object size:0x11 data:string
lbl_10052144 = .rdata:0x10052144; // type:object size:0xE data:string
lbl_10052154 = .rdata:0x10052154; // type:object size:0x14 data:string
lbl_10052168 = .rdata:0x10052168; // type:object size:0x12 data:string
lbl_1005217C = .rdata:0x1005217C; // type:object size:0x13 data:string
lbl_10052190 = .rdata:0x10052190; // type:object size:0x11 data:string
lbl_100521A4 = .rdata:0x100521A4; // type:object size:0x8 data:string
lbl_100521AC = .rdata:0x100521AC; // type:object size:0x4 data:string
lbl_100521B0 = .rdata:0x100521B0; // type:object size:0x4 data:string
lbl_100521B4 = .rdata:0x100521B4; // type:object size:0x9 data:string
lbl_100521C0 = .rdata:0x100521C0; // type:object size:0x8 data:string
lbl_100521C8 = .rdata:0x100521C8; // type:object size:0xB data:string
lbl_100521D4 = .rdata:0x100521D4; // type:object size:0x11 data:string
lbl_100521E8 = .rdata:0x100521E8; // type:object size:0x11 data:string
lbl_100521FC = .rdata:0x100521FC; // type:object size:0x9 data:string
lbl_10052208 = .rdata:0x10052208; // type:object size:0x4 data:string
lbl_1005220C = .rdata:0x1005220C; // type:object size:0x4 data:string
lbl_10052210 = .rdata:0x10052210; // type:object size:0x10
lbl_10052220 = .rdata:0x10052220; // type:object size:0x18
??_C@_0BD@NJFP@GetLastActivePopup?$AA@ = .rdata:0x10052238; // type:object scope:global data:string
lbl_3_rdata_10052238 = .rdata:0x10052238; // type:object size:0x3C
??_C@_0BA@GILI@GetActiveWindow?$AA@ = .rdata:0x1005224C; // type:object scope:global data:string
??_C@_0M@PKCK@MessageBoxA?$AA@ = .rdata:0x1005225C; // type:object scope:global data:string
??_C@_0L@HKL@user32?4dll?$AA@ = .rdata:0x10052268; // type:object scope:global data:string
lbl_10052274 = .rdata:0x10052274; // type:object size:0x7 data:string
lbl_1005227C = .rdata:0x1005227C; // type:object size:0x6 data:string
lbl_10052284 = .rdata:0x10052284; // type:object size:0x6 data:string
lbl_1005228C = .rdata:0x1005228C; // type:object size:0x7 data:string
lbl_10052298 = .rdata:0x10052298; // type:object size:0x18
lbl_100522B0 = .rdata:0x100522B0; // type:object size:0x18
lbl_100522C8 = .rdata:0x100522C8; // type:object size:0x10
lbl_100522D8 = .rdata:0x100522D8; // type:object size:0x10
lbl_100522E8 = .rdata:0x100522E8; // type:object size:0x1C
lbl_10052304 = .rdata:0x10052304; // type:object size:0x4
lbl_10052308 = .rdata:0x10052308; // type:object size:0x4
lbl_1005230C = .rdata:0x1005230C; // type:object size:0x194
lbl_100524A0 = .rdata:0x100524A0; // type:object size:0x11 data:string
lbl_100524B4 = .rdata:0x100524B4; // type:object size:0x11 data:string
lbl_100524C8 = .rdata:0x100524C8; // type:object size:0x4
lbl_100524CC = .rdata:0x100524CC; // type:object size:0x1C
lbl_100524E8 = .rdata:0x100524E8; // type:object size:0x20
lbl_10052508 = .rdata:0x10052508; // type:object size:0x8
lbl_10052510 = .rdata:0x10052510; // type:object size:0x20
lbl_10052530 = .rdata:0x10052530; // type:object size:0x10
lbl_10052540 = .rdata:0x10052540; // type:object size:0x20
lbl_10052560 = .rdata:0x10052560; // type:object size:0x8
lbl_10052568 = .rdata:0x10052568; // type:object size:0x20
lbl_10052588 = .rdata:0x10052588; // type:object size:0x8
lbl_10052590 = .rdata:0x10052590; // type:object size:0x20
lbl_100525B0 = .rdata:0x100525B0; // type:object size:0x8
lbl_100525B8 = .rdata:0x100525B8; // type:object size:0x20
lbl_100525D8 = .rdata:0x100525D8; // type:object size:0x8
lbl_100525E0 = .rdata:0x100525E0; // type:object size:0x20
lbl_10052600 = .rdata:0x10052600; // type:object size:0x18
lbl_10052618 = .rdata:0x10052618; // type:object size:0x20
lbl_10052638 = .rdata:0x10052638; // type:object size:0x18
lbl_10052650 = .rdata:0x10052650; // type:object size:0x20
lbl_10052670 = .rdata:0x10052670; // type:object size:0x18
lbl_10052688 = .rdata:0x10052688; // type:object size:0x20
lbl_100526A8 = .rdata:0x100526A8; // type:object size:0x8
lbl_100526B0 = .rdata:0x100526B0; // type:object size:0x20
lbl_100526D0 = .rdata:0x100526D0; // type:object size:0x8
lbl_100526D8 = .rdata:0x100526D8; // type:object size:0x20
lbl_100526F8 = .rdata:0x100526F8; // type:object size:0x8
lbl_10052700 = .rdata:0x10052700; // type:object size:0x20
lbl_10052720 = .rdata:0x10052720; // type:object size:0x10
lbl_10052730 = .rdata:0x10052730; // type:object size:0x20
lbl_10052750 = .rdata:0x10052750; // type:object size:0x8
lbl_10052758 = .rdata:0x10052758; // type:object size:0x20
lbl_10052778 = .rdata:0x10052778; // type:object size:0x18
lbl_10052790 = .rdata:0x10052790; // type:object size:0x20
lbl_100527B0 = .rdata:0x100527B0; // type:object size:0x8
lbl_100527B8 = .rdata:0x100527B8; // type:object size:0x20
lbl_100527D8 = .rdata:0x100527D8; // type:object size:0x8
lbl_100527E0 = .rdata:0x100527E0; // type:object size:0x20
lbl_10052800 = .rdata:0x10052800; // type:object size:0x18
lbl_10052818 = .rdata:0x10052818; // type:object size:0x20
lbl_10052838 = .rdata:0x10052838; // type:object size:0x8
lbl_10052840 = .rdata:0x10052840; // type:object size:0x20
lbl_10052860 = .rdata:0x10052860; // type:object size:0x8
lbl_10052868 = .rdata:0x10052868; // type:object size:0x20
lbl_10052888 = .rdata:0x10052888; // type:object size:0x10
lbl_10052898 = .rdata:0x10052898; // type:object size:0x20
lbl_100528B8 = .rdata:0x100528B8; // type:object size:0x8
lbl_100528C0 = .rdata:0x100528C0; // type:object size:0x20
lbl_100528E0 = .rdata:0x100528E0; // type:object size:0x8
lbl_100528E8 = .rdata:0x100528E8; // type:object size:0x20
lbl_10052908 = .rdata:0x10052908; // type:object size:0x18
lbl_10052920 = .rdata:0x10052920; // type:object size:0x20
lbl_10052940 = .rdata:0x10052940; // type:object size:0x8
lbl_10052948 = .rdata:0x10052948; // type:object size:0x20
lbl_10052968 = .rdata:0x10052968; // type:object size:0x18
lbl_10052980 = .rdata:0x10052980; // type:object size:0x20
lbl_100529A0 = .rdata:0x100529A0; // type:object size:0x18
lbl_100529B8 = .rdata:0x100529B8; // type:object size:0x20
lbl_100529D8 = .rdata:0x100529D8; // type:object size:0x30
lbl_10052A08 = .rdata:0x10052A08; // type:object size:0x20
lbl_10052A28 = .rdata:0x10052A28; // type:object size:0x18
lbl_10052A40 = .rdata:0x10052A40; // type:object size:0x20
lbl_10052A60 = .rdata:0x10052A60; // type:object size:0x8
lbl_10052A68 = .rdata:0x10052A68; // type:object size:0x20
lbl_10052A88 = .rdata:0x10052A88; // type:object size:0x38
lbl_10052AC0 = .rdata:0x10052AC0; // type:object size:0x20
lbl_10052AE0 = .rdata:0x10052AE0; // type:object size:0x20
lbl_10052B00 = .rdata:0x10052B00; // type:object size:0x20
lbl_10052B20 = .rdata:0x10052B20; // type:object size:0x20
lbl_10052B40 = .rdata:0x10052B40; // type:object size:0x20
lbl_10052B60 = .rdata:0x10052B60; // type:object size:0x28
lbl_10052B88 = .rdata:0x10052B88; // type:object size:0x20
lbl_10052BA8 = .rdata:0x10052BA8; // type:object size:0x18
lbl_10052BC0 = .rdata:0x10052BC0; // type:object size:0x20
lbl_10052BE0 = .rdata:0x10052BE0; // type:object size:0x10
lbl_10052BF0 = .rdata:0x10052BF0; // type:object size:0x20
lbl_10052C10 = .rdata:0x10052C10; // type:object size:0x20
lbl_10052C30 = .rdata:0x10052C30; // type:object size:0x20
lbl_10052C50 = .rdata:0x10052C50; // type:object size:0x18
lbl_10052C68 = .rdata:0x10052C68; // type:object size:0x20
lbl_10052C88 = .rdata:0x10052C88; // type:object size:0x10
lbl_10052C98 = .rdata:0x10052C98; // type:object size:0x20
lbl_10052CB8 = .rdata:0x10052CB8; // type:object size:0x18
lbl_10052CD0 = .rdata:0x10052CD0; // type:object size:0x20
lbl_10052CF0 = .rdata:0x10052CF0; // type:object size:0x18
lbl_10052D08 = .rdata:0x10052D08; // type:object size:0x20
lbl_10052D28 = .rdata:0x10052D28; // type:object size:0x10
lbl_10052D38 = .rdata:0x10052D38; // type:object size:0x20
lbl_10052D58 = .rdata:0x10052D58; // type:object size:0x10
lbl_10052D68 = .rdata:0x10052D68; // type:object size:0x20
lbl_10052D88 = .rdata:0x10052D88; // type:object size:0x8
lbl_10052D90 = .rdata:0x10052D90; // type:object size:0x20
lbl_10052DB0 = .rdata:0x10052DB0; // type:object size:0x10
lbl_10052DC0 = .rdata:0x10052DC0; // type:object size:0x20
lbl_10052DE0 = .rdata:0x10052DE0; // type:object size:0x8
lbl_10052DE8 = .rdata:0x10052DE8; // type:object size:0x20
lbl_10052E08 = .rdata:0x10052E08; // type:object size:0x10
lbl_10052E18 = .rdata:0x10052E18; // type:object size:0x20
lbl_10052E38 = .rdata:0x10052E38; // type:object size:0x8
lbl_10052E40 = .rdata:0x10052E40; // type:object size:0x20
lbl_10052E60 = .rdata:0x10052E60; // type:object size:0x8
lbl_10052E68 = .rdata:0x10052E68; // type:object size:0x20
lbl_10052E88 = .rdata:0x10052E88; // type:object size:0x8
lbl_10052E90 = .rdata:0x10052E90; // type:object size:0x20
lbl_10052EB0 = .rdata:0x10052EB0; // type:object size:0x20
lbl_10052ED0 = .rdata:0x10052ED0; // type:object size:0x20
lbl_10052EF0 = .rdata:0x10052EF0; // type:object size:0x8
lbl_10052EF8 = .rdata:0x10052EF8; // type:object size:0x20
lbl_10052F18 = .rdata:0x10052F18; // type:object size:0x8
lbl_10052F20 = .rdata:0x10052F20; // type:object size:0x20
lbl_10052F40 = .rdata:0x10052F40; // type:object size:0x8
lbl_10052F48 = .rdata:0x10052F48; // type:object size:0x20
lbl_10052F68 = .rdata:0x10052F68; // type:object size:0x8
lbl_10052F70 = .rdata:0x10052F70; // type:object size:0x20
lbl_10052F90 = .rdata:0x10052F90; // type:object size:0x8
lbl_10052F98 = .rdata:0x10052F98; // type:object size:0x20
lbl_10052FB8 = .rdata:0x10052FB8; // type:object size:0x10
lbl_10052FC8 = .rdata:0x10052FC8; // type:object size:0x20
lbl_10052FE8 = .rdata:0x10052FE8; // type:object size:0x8
lbl_10052FF0 = .rdata:0x10052FF0; // type:object size:0x20
lbl_10053010 = .rdata:0x10053010; // type:object size:0x8
lbl_10053018 = .rdata:0x10053018; // type:object size:0x20
lbl_10053038 = .rdata:0x10053038; // type:object size:0x20
lbl_10053058 = .rdata:0x10053058; // type:object size:0x20
lbl_10053078 = .rdata:0x10053078; // type:object size:0x18
lbl_10053090 = .rdata:0x10053090; // type:object size:0x20
lbl_100530B0 = .rdata:0x100530B0; // type:object size:0x28
lbl_100530D8 = .rdata:0x100530D8; // type:object size:0x20
lbl_100530F8 = .rdata:0x100530F8; // type:object size:0x40
lbl_10053138 = .rdata:0x10053138; // type:object size:0x20
lbl_10053158 = .rdata:0x10053158; // type:object size:0x8
lbl_10053160 = .rdata:0x10053160; // type:object size:0x20
lbl_10053180 = .rdata:0x10053180; // type:object size:0x8
lbl_10053188 = .rdata:0x10053188; // type:object size:0x20
lbl_100531A8 = .rdata:0x100531A8; // type:object size:0x8
lbl_100531B0 = .rdata:0x100531B0; // type:object size:0x20
lbl_100531D0 = .rdata:0x100531D0; // type:object size:0x8
lbl_100531D8 = .rdata:0x100531D8; // type:object size:0x20
lbl_100531F8 = .rdata:0x100531F8; // type:object size:0x10
lbl_10053208 = .rdata:0x10053208; // type:object size:0x20
lbl_10053228 = .rdata:0x10053228; // type:object size:0x20
lbl_10053248 = .rdata:0x10053248; // type:object size:0x20
lbl_10053268 = .rdata:0x10053268; // type:object size:0x8
lbl_10053270 = .rdata:0x10053270; // type:object size:0x20
lbl_10053290 = .rdata:0x10053290; // type:object size:0x8
lbl_10053298 = .rdata:0x10053298; // type:object size:0x20
lbl_100532B8 = .rdata:0x100532B8; // type:object size:0x8
lbl_100532C0 = .rdata:0x100532C0; // type:object size:0x20
lbl_100532E0 = .rdata:0x100532E0; // type:object size:0x8
lbl_100532E8 = .rdata:0x100532E8; // type:object size:0x20
lbl_10053308 = .rdata:0x10053308; // type:object size:0x8
lbl_10053310 = .rdata:0x10053310; // type:object size:0x20
lbl_10053330 = .rdata:0x10053330; // type:object size:0x8
lbl_10053338 = .rdata:0x10053338; // type:object size:0x20
lbl_10053358 = .rdata:0x10053358; // type:object size:0x8
lbl_10053360 = .rdata:0x10053360; // type:object size:0x20
lbl_10053380 = .rdata:0x10053380; // type:object size:0x8
lbl_10053388 = .rdata:0x10053388; // type:object size:0x40
lbl_100533C8 = .rdata:0x100533C8; // type:object size:0x78
lbl_10053440 = .rdata:0x10053440; // type:object size:0x14
lbl_10053454 = .rdata:0x10053454; // type:object size:0xD481
lbl_10061000 = .data:0x10061000; // type:object size:0x94
lbl_10061094 = .data:0x10061094; // type:object size:0x4
lbl_10061098 = .data:0x10061098; // type:object size:0x18
lbl_100610B0 = .data:0x100610B0; // type:object size:0x4
___xp_a = .data:0x100610B4; // type:object scope:global
lbl_3_data_100610B4 = .data:0x100610B4; // type:object size:0x24
___xp_z = .data:0x100610BC; // type:object scope:global
___xt_a = .data:0x100610C0; // type:object scope:global
___xt_z = .data:0x100610C8; // type:object scope:global
?LH_CHANNEL_DEFAULT_NAME@@3PBDB = .data:0x100610D8; // type:object size:0x4
lbl_100610DC = .data:0x100610DC; // type:object size:0x8 data:string
lbl_100610E4 = .data:0x100610E4; // type:object size:0x1C
lbl_10061100 = .data:0x10061100; // type:object size:0x194
lbl_10061294 = .data:0x10061294; // type:object size:0x15 data:string
lbl_100612AC = .data:0x100612AC; // type:object size:0x8
lbl_100612B4 = .data:0x100612B4; // type:object size:0x19 data:string
lbl_100612D0 = .data:0x100612D0; // type:object size:0x41 data:string
lbl_10061314 = .data:0x10061314; // type:object size:0x19 data:string
lbl_10061330 = .data:0x10061330; // type:object size:0xE data:string
lbl_10061340 = .data:0x10061340; // type:object size:0xA data:string
lbl_1006134C = .data:0x1006134C; // type:object size:0xD data:string
lbl_1006135C = .data:0x1006135C; // type:object size:0xC data:string
lbl_10061368 = .data:0x10061368; // type:object size:0x14
lbl_1006137C = .data:0x1006137C; // type:object size:0x4
lbl_10061380 = .data:0x10061380; // type:object size:0x4
lbl_10061384 = .data:0x10061384; // type:object size:0x4
lbl_10061388 = .data:0x10061388; // type:object size:0x14
lbl_1006139C = .data:0x1006139C; // type:object size:0x4
lbl_100613A0 = .data:0x100613A0; // type:object size:0x4
lbl_100613A4 = .data:0x100613A4; // type:object size:0x4
lbl_100613A8 = .data:0x100613A8; // type:object size:0x4
lbl_100613AC = .data:0x100613AC; // type:object size:0x7 data:string
lbl_100613B4 = .data:0x100613B4; // type:object size:0x3 data:string
lbl_100613B8 = .data:0x100613B8; // type:object size:0x52 data:string
lbl_1006140C = .data:0x1006140C; // type:object size:0x3 data:string
lbl_10061410 = .data:0x10061410; // type:object size:0x10 data:string
lbl_10061420 = .data:0x10061420; // type:object size:0xB data:string
lbl_1006142C = .data:0x1006142C; // type:object size:0x4 data:string
lbl_10061430 = .data:0x10061430; // type:object size:0x8 data:string
lbl_10061438 = .data:0x10061438; // type:object size:0x28 data:string
lbl_10061460 = .data:0x10061460; // type:object size:0x5 data:string
lbl_10061468 = .data:0x10061468; // type:object size:0x4 data:string
lbl_1006146C = .data:0x1006146C; // type:object size:0x3 data:string
lbl_10061470 = .data:0x10061470; // type:object size:0x3 data:string
lbl_10061474 = .data:0x10061474; // type:object size:0x8 data:string
lbl_1006147C = .data:0x1006147C; // type:object size:0x3 data:string
lbl_10061480 = .data:0x10061480; // type:object size:0x4
lbl_10061484 = .data:0x10061484; // type:object size:0x2B data:string
lbl_100614B0 = .data:0x100614B0; // type:object size:0x7 data:string
lbl_100614B8 = .data:0x100614B8; // type:object size:0xC data:string
lbl_100614C4 = .data:0x100614C4; // type:object size:0x5 data:string
lbl_100614CC = .data:0x100614CC; // type:object size:0x5 data:string
lbl_100614D4 = .data:0x100614D4; // type:object size:0x6 data:string
lbl_100614DC = .data:0x100614DC; // type:object size:0x3 data:string
lbl_100614E0 = .data:0x100614E0; // type:object size:0x2 data:string
lbl_100614E4 = .data:0x100614E4; // type:object size:0xA data:string
lbl_100614F0 = .data:0x100614F0; // type:object size:0xA data:string
lbl_100614FC = .data:0x100614FC; // type:object size:0x8 data:string
lbl_10061504 = .data:0x10061504; // type:object size:0x13 data:string
lbl_10061518 = .data:0x10061518; // type:object size:0x6 data:string
lbl_10061520 = .data:0x10061520; // type:object size:0xE data:string
lbl_10061530 = .data:0x10061530; // type:object size:0x7 data:string
lbl_10061538 = .data:0x10061538; // type:object size:0x10 data:string
lbl_10061548 = .data:0x10061548; // type:object size:0x9 data:string
lbl_10061554 = .data:0x10061554; // type:object size:0x6 data:string
lbl_1006155C = .data:0x1006155C; // type:object size:0x9 data:string
lbl_10061568 = .data:0x10061568; // type:object size:0x14 data:string
lbl_1006157C = .data:0x1006157C; // type:object size:0x2 data:string
lbl_10061580 = .data:0x10061580; // type:object size:0x8 data:string
lbl_10061588 = .data:0x10061588; // type:object size:0x2 data:string
lbl_1006158C = .data:0x1006158C; // type:object size:0x2 data:string
lbl_10061590 = .data:0x10061590; // type:object size:0x5 data:string
lbl_10061598 = .data:0x10061598; // type:object size:0xB data:string
lbl_100615A4 = .data:0x100615A4; // type:object size:0x10 data:string
lbl_100615B4 = .data:0x100615B4; // type:object size:0x12 data:string
lbl_100615C8 = .data:0x100615C8; // type:object size:0x5 data:string
lbl_100615D0 = .data:0x100615D0; // type:object size:0xB data:string
lbl_100615DC = .data:0x100615DC; // type:object size:0x8 data:string
lbl_100615E4 = .data:0x100615E4; // type:object size:0x12 data:string
lbl_100615F8 = .data:0x100615F8; // type:object size:0xF data:string
lbl_10061608 = .data:0x10061608; // type:object size:0xC
lbl_10061614 = .data:0x10061614; // type:object size:0x3 data:string
lbl_10061618 = .data:0x10061618; // type:object size:0x4
lbl_1006161C = .data:0x1006161C; // type:object size:0x5 data:string
lbl_10061624 = .data:0x10061624; // type:object size:0x8 data:string
lbl_1006162C = .data:0x1006162C; // type:object size:0xE data:string
lbl_1006163C = .data:0x1006163C; // type:object size:0x5 data:string
lbl_10061644 = .data:0x10061644; // type:object size:0x14
lbl_10061658 = .data:0x10061658; // type:object size:0x194
lbl_100617EC = .data:0x100617EC; // type:object size:0x7 data:string
lbl_100617F4 = .data:0x100617F4; // type:object size:0x16 data:string
lbl_1006180C = .data:0x1006180C; // type:object size:0x36 data:string
lbl_10061844 = .data:0x10061844; // type:object size:0x26 data:string
lbl_1006186C = .data:0x1006186C; // type:object size:0x26 data:string
lbl_10061894 = .data:0x10061894; // type:object size:0xB data:string
lbl_100618A0 = .data:0x100618A0; // type:object size:0xE data:string
lbl_100618B0 = .data:0x100618B0; // type:object size:0x3 data:string
lbl_100618B4 = .data:0x100618B4; // type:object size:0x2A data:string
lbl_100618E0 = .data:0x100618E0; // type:object size:0xA data:string
lbl_100618EC = .data:0x100618EC; // type:object size:0x3 data:string
lbl_100618F0 = .data:0x100618F0; // type:object size:0x2F data:string
lbl_10061920 = .data:0x10061920; // type:object size:0xF data:string
lbl_10061930 = .data:0x10061930; // type:object size:0x6 data:string
lbl_10061938 = .data:0x10061938; // type:object size:0xF data:string
lbl_10061948 = .data:0x10061948; // type:object size:0xA data:string
lbl_10061954 = .data:0x10061954; // type:object size:0x15 data:string
lbl_1006196C = .data:0x1006196C; // type:object size:0x16 data:string
lbl_10061984 = .data:0x10061984; // type:object size:0x9 data:string
lbl_10061990 = .data:0x10061990; // type:object size:0xD data:string
lbl_100619A0 = .data:0x100619A0; // type:object size:0x11 data:string
lbl_100619B4 = .data:0x100619B4; // type:object size:0x15 data:string
lbl_100619CC = .data:0x100619CC; // type:object size:0xF data:string
lbl_100619DC = .data:0x100619DC; // type:object size:0x71 data:string
lbl_10061A50 = .data:0x10061A50; // type:object size:0x11 data:string
lbl_10061A64 = .data:0x10061A64; // type:object size:0xD data:string
lbl_10061A74 = .data:0x10061A74; // type:object size:0xF data:string
lbl_10061A84 = .data:0x10061A84; // type:object size:0x87 data:string
lbl_10061B0C = .data:0x10061B0C; // type:object size:0xF data:string
lbl_10061B1C = .data:0x10061B1C; // type:object size:0x2A data:string
lbl_10061B48 = .data:0x10061B48; // type:object size:0xB data:string
lbl_10061B54 = .data:0x10061B54; // type:object size:0x14
lbl_10061B68 = .data:0x10061B68; // type:object size:0x194
lbl_10061CFC = .data:0x10061CFC; // type:object size:0x8
lbl_10061D04 = .data:0x10061D04; // type:object size:0x18 data:string
lbl_10061D1C = .data:0x10061D1C; // type:object size:0x4
lbl_10061D20 = .data:0x10061D20; // type:object size:0xC data:string
lbl_10061D30 = .data:0x10061D30; // type:object size:0x108
lbl_10061E38 = .data:0x10061E38; // type:object size:0x38 data:string
lbl_10061E70 = .data:0x10061E70; // type:object size:0x31 data:string
lbl_10061EA4 = .data:0x10061EA4; // type:object size:0x1B data:string
lbl_10061EC0 = .data:0x10061EC0; // type:object size:0x28 data:string
lbl_10061EE8 = .data:0x10061EE8; // type:object size:0x1A data:string
lbl_10061F04 = .data:0x10061F04; // type:object size:0x17 data:string
lbl_10061F1C = .data:0x10061F1C; // type:object size:0x15 data:string
lbl_10061F34 = .data:0x10061F34; // type:object size:0x16 data:string
lbl_10061F4C = .data:0x10061F4C; // type:object size:0x31 data:string
lbl_10061F80 = .data:0x10061F80; // type:object size:0x1A data:string
lbl_10061F9C = .data:0x10061F9C; // type:object size:0x1B data:string
lbl_10061FB8 = .data:0x10061FB8; // type:object size:0x21 data:string
lbl_10061FDC = .data:0x10061FDC; // type:object size:0xE data:string
lbl_10061FEC = .data:0x10061FEC; // type:object size:0x14 data:string
lbl_10062000 = .data:0x10062000; // type:object size:0x29 data:string
lbl_1006202C = .data:0x1006202C; // type:object size:0x46 data:string
lbl_10062074 = .data:0x10062074; // type:object size:0x46 data:string
lbl_100620BC = .data:0x100620BC; // type:object size:0x15 data:string
lbl_100620D4 = .data:0x100620D4; // type:object size:0x31 data:string
lbl_10062108 = .data:0x10062108; // type:object size:0x2C data:string
lbl_10062134 = .data:0x10062134; // type:object size:0x15 data:string
lbl_1006214C = .data:0x1006214C; // type:object size:0x1F data:string
lbl_1006216C = .data:0x1006216C; // type:object size:0x11 data:string
lbl_10062180 = .data:0x10062180; // type:object size:0x1C data:string
lbl_1006219C = .data:0x1006219C; // type:object size:0x28 data:string
lbl_100621C4 = .data:0x100621C4; // type:object size:0x42 data:string
lbl_10062208 = .data:0x10062208; // type:object size:0x49 data:string
lbl_10062254 = .data:0x10062254; // type:object size:0x20 data:string
lbl_10062274 = .data:0x10062274; // type:object size:0x2A data:string
lbl_100622A0 = .data:0x100622A0; // type:object size:0x16 data:string
lbl_100622B8 = .data:0x100622B8; // type:object size:0x25 data:string
lbl_100622E0 = .data:0x100622E0; // type:object size:0x28
?MessageDescriptors@LHNetEvent@@0PAULHNetMessageFormatDescriptor@@A = .data:0x10062308; // type:object size:0x1F0
lbl_100624F8 = .data:0x100624F8; // type:object size:0x3 data:string
lbl_100624FC = .data:0x100624FC; // type:object size:0x2 data:string
lbl_10062500 = .data:0x10062500; // type:object size:0x5 data:string
lbl_10062508 = .data:0x10062508; // type:object size:0x3 data:string
lbl_1006250C = .data:0x1006250C; // type:object size:0x2 data:string
lbl_10062510 = .data:0x10062510; // type:object size:0x6 data:string
lbl_10062518 = .data:0x10062518; // type:object size:0x3 data:string
lbl_1006251C = .data:0x1006251C; // type:object size:0x4 data:string
lbl_10062520 = .data:0x10062520; // type:object size:0x6 data:string
lbl_10062528 = .data:0x10062528; // type:object size:0x3 data:string
lbl_1006252C = .data:0x1006252C; // type:object size:0x4 data:string
lbl_10062530 = .data:0x10062530; // type:object size:0x4 data:string
lbl_10062534 = .data:0x10062534; // type:object size:0x6 data:string
lbl_1006253C = .data:0x1006253C; // type:object size:0x5 data:string
lbl_10062544 = .data:0x10062544; // type:object size:0x3 data:string
lbl_10062548 = .data:0x10062548; // type:object size:0x5 data:string
lbl_10062550 = .data:0x10062550; // type:object size:0x6 data:string
lbl_10062558 = .data:0x10062558; // type:object size:0x7 data:string
lbl_10062560 = .data:0x10062560; // type:object size:0x5 data:string
lbl_10062568 = .data:0x10062568; // type:object size:0x7 data:string
lbl_10062570 = .data:0x10062570; // type:object size:0x3 data:string
lbl_10062574 = .data:0x10062574; // type:object size:0x4 data:string
lbl_10062578 = .data:0x10062578; // type:object size:0x4 data:string
lbl_1006257C = .data:0x1006257C; // type:object size:0x5 data:string
lbl_10062584 = .data:0x10062584; // type:object size:0x4 data:string
lbl_10062588 = .data:0x10062588; // type:object size:0x6 data:string
lbl_10062590 = .data:0x10062590; // type:object size:0x3 data:string
lbl_10062594 = .data:0x10062594; // type:object size:0x6 data:string
lbl_1006259C = .data:0x1006259C; // type:object size:0x3 data:string
lbl_100625A0 = .data:0x100625A0; // type:object size:0x2 data:string
lbl_100625A4 = .data:0x100625A4; // type:object size:0x2 data:string
lbl_100625A8 = .data:0x100625A8; // type:object size:0x2 data:string
lbl_100625AC = .data:0x100625AC; // type:object size:0x3 data:string
lbl_100625B0 = .data:0x100625B0; // type:object size:0x7 data:string
lbl_100625B8 = .data:0x100625B8; // type:object size:0x3 data:string
lbl_100625BC = .data:0x100625BC; // type:object size:0x3 data:string
lbl_100625C0 = .data:0x100625C0; // type:object size:0x3 data:string
lbl_100625C4 = .data:0x100625C4; // type:object size:0x14
lbl_100625D8 = .data:0x100625D8; // type:object size:0x4
lbl_100625DC = .data:0x100625DC; // type:object size:0xB data:string
lbl_100625E8 = .data:0x100625E8; // type:object size:0xB data:string
lbl_100625F4 = .data:0x100625F4; // type:object size:0x24 data:string
lbl_10062618 = .data:0x10062618; // type:object size:0x9 data:string
lbl_10062624 = .data:0x10062624; // type:object size:0x30
lbl_10062654 = .data:0x10062654; // type:object size:0x2C
lbl_10062680 = .data:0x10062680; // type:object size:0x30
?LH_NET_REGISTRY_KEY@@3PBDB = .data:0x100626B0; // type:object size:0x4
?LH_NET_PROFILES_KEY@@3PBDB = .data:0x100626B4; // type:object size:0x4
?LH_NET_MACHINE_DEFAULT_BROWSER@@3PBDB = .data:0x100626B8; // type:object size:0x4
?LH_NET_BW_CURRENT_VERSION@@3PBDB = .data:0x100626BC; // type:object size:0x4
?LH_NET_PROFILE@@3PBDB = .data:0x100626C0; // type:object size:0x4
?LH_NET_PROFILE_FILE_NAME@@3PBDB = .data:0x100626C4; // type:object size:0x4
?LH_NET_PROFILE_LOGIN_NAME@@3PBDB = .data:0x100626C8; // type:object size:0x4
?LH_NET_REGISTRY_LOBBY@@3PBDB = .data:0x100626CC; // type:object size:0x4
?LH_NET_REGISTRY_LOGIN_SERVER@@3PBDB = .data:0x100626D0; // type:object size:0x4
lbl_100626D4 = .data:0x100626D4; // type:object size:0x10
?CheckInternetConnectionOptions@@3DA = .data:0x100626E4; // type:object size:0x4
lbl_100626E8 = .data:0x100626E8; // type:object size:0xB data:string
lbl_100626F4 = .data:0x100626F4; // type:object size:0x11 data:string
lbl_10062708 = .data:0x10062708; // type:object size:0xF data:string
lbl_10062718 = .data:0x10062718; // type:object size:0x6 data:string
lbl_10062720 = .data:0x10062720; // type:object size:0x6 data:string
lbl_10062728 = .data:0x10062728; // type:object size:0x5 data:string
lbl_10062730 = .data:0x10062730; // type:object size:0x8 data:string
lbl_10062738 = .data:0x10062738; // type:object size:0x2C data:string
lbl_10062764 = .data:0x10062764; // type:object size:0x30 data:string
lbl_10062794 = .data:0x10062794; // type:object size:0x43 data:string
lbl_100627D8 = .data:0x100627D8; // type:object size:0x3A data:string
lbl_10062814 = .data:0x10062814; // type:object size:0x8 data:string
lbl_1006281C = .data:0x1006281C; // type:object size:0x6 data:string
lbl_10062824 = .data:0x10062824; // type:object size:0x11 data:string
lbl_3_data_10062835 = .data:0x10062835; // type:object size:0x7
??_C@_01PJCK@?4?$AA@ = .data:0x10062838; // type:object scope:global data:string
lbl_1006283C = .data:0x1006283C; // type:object size:0x3 data:string
lbl_10062840 = .data:0x10062840; // type:object size:0x3 data:string
lbl_10062844 = .data:0x10062844; // type:object size:0xC data:string
lbl_10062850 = .data:0x10062850; // type:object size:0xC data:string
lbl_1006285C = .data:0x1006285C; // type:object size:0x6 data:string
lbl_10062864 = .data:0x10062864; // type:object size:0xF data:string
lbl_10062874 = .data:0x10062874; // type:object size:0x10 data:string
lbl_10062884 = .data:0x10062884; // type:object size:0x13 data:string
lbl_10062898 = .data:0x10062898; // type:object size:0x14 data:string
lbl_100628AC = .data:0x100628AC; // type:object size:0x25
lbl_100628D1 = .data:0x100628D1; // type:object size:0x43
lbl_10062914 = .data:0x10062914; // type:object size:0x2 data:string
lbl_10062918 = .data:0x10062918; // type:object size:0x3 data:string
lbl_1006291C = .data:0x1006291C; // type:object size:0x7 data:string
lbl_10062924 = .data:0x10062924; // type:object size:0xB data:string
lbl_10062930 = .data:0x10062930; // type:object size:0x4 data:string
lbl_10062934 = .data:0x10062934; // type:object size:0xC data:string
lbl_10062940 = .data:0x10062940; // type:object size:0x7 data:string
lbl_10062948 = .data:0x10062948; // type:object size:0x7 data:string
lbl_10062950 = .data:0x10062950; // type:object size:0xA data:string
lbl_1006295C = .data:0x1006295C; // type:object size:0x3 data:string
lbl_10062960 = .data:0x10062960; // type:object size:0x4 data:string
lbl_10062964 = .data:0x10062964; // type:object size:0x8 data:string
lbl_1006296C = .data:0x1006296C; // type:object size:0x8 data:string
lbl_10062974 = .data:0x10062974; // type:object size:0x5 data:string
lbl_1006297C = .data:0x1006297C; // type:object size:0xA data:string
lbl_10062988 = .data:0x10062988; // type:object size:0x5 data:string
lbl_10062990 = .data:0x10062990; // type:object size:0x5 data:string
lbl_10062998 = .data:0x10062998; // type:object size:0x4 data:string
lbl_1006299C = .data:0x1006299C; // type:object size:0x4 data:string
lbl_100629A0 = .data:0x100629A0; // type:object size:0x14
lbl_100629B4 = .data:0x100629B4; // type:object size:0x18
lbl_100629CC = .data:0x100629CC; // type:object size:0x16 data:string
lbl_100629E4 = .data:0x100629E4; // type:object size:0x1F data:string
lbl_10062A04 = .data:0x10062A04; // type:object size:0x14 data:string
lbl_10062A18 = .data:0x10062A18; // type:object size:0x12 data:string
lbl_10062A2C = .data:0x10062A2C; // type:object size:0x13 data:string
lbl_10062A40 = .data:0x10062A40; // type:object size:0x14 data:string
lbl_10062A54 = .data:0x10062A54; // type:object size:0x12 data:string
lbl_10062A68 = .data:0x10062A68; // type:object size:0x28
lbl_10062A90 = .data:0x10062A90; // type:object size:0x18 data:string
lbl_10062AA8 = .data:0x10062AA8; // type:object size:0x190
lbl_10062C38 = .data:0x10062C38; // type:object size:0x4
lbl_10062C3C = .data:0x10062C3C; // type:object size:0x6 data:string
lbl_10062C44 = .data:0x10062C44; // type:object size:0x10 data:string
lbl_10062C54 = .data:0x10062C54; // type:object size:0x15 data:string
lbl_10062C6C = .data:0x10062C6C; // type:object size:0x17 data:string
lbl_10062C84 = .data:0x10062C84; // type:object size:0x14 data:string
lbl_10062C98 = .data:0x10062C98; // type:object size:0x1B data:string
lbl_10062CB4 = .data:0x10062CB4; // type:object size:0x4
lbl_10062CB8 = .data:0x10062CB8; // type:object size:0x1A data:string
lbl_10062CD4 = .data:0x10062CD4; // type:object size:0x24 data:string
lbl_10062CF8 = .data:0x10062CF8; // type:object size:0x1D data:string
lbl_10062D18 = .data:0x10062D18; // type:object size:0x1C
lbl_10062D34 = .data:0x10062D34; // type:object size:0x8
lbl_10062D3C = .data:0x10062D3C; // type:object size:0x8
lbl_10062D44 = .data:0x10062D44; // type:object size:0x4
lbl_10062D48 = .data:0x10062D48; // type:object size:0xC
lbl_10062D54 = .data:0x10062D54; // type:object size:0x15 data:string
lbl_10062D6C = .data:0x10062D6C; // type:object size:0xD data:string
lbl_10062D7C = .data:0x10062D7C; // type:object size:0x14 data:string
lbl_10062D90 = .data:0x10062D90; // type:object size:0xB data:string
lbl_10062D9C = .data:0x10062D9C; // type:object size:0xD data:string
lbl_10062DAC = .data:0x10062DAC; // type:object size:0xB data:string
lbl_10062DB8 = .data:0x10062DB8; // type:object size:0xB data:string
lbl_10062DC8 = .data:0x10062DC8; // type:object size:0x18
lbl_10062DE0 = .data:0x10062DE0; // type:object size:0x18
lbl_10062DF8 = .data:0x10062DF8; // type:object size:0x14
lbl_10062E0C = .data:0x10062E0C; // type:object size:0x16 data:string
lbl_10062E24 = .data:0x10062E24; // type:object size:0x1C data:string
lbl_10062E40 = .data:0x10062E40; // type:object size:0x2 data:string
lbl_10062E44 = .data:0x10062E44; // type:object size:0x4
lbl_10062E48 = .data:0x10062E48; // type:object size:0x1000
lbl_10063E48 = .data:0x10063E48; // type:object size:0x100
lbl_10063F48 = .data:0x10063F48; // type:object size:0x24 data:string
lbl_10063F6C = .data:0x10063F6C; // type:object size:0x28 data:string
lbl_10063F94 = .data:0x10063F94; // type:object size:0x1F data:string
lbl_10063FB4 = .data:0x10063FB4; // type:object size:0x23 data:string
lbl_10063FD8 = .data:0x10063FD8; // type:object size:0x21 data:string
lbl_10063FFC = .data:0x10063FFC; // type:object size:0x19 data:string
lbl_10064018 = .data:0x10064018; // type:object size:0x1D data:string
lbl_10064038 = .data:0x10064038; // type:object size:0x44
lbl_1006407C = .data:0x1006407C; // type:object size:0x1C
lbl_10064098 = .data:0x10064098; // type:object size:0x18
___lc_time_curr = .data:0x100640B0; // type:object scope:global
lbl_3_data_100640B0 = .data:0x100640B0; // type:object size:0xD4
___lc_time_c = .data:0x100640B8; // type:object scope:global
_dststart = .data:0x10064168; // type:object scope:local
data_0x1006416c = .data:0x1006416C; // type:object scope:local
data_0x10064170 = .data:0x10064170; // type:object scope:local
_dstend = .data:0x10064178; // type:object scope:local
data_0x1006417c = .data:0x1006417C; // type:object scope:local
data_0x10064180 = .data:0x10064180; // type:object scope:local
lbl_10064184 = .data:0x10064184; // type:object size:0xC
___tlsindex = .data:0x10064190; // type:object scope:global
lbl_3_data_10064190 = .data:0x10064190; // type:object size:0x4
lbl_10064194 = .data:0x10064194; // type:object size:0xC
lbl_100641A0 = .data:0x100641A0; // type:object size:0x4
lbl_100641A4 = .data:0x100641A4; // type:object size:0xC
lbl_100641B0 = .data:0x100641B0; // type:object size:0x8
lbl_100641B8 = .data:0x100641B8; // type:object size:0x2008
lbl_100661C0 = .data:0x100661C0; // type:object size:0x4
lbl_100661C4 = .data:0x100661C4; // type:object size:0x4
__locktable = .data:0x100661C8; // type:object scope:global
lbl_3_data_100661C8 = .data:0x100661C8; // type:object size:0xD8
data_0x100661cc = .data:0x100661CC; // type:object scope:global
data_0x100661ec = .data:0x100661EC; // type:object scope:global
data_0x100661fc = .data:0x100661FC; // type:object scope:global
data_0x1006620c = .data:0x1006620C; // type:object scope:global
data_0x10066288 = .data:0x10066288; // type:object scope:global
__cfltcvt_tab = .data:0x1006628C; // type:object scope:global
data_0x10066290 = .data:0x10066290; // type:object scope:global
data_0x10066294 = .data:0x10066294; // type:object scope:global
data_0x10066298 = .data:0x10066298; // type:object scope:global
data_0x1006629c = .data:0x1006629C; // type:object scope:global
lbl_100662A0 = .data:0x100662A0; // type:object size:0x4
lbl_100662A4 = .data:0x100662A4; // type:object size:0x4
_sbrackset = .data:0x100662A8; // type:object scope:local data:string
lbl_3_data_100662A8 = .data:0x100662A8; // type:object size:0x278
_cbrackset = .data:0x100662B0; // type:object scope:local data:string
data_0x100662c0 = .data:0x100662C0; // type:object scope:global
data_0x100662d0 = .data:0x100662D0; // type:object scope:global
__iob = .data:0x100662E0; // type:object scope:global
data_0x10066300 = .data:0x10066300; // type:object scope:global
data_0x10066330 = .data:0x10066330; // type:object scope:global
lbl_10066520 = .data:0x10066520; // type:object size:0x20
data_0x10066540 = .data:0x10066540; // type:object scope:global
lbl_3_data_10066540 = .data:0x10066540; // type:object size:0x4
lbl_10066544 = .data:0x10066544; // type:object size:0x164
___badioinfo = .data:0x100666A8; // type:object scope:global
lbl_3_data_100666A8 = .data:0x100666A8; // type:object size:0x28
lbl_100666D0 = .data:0x100666D0; // type:object size:0x2 data:string
lbl_100666D4 = .data:0x100666D4; // type:object size:0x2 data:string
lbl_10066758 = .data:0x10066758; // type:object size:0x8C
lbl_100667E4 = .data:0x100667E4; // type:object size:0x4
lbl_100667E8 = .data:0x100667E8; // type:object size:0x4
lbl_100667EC = .data:0x100667EC; // type:object size:0x4
lbl_100667F0 = .data:0x100667F0; // type:object size:0xC
lbl_100667FC = .data:0x100667FC; // type:object size:0x20
lbl_1006681C = .data:0x1006681C; // type:object size:0x4
lbl_10066820 = .data:0x10066820; // type:object size:0x8
__pctype = .data:0x10066828; // type:object scope:global
lbl_3_data_10066828 = .data:0x10066828; // type:object size:0x224
__pwctype = .data:0x1006682C; // type:object scope:global
__ctype = .data:0x10066832; // type:object scope:global
___mb_cur_max = .data:0x10066A34; // type:object scope:global
___decimal_point = .data:0x10066A38; // type:object scope:global data:string
___decimal_point_length = .data:0x10066A3C; // type:object scope:global
__timezone = .data:0x10066A40; // type:object scope:global
__daylight = .data:0x10066A44; // type:object scope:global
__dstbias = .data:0x10066A48; // type:object scope:global
lbl_10066A4C = .data:0x10066A4C; // type:object size:0x4 data:string
lbl_10066A8C = .data:0x10066A8C; // type:object size:0x4 data:string
lbl_3_data_10066A90 = .data:0x10066A90; // type:object size:0x4C
__tzname = .data:0x10066ACC; // type:object scope:global
data_0x10066ad0 = .data:0x10066AD0; // type:object scope:global
lbl_10066ADC = .data:0x10066ADC; // type:object size:0x4
lbl_10066AE0 = .data:0x10066AE0; // type:object size:0x30
__days = .data:0x10066B10; // type:object scope:global
lbl_3_data_10066B10 = .data:0x10066B10; // type:object size:0x4
lbl_10066B14 = .data:0x10066B14; // type:object size:0x3C
lbl_10066B50 = .data:0x10066B50; // type:object size:0x4
lbl_10066B54 = .data:0x10066B54; // type:object size:0x8C
__XcptActTab = .data:0x10066BE0; // type:object scope:global
lbl_3_data_10066BE0 = .data:0x10066BE0; // type:object size:0x80
__First_FPE_Indx = .data:0x10066C58; // type:object scope:global
__Num_FPE = .data:0x10066C5C; // type:object scope:global
lbl_10066C60 = .data:0x10066C60; // type:object size:0x2 data:string
lbl_3_data_10066C62 = .data:0x10066C62; // type:object size:0x6
__XcptActTabCount = .data:0x10066C64; // type:object scope:global data:string
lbl_10066C68 = .data:0x10066C68; // type:object size:0x18
lbl_10066C80 = .data:0x10066C80; // type:object size:0x20
lbl_10066CA0 = .data:0x10066CA0; // type:object size:0x4
lbl_10066CA4 = .data:0x10066CA4; // type:object size:0x5 data:string
lbl_10066CAC = .data:0x10066CAC; // type:object size:0x4
lbl_10066CB0 = .data:0x10066CB0; // type:object size:0x4 data:string
lbl_10066CB4 = .data:0x10066CB4; // type:object size:0x4
lbl_10066CB8 = .data:0x10066CB8; // type:object size:0x4 data:string
lbl_10066CBC = .data:0x10066CBC; // type:object size:0x4 data:string
lbl_10066CC4 = .data:0x10066CC4; // type:object size:0x480
lbl_10067144 = .data:0x10067144; // type:object size:0x14
lbl_10067158 = .data:0x10067158; // type:object size:0xB8
lbl_10067210 = .data:0x10067210; // type:object size:0x208
lbl_10067418 = .data:0x10067418; // type:object size:0x8
lbl_10067420 = .data:0x10067420; // type:object size:0x4
lbl_10067424 = .data:0x10067424; // type:object size:0xC
lbl_10067430 = .data:0x10067430; // type:object size:0xE0
___lconv_static_decimal = .data:0x10067510; // type:object scope:global data:string
lbl_3_data_10067510 = .data:0x10067510; // type:object size:0x40
___lconv_c = .data:0x10067518; // type:object scope:global
data_0x1006751c = .data:0x1006751C; // type:object scope:global
data_0x10067520 = .data:0x10067520; // type:object scope:global
___lconv = .data:0x10067548; // type:object scope:global
lbl_10067550 = .data:0x10067550; // type:object size:0x160
lbl_100676B0 = .data:0x100676B0; // type:object size:0x15C
lbl_1006780C = .data:0x1006780C; // type:object size:0x5 data:string
lbl_10067814 = .data:0x10067814; // type:object size:0x9 data:string
lbl_10067820 = .data:0x10067820; // type:object size:0x4 data:string
lbl_10067824 = .data:0x10067824; // type:object size:0x9 data:string
lbl_10067830 = .data:0x10067830; // type:object size:0x7 data:string
lbl_10067838 = .data:0x10067838; // type:object size:0x5 data:string
lbl_10067840 = .data:0x10067840; // type:object size:0x1D data:string
lbl_10067860 = .data:0x10067860; // type:object size:0x4
lbl_10067864 = .data:0x10067864; // type:object size:0xA data:string
lbl_10067870 = .data:0x10067870; // type:object size:0x9 data:string
lbl_1006787C = .data:0x1006787C; // type:object size:0x7 data:string
lbl_10067884 = .data:0x10067884; // type:object size:0x8 data:string
lbl_1006788C = .data:0x1006788C; // type:object size:0x4
lbl_10067890 = .data:0x10067890; // type:object size:0x6 data:string
lbl_10067898 = .data:0x10067898; // type:object size:0x29 data:string
lbl_100678C4 = .data:0x100678C4; // type:object size:0x3F data:string
lbl_10067904 = .data:0x10067904; // type:object size:0x4
lbl_10067908 = .data:0x10067908; // type:object size:0x12 data:string
lbl_1006791C = .data:0x1006791C; // type:object size:0xA data:string
lbl_10067928 = .data:0x10067928; // type:object size:0x8 data:string
lbl_10067930 = .data:0x10067930; // type:object size:0x2 data:string
lbl_10067934 = .data:0x10067934; // type:object size:0x49 data:string
lbl_10067980 = .data:0x10067980; // type:object size:0xB data:string
lbl_1006798C = .data:0x1006798C; // type:object size:0x6 data:string
lbl_10067994 = .data:0x10067994; // type:object size:0xD data:string
lbl_100679A4 = .data:0x100679A4; // type:object size:0x9 data:string
lbl_100679B0 = .data:0x100679B0; // type:object size:0xD data:string
lbl_100679C0 = .data:0x100679C0; // type:object size:0xB data:string
lbl_100679CC = .data:0x100679CC; // type:object size:0xB data:string
lbl_100679D8 = .data:0x100679D8; // type:object size:0xB data:string
lbl_100679E4 = .data:0x100679E4; // type:object size:0x8 data:string
lbl_100679EC = .data:0x100679EC; // type:object size:0xB data:string
lbl_100679F8 = .data:0x100679F8; // type:object size:0xE data:string
lbl_10067A08 = .data:0x10067A08; // type:object size:0x18
lbl_10067A20 = .data:0x10067A20; // type:object size:0xF data:string
lbl_10067A30 = .data:0x10067A30; // type:object size:0xD data:string
lbl_10067A40 = .data:0x10067A40; // type:object size:0x9 data:string
lbl_10067A4C = .data:0x10067A4C; // type:object size:0xB data:string
lbl_10067A58 = .data:0x10067A58; // type:object size:0x4 data:string
lbl_10067A5C = .data:0x10067A5C; // type:object size:0x4 data:string
lbl_10067A60 = .data:0x10067A60; // type:object size:0x4 data:string
lbl_10067A64 = .data:0x10067A64; // type:object size:0x4 data:string
lbl_10067A68 = .data:0x10067A68; // type:object size:0x2 data:string
lbl_10067A6A = .data:0x10067A6A; // type:object size:0x2
lbl_10067A6C = .data:0x10067A6C; // type:object size:0x8 data:string
lbl_10067A74 = .data:0x10067A74; // type:object size:0xE data:string
lbl_10067A84 = .data:0x10067A84; // type:object size:0xE data:string
lbl_10067A94 = .data:0x10067A94; // type:object size:0xB data:string
lbl_10067AA0 = .data:0x10067AA0; // type:object size:0xE data:string
lbl_10067AB0 = .data:0x10067AB0; // type:object size:0xE data:string
lbl_10067AC0 = .data:0x10067AC0; // type:object size:0x9 data:string
lbl_10067ACC = .data:0x10067ACC; // type:object size:0x9 data:string
lbl_10067AD8 = .data:0x10067AD8; // type:object size:0x7 data:string
lbl_10067AE0 = .data:0x10067AE0; // type:object size:0xD data:string
lbl_10067AF0 = .data:0x10067AF0; // type:object size:0xF data:string
lbl_10067B00 = .data:0x10067B00; // type:object size:0xE data:string
lbl_10067B10 = .data:0x10067B10; // type:object size:0xE data:string
lbl_10067B20 = .data:0x10067B20; // type:object size:0xE data:string
lbl_10067B30 = .data:0x10067B30; // type:object size:0xE data:string
lbl_10067B40 = .data:0x10067B40; // type:object size:0x4 data:string
lbl_10067B44 = .data:0x10067B44; // type:object size:0x4 data:string
lbl_10067B48 = .data:0x10067B48; // type:object size:0x4 data:string
lbl_10067B4C = .data:0x10067B4C; // type:object size:0x4 data:string
lbl_10067B50 = .data:0x10067B50; // type:object size:0xB data:string
lbl_10067B5C = .data:0x10067B5C; // type:object size:0xC data:string
lbl_10067B68 = .data:0x10067B68; // type:object size:0x9 data:string
lbl_10067B74 = .data:0x10067B74; // type:object size:0x9 data:string
lbl_10067B80 = .data:0x10067B80; // type:object size:0xB data:string
lbl_10067B8C = .data:0x10067B8C; // type:object size:0x7 data:string
lbl_10067B94 = .data:0x10067B94; // type:object size:0xB data:string
lbl_10067BA0 = .data:0x10067BA0; // type:object size:0xB data:string
lbl_10067BAC = .data:0x10067BAC; // type:object size:0xB data:string
lbl_10067BB8 = .data:0x10067BB8; // type:object size:0xB data:string
lbl_10067BC4 = .data:0x10067BC4; // type:object size:0x8
lbl_10067BCC = .data:0x10067BCC; // type:object size:0x24
lbl_10067BF0 = .data:0x10067BF0; // type:object size:0xF0
lbl_10067CE0 = .data:0x10067CE0; // type:object size:0x4
lbl_10067CE4 = .data:0x10067CE4; // type:object size:0x13 data:string
lbl_10067D24 = .data:0x10067D24; // type:object size:0x7 data:string
lbl_10067D2C = .data:0x10067D2C; // type:object size:0x5 data:string
lbl_10067D34 = .data:0x10067D34; // type:object size:0x8 data:string
lbl_10067D3C = .data:0x10067D3C; // type:object size:0x7 data:string
lbl_10067D44 = .data:0x10067D44; // type:object size:0x8 data:string
lbl_10067D4C = .data:0x10067D4C; // type:object size:0x6 data:string
lbl_10067D54 = .data:0x10067D54; // type:object size:0x5 data:string
lbl_10067D5C = .data:0x10067D5C; // type:object size:0x6 data:string
lbl_10067D64 = .data:0x10067D64; // type:object size:0x10 data:string
lbl_10067D74 = .data:0x10067D74; // type:object size:0x2 data:string
lbl_10067D78 = .data:0x10067D78; // type:object size:0xF data:string
lbl_10067D88 = .data:0x10067D88; // type:object size:0x9 data:string
lbl_10067D94 = .data:0x10067D94; // type:object size:0x8 data:string
lbl_10067D9C = .data:0x10067D9C; // type:object size:0xD data:string
lbl_10067DAC = .data:0x10067DAC; // type:object size:0xF data:string
lbl_10067DBC = .data:0x10067DBC; // type:object size:0x1A data:string
lbl_10067DD8 = .data:0x10067DD8; // type:object size:0x4 data:string
lbl_10067DDC = .data:0x10067DDC; // type:object size:0x9 data:string
lbl_10067DE8 = .data:0x10067DE8; // type:object size:0x2 data:string
lbl_10067DEC = .data:0x10067DEC; // type:object size:0x2 data:string
lbl_10067DF0 = .data:0x10067DF0; // type:object size:0x2 data:string
lbl_10067DF4 = .data:0x10067DF4; // type:object size:0x2 data:string
lbl_10067DF8 = .data:0x10067DF8; // type:object size:0x4 data:string
lbl_10067DFC = .data:0x10067DFC; // type:object size:0x4 data:string
lbl_10067E00 = .data:0x10067E00; // type:object size:0x2 data:string
lbl_10067E04 = .data:0x10067E04; // type:object size:0x3 data:string
lbl_10067E08 = .data:0x10067E08; // type:object size:0x4 data:string
lbl_10067E0C = .data:0x10067E0C; // type:object size:0x3 data:string
lbl_10067E10 = .data:0x10067E10; // type:object size:0x9 data:string
lbl_10067E1C = .data:0x10067E1C; // type:object size:0x7 data:string
lbl_10067E24 = .data:0x10067E24; // type:object size:0xC data:string
lbl_10067E30 = .data:0x10067E30; // type:object size:0x9 data:string
lbl_10067E3C = .data:0x10067E3C; // type:object size:0x8 data:string
lbl_10067E44 = .data:0x10067E44; // type:object size:0xB data:string
lbl_10067E50 = .data:0x10067E50; // type:object size:0x5 data:string
lbl_10067E58 = .data:0x10067E58; // type:object size:0x7 data:string
lbl_10067E60 = .data:0x10067E60; // type:object size:0x6 data:string
lbl_10067E68 = .data:0x10067E68; // type:object size:0x4 data:string
lbl_10067E6C = .data:0x10067E6C; // type:object size:0x4 data:string
lbl_10067E70 = .data:0x10067E70; // type:object size:0x2 data:string
lbl_10067E72 = .data:0x10067E72; // type:object size:0x2
lbl_10067E74 = .data:0x10067E74; // type:object size:0x8 data:string
lbl_10067E7C = .data:0x10067E7C; // type:object size:0x8 data:string
lbl_10067E84 = .data:0x10067E84; // type:object size:0x8 data:string
lbl_10067E8C = .data:0x10067E8C; // type:object size:0xB data:string
lbl_10067E98 = .data:0x10067E98; // type:object size:0xC data:string
lbl_10067EA4 = .data:0x10067EA4; // type:object size:0xF data:string
lbl_10067EB4 = .data:0x10067EB4; // type:object size:0x6 data:string
lbl_10067EBC = .data:0x10067EBC; // type:object size:0x3 data:string
lbl_10067EC0 = .data:0x10067EC0; // type:object size:0x6 data:string
lbl_10067EC8 = .data:0x10067EC8; // type:object size:0x8 data:string
lbl_10067ED0 = .data:0x10067ED0; // type:object size:0x9 data:string
lbl_10067EDC = .data:0x10067EDC; // type:object size:0x40
lbl_10067F1C = .data:0x10067F1C; // type:object size:0x5 data:string
lbl_10067F24 = .data:0x10067F24; // type:object size:0x13 data:string
lbl_10067F64 = .data:0x10067F64; // type:object size:0x18
lbl_10067F7C = .data:0x10067F7C; // type:object size:0x9 data:string
lbl_10067F88 = .data:0x10067F88; // type:object size:0xE data:string
lbl_10067F98 = .data:0x10067F98; // type:object size:0xA data:string
lbl_10067FA4 = .data:0x10067FA4; // type:object size:0x8 data:string
lbl_10067FAC = .data:0x10067FAC; // type:object size:0x7 data:string
lbl_10067FB4 = .data:0x10067FB4; // type:object size:0x8 data:string
lbl_10067FBC = .data:0x10067FBC; // type:object size:0x1C data:string
lbl_10067FD8 = .data:0x10067FD8; // type:object size:0x25 data:string
lbl_10068000 = .data:0x10068000; // type:object size:0x4 data:string
lbl_10068004 = .data:0x10068004; // type:object size:0x6 data:string
lbl_1006800C = .data:0x1006800C; // type:object size:0x7 data:string
lbl_10068014 = .data:0x10068014; // type:object size:0x43 data:string
lbl_10068058 = .data:0x10068058; // type:object size:0x4 data:string
lbl_1006805C = .data:0x1006805C; // type:object size:0x9 data:string
lbl_10068068 = .data:0x10068068; // type:object size:0x13 data:string
lbl_1006807C = .data:0x1006807C; // type:object size:0x1F data:string
lbl_1006809C = .data:0x1006809C; // type:object size:0x14 data:string
lbl_100680B0 = .data:0x100680B0; // type:object size:0x1B data:string
lbl_100680CC = .data:0x100680CC; // type:object size:0x19 data:string
lbl_100680E8 = .data:0x100680E8; // type:object size:0x18 data:string
lbl_10068100 = .data:0x10068100; // type:object size:0x1E data:string
lbl_10068120 = .data:0x10068120; // type:object size:0x3 data:string
lbl_10068128 = .data:0x10068128; // type:object size:0x4
lbl_1006812C = .data:0x1006812C; // type:object size:0x144
lbl_10068270 = .data:0x10068270; // type:object size:0x2 data:string
lbl_10068274 = .data:0x10068274; // type:object size:0x4 data:string
lbl_10068278 = .data:0x10068278; // type:object size:0x4 data:string
lbl_1006827C = .data:0x1006827C; // type:object size:0x4 data:string
lbl_10068280 = .data:0x10068280; // type:object size:0x4 data:string
lbl_10068284 = .data:0x10068284; // type:object size:0x4 data:string
lbl_10068288 = .data:0x10068288; // type:object size:0x4 data:string
lbl_1006828C = .data:0x1006828C; // type:object size:0x4 data:string
lbl_10068290 = .data:0x10068290; // type:object size:0x4 data:string
lbl_10068294 = .data:0x10068294; // type:object size:0x4 data:string
lbl_10068298 = .data:0x10068298; // type:object size:0x4 data:string
lbl_1006829C = .data:0x1006829C; // type:object size:0x4 data:string
lbl_100682A0 = .data:0x100682A0; // type:object size:0x4 data:string
lbl_100682A4 = .data:0x100682A4; // type:object size:0x4 data:string
lbl_100682A8 = .data:0x100682A8; // type:object size:0x4 data:string
lbl_100682AC = .data:0x100682AC; // type:object size:0x4 data:string
lbl_100682B0 = .data:0x100682B0; // type:object size:0x4 data:string
lbl_100682B4 = .data:0x100682B4; // type:object size:0x4 data:string
lbl_100682B8 = .data:0x100682B8; // type:object size:0x4 data:string
lbl_100682BC = .data:0x100682BC; // type:object size:0x4 data:string
lbl_100682C0 = .data:0x100682C0; // type:object size:0x4 data:string
lbl_100682C4 = .data:0x100682C4; // type:object size:0x4 data:string
lbl_100682C8 = .data:0x100682C8; // type:object size:0x4 data:string
lbl_100682CC = .data:0x100682CC; // type:object size:0x4 data:string
lbl_100682D0 = .data:0x100682D0; // type:object size:0x4 data:string
lbl_100682D4 = .data:0x100682D4; // type:object size:0x4 data:string
lbl_100682D8 = .data:0x100682D8; // type:object size:0x4 data:string
lbl_100682DC = .data:0x100682DC; // type:object size:0x4 data:string
lbl_100682E0 = .data:0x100682E0; // type:object size:0x7 data:string
lbl_100682E8 = .data:0x100682E8; // type:object size:0x6 data:string
lbl_100682F0 = .data:0x100682F0; // type:object size:0x5 data:string
lbl_100682F8 = .data:0x100682F8; // type:object size:0x6 data:string
lbl_10068300 = .data:0x10068300; // type:object size:0x5 data:string
lbl_10068308 = .data:0x10068308; // type:object size:0x5 data:string
lbl_10068310 = .data:0x10068310; // type:object size:0x5 data:string
lbl_10068318 = .data:0x10068318; // type:object size:0x5 data:string
lbl_10068320 = .data:0x10068320; // type:object size:0x5 data:string
lbl_10068328 = .data:0x10068328; // type:object size:0x4 data:string
lbl_1006832C = .data:0x1006832C; // type:object size:0x7 data:string
lbl_10068334 = .data:0x10068334; // type:object size:0x8 data:string
lbl_1006833C = .data:0x1006833C; // type:object size:0x7 data:string
lbl_10068344 = .data:0x10068344; // type:object size:0x18
lbl_1006835C = .data:0x1006835C; // type:object size:0x8 data:string
lbl_10068364 = .data:0x10068364; // type:object size:0x2 data:string
lbl_10068368 = .data:0x10068368; // type:object size:0x12 data:string
lbl_1006837C = .data:0x1006837C; // type:object size:0x4
lbl_10068380 = .data:0x10068380; // type:object size:0x4
lbl_10068384 = .data:0x10068384; // type:object size:0x4
lbl_10068388 = .data:0x10068388; // type:object size:0x4
lbl_1006838C = .data:0x1006838C; // type:object size:0x4
lbl_10068390 = .data:0x10068390; // type:object size:0x4
lbl_10068394 = .data:0x10068394; // type:object size:0x4
lbl_10068398 = .data:0x10068398; // type:object size:0x4
lbl_1006839C = .data:0x1006839C; // type:object size:0x4
lbl_100683A0 = .data:0x100683A0; // type:object size:0x4
lbl_100683A4 = .data:0x100683A4; // type:object size:0x4
lbl_100683A8 = .data:0x100683A8; // type:object size:0x4
lbl_100683AC = .data:0x100683AC; // type:object size:0x4
lbl_100683B0 = .data:0x100683B0; // type:object size:0x4
lbl_100683B4 = .data:0x100683B4; // type:object size:0x4
lbl_100683B8 = .data:0x100683B8; // type:object size:0x4
lbl_100683BC = .data:0x100683BC; // type:object size:0x4
lbl_100683C0 = .data:0x100683C0; // type:object size:0x4
lbl_100683C4 = .data:0x100683C4; // type:object size:0x4
lbl_100683C8 = .data:0x100683C8; // type:object size:0x4
lbl_100683CC = .data:0x100683CC; // type:object size:0x4
lbl_100683D0 = .data:0x100683D0; // type:object size:0x4
lbl_100683D4 = .data:0x100683D4; // type:object size:0x4
lbl_100683D8 = .data:0x100683D8; // type:object size:0x4
lbl_100683DC = .data:0x100683DC; // type:object size:0x4
lbl_100683E0 = .data:0x100683E0; // type:object size:0x4
lbl_100683E4 = .data:0x100683E4; // type:object size:0x4
lbl_100683E8 = .data:0x100683E8; // type:object size:0x4
lbl_100683EC = .data:0x100683EC; // type:object size:0x4
lbl_100683F0 = .data:0x100683F0; // type:object size:0x4
lbl_100683F4 = .data:0x100683F4; // type:object size:0xC
lbl_10068400 = .data:0x10068400; // type:object size:0x8
lbl_10068408 = .data:0x10068408; // type:object size:0x1A0
?RegisteredGame@LHConnection@@1PADA = .data:0x100685A8; // type:object size:0x34
lbl_100685DC = .data:0x100685DC; // type:object size:0x4
lbl_100685E0 = .data:0x100685E0; // type:object size:0x4
lbl_100685E4 = .data:0x100685E4; // type:object size:0x4
lbl_100685E8 = .data:0x100685E8; // type:object size:0xFC
lbl_100686E4 = .data:0x100686E4; // type:object size:0x400
lbl_10068AE4 = .data:0x10068AE4; // type:object size:0x4
lbl_10068AE8 = .data:0x10068AE8; // type:object size:0x8
?GameRunning@LHLobby@@2_NA = .data:0x10068AF0; // type:object size:0x4
?UserData@LHLobby@@2PAXA = .data:0x10068AF4; // type:object size:0x4
?UserDataLen@LHLobby@@2KA = .data:0x10068AF8; // type:object size:0x4
?MGJCallbackParam@LHLobby@@2PAXA = .data:0x10068AFC; // type:object size:0x4
?MGJCallback@LHLobby@@2P6A?AW4LH_MGJ_CALLBACK_RETURN@@PAX@ZA = .data:0x10068B00; // type:object size:0x4
?MessageServerMode@LHLobby@@2W4LH_OPERATING_MODE@@A = .data:0x10068B04; // type:object size:0x4
?SendFullChecksum@LHLobby@@2HA = .data:0x10068B08; // type:object size:0x4
?RunMessageServerOnThisHost@LHLobby@@2HA = .data:0x10068B0C; // type:object size:0x4
?GameFile@LHLobby@@2PADA = .data:0x10068B10; // type:object size:0x108
?UserFile@LHLobby@@2PADA = .data:0x10068C18; // type:object size:0x108
?LANPlayerList@LHLobby@@0V?$LHLinkedList@PAVLHPlayer@@@@A = .data:0x10068D20; // type:object size:0x4
lbl_10068D24 = .data:0x10068D24; // type:object size:0x4
lbl_10068D28 = .data:0x10068D28; // type:object size:0x4
?InternalLobbyServer@LHLobby@@0PAVLHLobbyServer@@A = .data:0x10068D2C; // type:object size:0x4
?InternalLobbyServerRunning@LHLobby@@0HA = .data:0x10068D30; // type:object size:0x4
?OpenLobbyCount@LHLobby@@2KA = .data:0x10068D34; // type:object size:0x4
lbl_10068D38 = .data:0x10068D38; // type:object size:0x4
?InternalLobbyServerConnection@LHLobby@@0PAV1@A = .data:0x10068D3C; // type:object size:0x4
?ConnectedLobbyName@LHLobby@@2PADA = .data:0x10068D40; // type:object size:0x48
?MSAcceptorInfo@LHLobby@@2VLHTransportInfo@@A = .data:0x10068D88; // type:object size:0x4
lbl_10068D8C = .data:0x10068D8C; // type:object size:0x4
lbl_10068D90 = .data:0x10068D90; // type:object size:0x4
lbl_10068D94 = .data:0x10068D94; // type:object size:0x4
lbl_10068D98 = .data:0x10068D98; // type:object size:0x68
?LocalLobbyList@LHLobby@@0V?$LHLinkedList@PAVLHLocalLobbyInfo@@@@A = .data:0x10068E00; // type:object size:0x4
lbl_10068E04 = .data:0x10068E04; // type:object size:0x4
?LH_LIONHEAD_DEFAULT_LISTNER_ADDRESS@@3VLHTransportInfo@@A = .data:0x10068E08; // type:object size:0x4
lbl_10068E0C = .data:0x10068E0C; // type:object size:0x4
lbl_10068E10 = .data:0x10068E10; // type:object size:0x4
lbl_10068E14 = .data:0x10068E14; // type:object size:0x68
lbl_10068E7C = .data:0x10068E7C; // type:object size:0x4
lbl_10068E80 = .data:0x10068E80; // type:object size:0x1A0
lbl_10069020 = .data:0x10069020; // type:object size:0x4
lbl_10069024 = .data:0x10069024; // type:object size:0x98
lbl_100690BC = .data:0x100690BC; // type:object size:0x4
?SeedCounter@LHMail@@2KA = .data:0x100690C0; // type:object size:0x8
lbl_100690C8 = .data:0x100690C8; // type:object size:0x1A0
lbl_10069268 = .data:0x10069268; // type:object size:0x8
lbl_10069270 = .data:0x10069270; // type:object size:0x180
lbl_100693F0 = .data:0x100693F0; // type:object size:0x4
lbl_100693F4 = .data:0x100693F4; // type:object size:0x4
lbl_100693F8 = .data:0x100693F8; // type:object size:0x4
lbl_100693FC = .data:0x100693FC; // type:object size:0x4
lbl_10069400 = .data:0x10069400; // type:object size:0x4
lbl_10069404 = .data:0x10069404; // type:object size:0x4
?UserFileDirectory@LHNetEvent@@2PADA = .data:0x10069408; // type:object size:0x4
lbl_1006940C = .data:0x1006940C; // type:object size:0x4
?Timer@LHLocalLobbyInfo@@2VLHTimer@@A = .data:0x10069410; // type:object size:0x100
lbl_10069510 = .data:0x10069510; // type:object size:0x4
lbl_10069514 = .data:0x10069514; // type:object size:0x4
lbl_10069518 = .data:0x10069518; // type:object size:0x4
lbl_1006951C = .data:0x1006951C; // type:object size:0x4
lbl_10069520 = .data:0x10069520; // type:object size:0x4
lbl_10069524 = .data:0x10069524; // type:object size:0x4
lbl_10069528 = .data:0x10069528; // type:object size:0x400
lbl_10069928 = .data:0x10069928; // type:object size:0x800
lbl_1006A128 = .data:0x1006A128; // type:object size:0xFE
lbl_1006A226 = .data:0x1006A226; // type:object size:0x1
lbl_1006A227 = .data:0x1006A227; // type:object size:0x1
lbl_1006A228 = .data:0x1006A228; // type:object size:0x100
lbl_1006A328 = .data:0x1006A328; // type:object size:0x64
lbl_1006A38C = .data:0x1006A38C; // type:object size:0x64
lbl_1006A3F0 = .data:0x1006A3F0; // type:object size:0xC4
lbl_1006A4B4 = .data:0x1006A4B4; // type:object size:0x64
lbl_1006A518 = .data:0x1006A518; // type:object size:0x4
lbl_1006A51C = .data:0x1006A51C; // type:object size:0x4
lbl_1006A520 = .data:0x1006A520; // type:object size:0x4
lbl_1006A524 = .data:0x1006A524; // type:object size:0x4
lbl_1006A528 = .data:0x1006A528; // type:object size:0x4
lbl_1006A52C = .data:0x1006A52C; // type:object size:0x4
lbl_1006A530 = .data:0x1006A530; // type:object size:0x8
?SuperPacketNGTQ@LHSession@@2V?$LHDynamicQueue@PAK@@A = .data:0x1006A538; // type:object size:0x4
lbl_1006A53C = .data:0x1006A53C; // type:object size:0x4
lbl_1006A540 = .data:0x1006A540; // type:object size:0x4
lbl_1006A544 = .data:0x1006A544; // type:object size:0x4
?SuperPacketQ@LHSession@@2V?$LHDynamicQueue@PAVLHNetEvent@@@@A = .data:0x1006A548; // type:object size:0x4
lbl_1006A54C = .data:0x1006A54C; // type:object size:0x4
lbl_1006A550 = .data:0x1006A550; // type:object size:0x4
lbl_1006A554 = .data:0x1006A554; // type:object size:0x4
lbl_1006A558 = .data:0x1006A558; // type:object size:0x4
?InitFlag@LHSocket@@2HA = .data:0x1006A55C; // type:object size:0x4
lbl_1006A560 = .data:0x1006A560; // type:object size:0x4
lbl_1006A564 = .data:0x1006A564; // type:object size:0x4
lbl_1006A568 = .data:0x1006A568; // type:object size:0x4
lbl_1006A56C = .data:0x1006A56C; // type:object size:0x4
lbl_1006A570 = .data:0x1006A570; // type:object size:0x8
lbl_1006A578 = .data:0x1006A578; // type:object size:0x1A0
lbl_1006A718 = .data:0x1006A718; // type:object size:0x4
lbl_1006A71C = .data:0x1006A71C; // type:object size:0x4
lbl_1006A720 = .data:0x1006A720; // type:object size:0x4
lbl_1006A724 = .data:0x1006A724; // type:object size:0x4
lbl_1006A728 = .data:0x1006A728; // type:object size:0x4
lbl_1006A72C = .data:0x1006A72C; // type:object size:0x4
_dstflag_cache = .data:0x1006A730; // type:object scope:local
data_0x1006a738 = .data:0x1006A738; // type:object scope:local
data_0x1006a73a = .data:0x1006A73A; // type:object scope:local
data_0x1006a73e = .data:0x1006A73E; // type:object scope:local
data_0x1006a740 = .data:0x1006A740; // type:object scope:local
_gmt_cache = .data:0x1006A742; // type:object scope:local
lbl_1006A748 = .data:0x1006A748; // type:object size:0x28
_tzapiused = .data:0x1006A770; // type:object scope:local
_tzinfo = .data:0x1006A778; // type:object scope:local
data_0x1006a77c = .data:0x1006A77C; // type:object scope:local
data_0x1006a7bc = .data:0x1006A7BC; // type:object scope:local
data_0x1006a7be = .data:0x1006A7BE; // type:object scope:local
data_0x1006a7c0 = .data:0x1006A7C0; // type:object scope:local
data_0x1006a7c2 = .data:0x1006A7C2; // type:object scope:local
data_0x1006a7c4 = .data:0x1006A7C4; // type:object scope:local
data_0x1006a7c6 = .data:0x1006A7C6; // type:object scope:local
data_0x1006a7c8 = .data:0x1006A7C8; // type:object scope:local
data_0x1006a7ca = .data:0x1006A7CA; // type:object scope:local
data_0x1006a7cc = .data:0x1006A7CC; // type:object scope:local
data_0x1006a7d0 = .data:0x1006A7D0; // type:object scope:local
data_0x1006a810 = .data:0x1006A810; // type:object scope:local
data_0x1006a812 = .data:0x1006A812; // type:object scope:local
data_0x1006a814 = .data:0x1006A814; // type:object scope:local
data_0x1006a816 = .data:0x1006A816; // type:object scope:local
data_0x1006a818 = .data:0x1006A818; // type:object scope:local
data_0x1006a81a = .data:0x1006A81A; // type:object scope:local
data_0x1006a81c = .data:0x1006A81C; // type:object scope:local
data_0x1006a81e = .data:0x1006A81E; // type:object scope:local
data_0x1006a820 = .data:0x1006A820; // type:object scope:local
_lastTZ = .data:0x1006A824; // type:object scope:local
lbl_1006A828 = .data:0x1006A828; // type:object size:0x4
___proc_attached = .data:0x1006A82C; // type:object scope:local
__aenvptr = .data:0x1006A830; // type:object scope:global
___error_mode = .data:0x1006A838; // type:object scope:global
___app_type = .data:0x1006A83C; // type:object scope:global
lbl_1006A840 = .data:0x1006A840; // type:object size:0x8
lbl_1006A848 = .data:0x1006A848; // type:object size:0x18
lbl_1006A860 = .data:0x1006A860; // type:object size:0x18
lbl_1006A878 = .data:0x1006A878; // type:object size:0x18
lbl_1006A890 = .data:0x1006A890; // type:object size:0x18
__newmode = .data:0x1006A8A8; // type:object scope:global
?_pnhHeap@@3P6AHI@ZA = .data:0x1006A8AC; // type:object scope:global
__umaskval = .data:0x1006A8B0; // type:object scope:global
__osver = .data:0x1006A8B4; // type:object scope:global
data_0x1006a8b5 = .data:0x1006A8B5; // type:object scope:global
__winver = .data:0x1006A8B8; // type:object scope:global
__winmajor = .data:0x1006A8BC; // type:object scope:global
__winminor = .data:0x1006A8C0; // type:object scope:global
___argc = .data:0x1006A8C4; // type:object scope:global
___argv = .data:0x1006A8C8; // type:object scope:global
__environ = .data:0x1006A8D0; // type:object scope:global
___initenv = .data:0x1006A8D4; // type:object scope:global
__wenviron = .data:0x1006A8D8; // type:object scope:global
lbl_1006A8DC = .data:0x1006A8DC; // type:object size:0x4
__pgmptr = .data:0x1006A8E0; // type:object scope:global
__exitflag = .data:0x1006A8E8; // type:object scope:global
__C_Termination_Done = .data:0x1006A8EC; // type:object scope:global
__C_Exit_Done = .data:0x1006A8F0; // type:object scope:global
__cflush = .data:0x1006A8F4; // type:object scope:global
lbl_1006A8F8 = .data:0x1006A8F8; // type:object size:0x4
lbl_1006A8FC = .data:0x1006A8FC; // type:object size:0x4
lbl_1006A900 = .data:0x1006A900; // type:object size:0x4
lbl_1006A904 = .data:0x1006A904; // type:object size:0x4
lbl_1006A908 = .data:0x1006A908; // type:object size:0x4
lbl_1006A90C = .data:0x1006A90C; // type:object size:0x4
___lc_handle = .data:0x1006A910; // type:object scope:global
data_0x1006a914 = .data:0x1006A914; // type:object scope:global
data_0x1006a918 = .data:0x1006A918; // type:object scope:global
data_0x1006a91c = .data:0x1006A91C; // type:object scope:global
___lc_codepage = .data:0x1006A920; // type:object scope:global
lbl_1006A924 = .data:0x1006A924; // type:object size:0x4
__stdbuf = .data:0x1006A928; // type:object scope:global
_?_pgmname@?1??_setargv@@9@9 = .data:0x1006A930; // type:object scope:local
_?f_use@?1??__crtGetEnvironmentStringsA@@9@9 = .data:0x1006AA34; // type:object scope:local
__adbgmsg = .data:0x1006AA38; // type:object scope:global
_pOldExceptFilter = .data:0x1006AA3C; // type:object scope:local
__commode = .data:0x1006AA40; // type:object scope:global
___lc_time_intl = .data:0x1006AA44; // type:object scope:global
_?dec_pnt@?1??__init_numeric@@9@9 = .data:0x1006AA48; // type:object scope:local
_?thous_sep@?1??__init_numeric@@9@9 = .data:0x1006AA4C; // type:object scope:local
_?grping@?1??__init_numeric@@9@9 = .data:0x1006AA50; // type:object scope:local
___lconv_intl = .data:0x1006AA54; // type:object scope:local
_?ctype1@?1??__init_ctype@@9@9 = .data:0x1006AA58; // type:object scope:local
_?wctype1@?1??__init_ctype@@9@9 = .data:0x1006AA5C; // type:object scope:local
lbl_1006AA60 = .data:0x1006AA60; // type:object size:0xC
data_0x1006aa6c = .data:0x1006AA6C; // type:object scope:global
data_0x1006aa74 = .data:0x1006AA74; // type:object scope:global
data_0x1006aa7a = .data:0x1006AA7A; // type:object scope:global
___lc_id = .data:0x1006AA7E; // type:object scope:global
data_0x1006aa80 = .data:0x1006AA80; // type:object scope:global
lbl_1006AA84 = .data:0x1006AA84; // type:object size:0x4
lbl_1006AA88 = .data:0x1006AA88; // type:object size:0x4
lbl_1006AA8C = .data:0x1006AA8C; // type:object size:0x4
lbl_1006AA90 = .data:0x1006AA90; // type:object size:0x4
lbl_1006AA94 = .data:0x1006AA94; // type:object size:0x4
lbl_1006AA98 = .data:0x1006AA98; // type:object size:0x4
lbl_1006AA9C = .data:0x1006AA9C; // type:object size:0x1
lbl_1006AA9D = .data:0x1006AA9D; // type:object size:0x3
lbl_1006AAA0 = .data:0x1006AAA0; // type:object size:0x4
lbl_1006AAA4 = .data:0x1006AAA4; // type:object size:0x4
lbl_1006AAA8 = .data:0x1006AAA8; // type:object size:0x4
lbl_1006AAAC = .data:0x1006AAAC; // type:object size:0x4
lbl_1006AAB0 = .data:0x1006AAB0; // type:object size:0x4
_?pfnMessageBoxA@?1??__crtMessageBoxA@@9@9 = .data:0x1006AAB4; // type:object scope:local
_?pfnGetActiveWindow@?1??__crtMessageBoxA@@9@9 = .data:0x1006AAB8; // type:object scope:local
_?pfnGetLastActivePopup@?1??__crtMessageBoxA@@9@9 = .data:0x1006AABC; // type:object scope:local
_ctrlc_action = .data:0x1006AAC0; // type:object scope:local
_ctrlbreak_action = .data:0x1006AAC4; // type:object scope:local
_abort_action = .data:0x1006AAC8; // type:object scope:local
_term_action = .data:0x1006AACC; // type:object scope:local
lbl_1006AAD0 = .data:0x1006AAD0; // type:object size:0x4
__fmode = .data:0x1006AAD4; // type:object scope:global
data_0x1006aad8 = .data:0x1006AAD8; // type:object scope:local
_?wcbuffer@?4??__getlocaleinfo@@9@9 = .data:0x1006AAE0; // type:object scope:local
lbl_1006AAE4 = .data:0x1006AAE4; // type:object size:0x4
lbl_1006AAE8 = .data:0x1006AAE8; // type:object size:0x4
lbl_1006AAEC = .data:0x1006AAEC; // type:object size:0x4
lbl_1006AAF0 = .data:0x1006AAF0; // type:object size:0x4
lbl_1006AAF4 = .data:0x1006AAF4; // type:object size:0x4
lbl_1006AAF8 = .data:0x1006AAF8; // type:object size:0x4
lbl_1006AAFC = .data:0x1006AAFC; // type:object size:0x1
lbl_1006AAFD = .data:0x1006AAFD; // type:object size:0x3
lbl_1006AB00 = .data:0x1006AB00; // type:object size:0x2
lbl_1006AB02 = .data:0x1006AB02; // type:object size:0x2
lbl_1006AB04 = .data:0x1006AB04; // type:object size:0x3
lbl_1006AB07 = .data:0x1006AB07; // type:object size:0x1
lbl_1006AB08 = .data:0x1006AB08; // type:object size:0xF8
lbl_1006AC00 = .data:0x1006AC00; // type:object size:0x100
lbl_1006AD00 = .data:0x1006AD00; // type:object size:0x4
lbl_1006AD04 = .data:0x1006AD04; // type:object size:0x204
lbl_1006AF08 = .data:0x1006AF08; // type:object size:0x10
lbl_1006AF18 = .data:0x1006AF18; // type:object size:0x10
lbl_1006AF28 = .data:0x1006AF28; // type:object size:0xB
lbl_1006AF33 = .data:0x1006AF33; // type:object size:0x1F5
lbl_1006B128 = .data:0x1006B128; // type:object size:0x8
lbl_1006B130 = .data:0x1006B130; // type:object size:0x4
lbl_1006B134 = .data:0x1006B134; // type:object size:0x4
lbl_1006B138 = .data:0x1006B138; // type:object size:0x2
lbl_1006B13A = .data:0x1006B13A; // type:object size:0x16
lbl_1006B150 = .data:0x1006B150; // type:object size:0x4
lbl_1006B154 = .data:0x1006B154; // type:object size:0x800
lbl_1006B954 = .data:0x1006B954; // type:object size:0x4
lbl_1006B958 = .data:0x1006B958; // type:object size:0x50
lbl_1006B9A8 = .data:0x1006B9A8; // type:object size:0x4
lbl_1006B9AC = .data:0x1006B9AC; // type:object size:0x1000
lbl_1006C9AC = .data:0x1006C9AC; // type:object size:0x100
lbl_1006CAAC = .data:0x1006CAAC; // type:object size:0x4
lbl_1006CAB0 = .data:0x1006CAB0; // type:object size:0x4
lbl_1006CAB4 = .data:0x1006CAB4; // type:object size:0x4
lbl_1006CAB8 = .data:0x1006CAB8; // type:object size:0x4
lbl_1006CABC = .data:0x1006CABC; // type:object size:0x4
lbl_1006CAC0 = .data:0x1006CAC0; // type:object size:0x4
lbl_1006CAC4 = .data:0x1006CAC4; // type:object size:0x4
lbl_1006CAC8 = .data:0x1006CAC8; // type:object size:0x4
lbl_1006CACC = .data:0x1006CACC; // type:object size:0x4
lbl_1006CAD0 = .data:0x1006CAD0; // type:object size:0x4
lbl_1006CAD4 = .data:0x1006CAD4; // type:object size:0x4
_start_tics = .data:0x1006CAD8; // type:object scope:local
data_0x1006cadc = .data:0x1006CADC; // type:object scope:local
lbl_1006CAE0 = .data:0x1006CAE0; // type:object size:0x8
lbl_1006CAE8 = .data:0x1006CAE8; // type:object size:0x18
___mbcodepage = .data:0x1006CB00; // type:object scope:global
___mbulinfo = .data:0x1006CB10; // type:object scope:global
___ismbcodepage = .data:0x1006CB1C; // type:object scope:global
__mbcasemap = .data:0x1006CB20; // type:object scope:global
data_0x1006cc20 = .data:0x1006CC20; // type:object scope:global
__mbctype = .data:0x1006CC21; // type:object scope:global
___mblcid = .data:0x1006CD24; // type:object scope:global
___setlc_active = .data:0x1006CD28; // type:object scope:global
___unguarded_readlc_active = .data:0x1006CD2C; // type:object scope:global
___pioinfo = .data:0x1006CD40; // type:object scope:global
data_0x1006cd44 = .data:0x1006CD44; // type:object scope:global
data_0x1006ce40 = .data:0x1006CE40; // type:object scope:global
___piob = .data:0x1006CE44; // type:object scope:global
lbl_1006CE60 = .data:0x1006CE60; // type:object size:0x1000
__nstream = .data:0x1006DE60; // type:object scope:global
___env_initialized = .data:0x1006DE64; // type:object scope:global
___mbctype_initialized = .data:0x1006DE68; // type:object scope:global
___onexitend = .data:0x1006DE6C; // type:object scope:global
___onexitbegin = .data:0x1006DE70; // type:object scope:global
___sbh_sizeHeaderList = .data:0x1006DE74; // type:object scope:global
___sbh_indGroupDefer = .data:0x1006DE78; // type:object scope:global
___sbh_pHeaderScan = .data:0x1006DE7C; // type:object scope:global
___sbh_pHeaderDefer = .data:0x1006DE84; // type:object scope:global
___sbh_cntHeaderList = .data:0x1006DE88; // type:object scope:global
___sbh_pHeaderList = .data:0x1006DE8C; // type:object scope:global
lbl_1006DE90 = .data:0x1006DE90; // type:object size:0x4
__crtheap = .data:0x1006DE94; // type:object scope:global
lbl_1006DE98 = .data:0x1006DE98; // type:object size:0x4
__acmdln = .data:0x1006DE9C; // type:object scope:global
__pRawDllMain = .data:0x1006DEA0; // type:object scope:global
lbl_1006DEA4 = .data:0x1006DEA4; // type:object size:0x4
lbl_1006DEA8 = .data:0x1006DEA8; // type:object size:0x4
lbl_1006DEAC = .data:0x1006DEAC; // type:object size:0x4
