?NULLGetEncodedLength@LHPacketisableObject@@QAEKKPAX@Z = .text:0x10001000; // type:function size:0x20
?NULLEncodeToBuffer@LHPacketisableObject@@QAEPAEPAEKPAX@Z = .text:0x10001020; // type:function size:0x30
?NULLDecodeFromBuffer@LHPacketisableObject@@QAEPAEPAE@Z = .text:0x10001050; // type:function size:0x30
??0LHPacketisableObject@@QAE@XZ = .text:0x10001080; // type:function size:0x10
??0LHPacketisableObject@@QAE@ABV0@@Z = .text:0x10001090; // type:function size:0x10
??4LHPacketisableObject@@QAEAAV0@ABV0@@Z = .text:0x100010A0; // type:function size:0x10
??0LH_USER_ID@@QAE@XZ = .text:0x100010B0; // type:function size:0x10
??0LH_USER_ID@@QAE@K@Z = .text:0x100010C0; // type:function size:0x10
??BLH_USER_ID@@QAEKXZ = .text:0x100010D0; // type:function size:0x10
??4LH_USER_ID@@QAE?AU0@AAK@Z = .text:0x100010E0; // type:function size:0x20
?IsValid@LH_USER_ID@@QAEHXZ = .text:0x10001100; // type:function size:0x20
?IsType@LH_USER_ID@@QAEHW4CATEGORY@1@@Z = .text:0x10001120; // type:function size:0x20
?IsServer@LH_USER_ID@@QAEHXZ = .text:0x10001140; // type:function size:0x30
?IsGlobal@LH_USER_ID@@QAEHXZ = .text:0x10001170; // type:function size:0x20
?IsPlayer@LH_USER_ID@@QAEHXZ = .text:0x10001190; // type:function size:0x20
??4LH_USER_ID@@QAEAAU0@ABU0@@Z = .text:0x100011B0; // type:function size:0x10
fn_100011C0 = .text:0x100011C0; // type:function size:0x20
??4LHHttp@@QAEAAV0@ABV0@@Z = .text:0x100011E0; // type:function size:0x20
??0LHHttpHeaders@@QAE@XZ = .text:0x10001200; // type:function size:0x10
??1LHHttpHeaders@@QAE@XZ = .text:0x10001210; // type:function size:0x40
??4LHHttpHeaders@@QAEAAV0@ABV0@@Z = .text:0x10001250; // type:function size:0x20
??0LHHttpHeaderStatus@@QAE@XZ = .text:0x10001270; // type:function size:0x30
??1LHHttpHeaderStatus@@QAE@XZ = .text:0x100012A0; // type:function size:0x50
??4LHHttpHeaderStatus@@QAEAAU0@ABU0@@Z = .text:0x100012F0; // type:function size:0x20
?SetTimeOut@LHHttp2@@QAEXK@Z = .text:0x10001310; // type:function size:0x10
?GetTimeOut@LHHttp2@@QAEKXZ = .text:0x10001320; // type:function size:0x10
?GetReadSize@LHHttp2@@QAEKXZ = .text:0x10001330; // type:function size:0x10
?GetSendSize@LHHttp2@@QAEKXZ = .text:0x10001340; // type:function size:0x10
?SetMaxForwardings@LHHttp2@@QAEXK@Z = .text:0x10001350; // type:function size:0x10
?GetMaxForwardings@LHHttp2@@QAEKXZ = .text:0x10001360; // type:function size:0x10
??4LHHttp2@@QAEAAV0@ABV0@@Z = .text:0x10001370; // type:function size:0x20
??0LHNetUser@@QAE@XZ = .text:0x10001390; // type:function size:0x20
?GetID@LHNetUser@@QAE?AULH_USER_ID@@XZ = .text:0x100013B0; // type:function size:0x10
?GetName@LHNetUser@@QAEPAGXZ = .text:0x100013C0; // type:function size:0x10
?IsValid@LHNetUser@@QAEHXZ = .text:0x100013D0; // type:function size:0x20
?ChangeName@LHNetUser@@QAEXPAG@Z = .text:0x100013F0; // type:function size:0x10
?GetPassword@LHNetUser@@QAEPADXZ = .text:0x10001400; // type:function size:0x10
?ChangeID@LHNetUser@@QAEXK@Z = .text:0x10001410; // type:function size:0x10
??4LHNetUser@@QAEAAV0@ABV0@@Z = .text:0x10001420; // type:function size:0x20
?ClearAllData@LHTransportInfo@@QAEXXZ = .text:0x10001440; // type:function size:0x20
??0LHTransportInfo@@QAE@XZ = .text:0x10001460; // type:function size:0x30
??0LHTransportInfo@@QAE@W4LH_TRANSPORT_TYPE@@KPAX@Z = .text:0x10001490; // type:function size:0x40
?Set@LHTransportInfo@@QAEXPAV1@@Z = .text:0x100014D0; // type:function size:0x30
??0LHTransportInfo@@QAE@PAV0@@Z = .text:0x10001500; // type:function size:0x40
?Set@LHTransportInfo@@QAEXW4LH_TRANSPORT_TYPE@@PAD@Z = .text:0x10001540; // type:function size:0x40
??0LHTransportInfo@@QAE@W4LH_TRANSPORT_TYPE@@PAD@Z = .text:0x10001580; // type:function size:0x50
?Set@LHTransportInfo@@QAEXPAULHIAddress@@@Z = .text:0x100015D0; // type:function size:0x50
??0LHTransportInfo@@QAE@PAULHIAddress@@@Z = .text:0x10001620; // type:function size:0x50
?Set@LHTransportInfo@@QAEXPADG@Z = .text:0x10001670; // type:function size:0x80
??0LHTransportInfo@@QAE@PADG@Z = .text:0x100016F0; // type:function size:0x90
?Set@LHTransportInfo@@QAEXG@Z = .text:0x10001780; // type:function size:0x30
??0LHTransportInfo@@QAE@G@Z = .text:0x100017B0; // type:function size:0x40
?Set@LHTransportInfo@@QAEXW4LH_TRANSPORT_TYPE@@@Z = .text:0x100017F0; // type:function size:0x20
??0LHTransportInfo@@QAE@W4LH_TRANSPORT_TYPE@@@Z = .text:0x10001810; // type:function size:0x20
?GetPort@LHTransportInfo@@QAEGXZ = .text:0x10001830; // type:function size:0x10
?GetIP@LHTransportInfo@@QAEPADXZ = .text:0x10001840; // type:function size:0x10
?Compare@LHTransportInfo@@QAEJPAV1@@Z = .text:0x10001850; // type:function size:0x40
??0LHTransportInfo@@QAE@ABV0@@Z = .text:0x10001890; // type:function size:0x60
??4LHTransportInfo@@QAEAAV0@ABV0@@Z = .text:0x100018F0; // type:function size:0x60
?Set@LHTransportInfo@@QAEXW4LH_TRANSPORT_TYPE@@KPAX@Z = .text:0x10001950; // type:function size:0x40
?UpdateLength@LHTransportInfo@@QAEXXZ = .text:0x10001990; // type:function size:0x30
??0LHPlayer@@QAE@XZ = .text:0x100019C0; // type:function size:0x50
?GetPlayerID@LHPlayer@@SA?AULH_USER_ID@@U2@PAV?$LHLinkedList@PAVLHPlayer@@@@@Z = .text:0x10001A10; // type:function size:0x30
?SetTransportInfo@LHPlayer@@QAEXPAVLHTransportInfo@@@Z = .text:0x10001A40; // type:function size:0x60
?GetTransportInfo@LHPlayer@@QAEPAVLHTransportInfo@@XZ = .text:0x10001AA0; // type:function size:0x20
?GetName@LHPlayer@@QAEPAGXZ = .text:0x10001AC0; // type:function size:0x10
?GetUserID@LHPlayer@@QAE?AULH_USER_ID@@XZ = .text:0x10001AD0; // type:function size:0x10
?IsServer@LHPlayer@@QAEHXZ = .text:0x10001AE0; // type:function size:0x30
?GetPlayerID@LHPlayer@@QAEJXZ = .text:0x10001B10; // type:function size:0x10
?SetPlayerID@LHPlayer@@QAEXJ@Z = .text:0x10001B20; // type:function size:0x10
?GetUserFileName@LHPlayer@@QAEPBDXZ = .text:0x10001B30; // type:function size:0x10
?GetSystemData@LHPlayer@@QAEPAXXZ = .text:0x10001B40; // type:function size:0x10
?GetUserData@LHPlayer@@QAEPAXXZ = .text:0x10001B50; // type:function size:0x10
?GetUserDataLen@LHPlayer@@QAEKXZ = .text:0x10001B60; // type:function size:0x10
?IsHost@LHPlayer@@QAE_NXZ = .text:0x10001B70; // type:function size:0x10
??0LHPlayer@@QAE@ABV0@@Z = .text:0x10001B80; // type:function size:0x100
??4LHPlayer@@QAEAAV0@ABV0@@Z = .text:0x10001C80; // type:function size:0x110
?ClearAllData@LHNetEvent@@AAEXXZ = .text:0x10001D90; // type:function size:0x30
??0LHNetEvent@@AAE@XZ = .text:0x10001DC0; // type:function size:0x50
?GetPacket@LHNetEvent@@QAEPAVLHPacket@@XZ = .text:0x10001E10; // type:function size:0x10
?GetHeaderSize@LHNetEvent@@QAEKXZ = .text:0x10001E20; // type:function size:0x10
?GetDataLen@LHNetEvent@@QAEKXZ = .text:0x10001E30; // type:function size:0x10
?GetUserID@LHNetEvent@@QAE?AULH_USER_ID@@XZ = .text:0x10001E40; // type:function size:0x10
?GetDataPtr@LHNetEvent@@QAEPAXXZ = .text:0x10001E50; // type:function size:0x10
?GetType@LHNetEvent@@QAE?AW4LH_NETEVENT_TYPE@@XZ = .text:0x10001E60; // type:function size:0x10
?GetChannelName@LHNetEvent@@QAEPADXZ = .text:0x10001E70; // type:function size:0x10
?CreateSimple@LHNetEvent@@SAPAV1@JKPAX@Z = .text:0x10001E80; // type:function size:0x20
?GetTickCount@LHNetEvent@@QAEKXZ = .text:0x10001EA0; // type:function size:0x10
?SetTickCount@LHNetEvent@@QAEXK@Z = .text:0x10001EB0; // type:function size:0x10
?GetUDPinfo@LHNetEvent@@QAEPAVLHTransportInfo@@XZ = .text:0x10001EC0; // type:function size:0x10
??0LHNetEvent@@QAE@ABV0@@Z = .text:0x10001ED0; // type:function size:0x70
??4LHNetEvent@@QAEAAV0@ABV0@@Z = .text:0x10001F40; // type:function size:0x70
?ProcessEvent@LHConnection@@EAE?AW4LH_RETURN@@PAVLHNetEvent@@@Z = .text:0x10001FB0; // type:function size:0x10
??0LHConnection@@QAE@XZ = .text:0x10001FC0; // type:function size:0x20
??0LHConnection@@QAE@P6A?AW4LH_RETURN@@PAVLHNetEvent@@PAV0@PAX@Z2@Z = .text:0x10001FE0; // type:function size:0x30
?IsOpen@LHConnection@@QAEHXZ = .text:0x10002010; // type:function size:0x10
?GetNetUser@LHConnection@@QAEPAVLHNetUser@@XZ = .text:0x10002020; // type:function size:0x10
?GetUserID@LHConnection@@QAE?AULH_USER_ID@@XZ = .text:0x10002030; // type:function size:0x20
?GetUserNameA@LHConnection@@QAEPAGXZ = .text:0x10002050; // type:function size:0x10
?GetMode@LHConnection@@QAE?AW4LH_OPERATING_MODE@@XZ = .text:0x10002060; // type:function size:0x10
?GetConnectedUserID@LHConnection@@QAE?AULH_USER_ID@@XZ = .text:0x10002070; // type:function size:0x10
?GetConnectedUserName@LHConnection@@QAEPAGXZ = .text:0x10002080; // type:function size:0x10
?GetRegisteredName@LHConnection@@QAEPADXZ = .text:0x10002090; // type:function size:0x10
?IsValid@LHConnection@@QAEHXZ = .text:0x100020A0; // type:function size:0x10
?IsConnected@LHConnection@@QAEHXZ = .text:0x100020B0; // type:function size:0x10
??0LHConnection@@QAE@ABV0@@Z = .text:0x100020C0; // type:function size:0x80
??4LHConnection@@QAEAAV0@ABV0@@Z = .text:0x10002140; // type:function size:0x80
fn_100021E0 = .text:0x100021E0; // type:function size:0x60
??0LHChannel@@QAE@XZ = .text:0x10002240; // type:function size:0x50
??0LHChannel@@QAE@PAD@Z = .text:0x10002290; // type:function size:0x60
?SetName@LHChannel@@QAEXPBD@Z = .text:0x100022F0; // type:function size:0x20
?SetPassword@LHChannel@@QAEXPBD@Z = .text:0x10002310; // type:function size:0x20
?GetName@LHChannel@@QAEPADXZ = .text:0x10002330; // type:function size:0x10
?GetPlayerList@LHChannel@@QAEPAV?$LHLinkedList@PAVLHPlayer@@@@XZ = .text:0x10002340; // type:function size:0x10
?GetNextPlayer@LHChannel@@QAEPAVLHPlayer@@PAV2@@Z = .text:0x10002350; // type:function size:0x40
?GetSize@LHChannel@@QAEKXZ = .text:0x10002390; // type:function size:0x10
?GetGameData@LHChannel@@QAEPAXXZ = .text:0x100023A0; // type:function size:0x10
?GetGameDataLength@LHChannel@@QAEKXZ = .text:0x100023B0; // type:function size:0x10
??0LHChannel@@QAE@ABV0@@Z = .text:0x100023C0; // type:function size:0x50
??4LHChannel@@QAEAAV0@ABV0@@Z = .text:0x10002410; // type:function size:0x60
fn_10002490 = .text:0x10002490; // type:function size:0x60
??0LHMPPacketSave@@QAE@XZ = .text:0x100024F0; // type:function size:0x30
?UnReadEvent@LHMPPacketSave@@QAEXXZ = .text:0x10002520; // type:function size:0x10
?IsOpen@LHMPPacketSave@@QAEHXZ = .text:0x10002530; // type:function size:0x10
??4LHMPPacketSave@@QAEAAV0@ABV0@@Z = .text:0x10002540; // type:function size:0x20
??1LHMPPacketSave@@QAE@XZ = .text:0x10002560; // type:function size:0x10
??0LHLocalLobbyInfo@@QAE@XZ = .text:0x10002570; // type:function size:0xA0
??0LHLocalLobbyInfo@@QAE@PADPAVLHTransportInfo@@1PAV?$LHLinkedList@PAVLHPlayer@@@@W4CATEGORY@LH_USER_ID@@H@Z = .text:0x10002610; // type:function size:0xC0
??0LHLocalLobbyInfo@@QAE@ABV0@@Z = .text:0x100026D0; // type:function size:0x110
??4LHLocalLobbyInfo@@QAEAAV0@ABV0@@Z = .text:0x100027E0; // type:function size:0x120
fn_10002900 = .text:0x10002900; // type:function size:0x30
?GetUserID@LHLobbyChannel@@AAE?AULH_USER_ID@@XZ = .text:0x10002930; // type:function size:0x20
??0LHLobbyChannel@@QAE@XZ = .text:0x10002950; // type:function size:0x80
??0LHLobbyChannel@@QAE@PADPAVLHLobby@@@Z = .text:0x100029D0; // type:function size:0xA0
?FindChannel@LHLobbyChannel@@SAPAV1@PADPAV?$LHLinkedList@PAVLHLobbyChannel@@@@@Z = .text:0x10002A70; // type:function size:0x20
?GetSession@LHLobbyChannel@@QAEPAVLHSession@@XZ = .text:0x10002A90; // type:function size:0x10
?GetPacketSource@LHLobbyChannel@@QAE?AW4LH_PACKET_SOURCE@@XZ = .text:0x10002AA0; // type:function size:0x10
?SetPacketSource@LHLobbyChannel@@QAEXW4LH_PACKET_SOURCE@@@Z = .text:0x10002AB0; // type:function size:0x10
?GetLobby@LHLobbyChannel@@QAEPAVLHLobby@@XZ = .text:0x10002AC0; // type:function size:0x10
??0LHLobbyChannel@@QAE@ABV0@@Z = .text:0x10002AD0; // type:function size:0xB0
??4LHLobbyChannel@@QAEAAV0@ABV0@@Z = .text:0x10002B80; // type:function size:0xB0
fn_10002C50 = .text:0x10002C50; // type:function size:0x60
?FindOrCreateChannel@LHLobby@@AAEPAVLHLobbyChannel@@PADPAV1@@Z = .text:0x10002CB0; // type:function size:0x20
?FindDefaultChannel@LHLobby@@QAEPAVLHLobbyChannel@@XZ = .text:0x10002CD0; // type:function size:0x20
?FindChannel@LHLobby@@QAEPAVLHLobbyChannel@@PAD@Z = .text:0x10002CF0; // type:function size:0x20
?FindLocalLobby@LHLobby@@SAPAVLHLocalLobbyInfo@@PAVLHTransportInfo@@@Z = .text:0x10002D10; // type:function size:0x20
?FindLocalLobbyFromIP@LHLobby@@SAPAVLHLocalLobbyInfo@@PAD@Z = .text:0x10002D30; // type:function size:0x20
?GetMSAcceptorInfo@LHLobby@@QAEPAVLHTransportInfo@@XZ = .text:0x10002D50; // type:function size:0x10
?GetConnectedLobbyName@LHLobby@@QAEPADXZ = .text:0x10002D60; // type:function size:0x10
?GetChannel@LHLobby@@QAEPAVLHLobbyChannel@@PAVLHNetEvent@@@Z = .text:0x10002D70; // type:function size:0x20
?GetLastJoinChannelInfo@LHLobby@@QAEXPAPAGPAW4LH_PLAYER_EVENT@@@Z = .text:0x10002D90; // type:function size:0x20
?GetLastJoinUserID@LHLobby@@QAE?AULH_USER_ID@@XZ = .text:0x10002DB0; // type:function size:0x10
?IsInternalLobbyConnection@LHLobby@@QAEHXZ = .text:0x10002DC0; // type:function size:0x10
?IsGlobalLobbyConnection@LHLobby@@QAEHXZ = .text:0x10002DD0; // type:function size:0x20
?GetNumberOfChannels@LHLobby@@QAEKXZ = .text:0x10002DF0; // type:function size:0x10
?GetInternalLobbyServerConnection@LHLobby@@SAPAV1@XZ = .text:0x10002E00; // type:function size:0x10
??0LHLobby@@QAE@ABV0@@Z = .text:0x10002E10; // type:function size:0x100
??4LHLobby@@QAEAAV0@ABV0@@Z = .text:0x10002F10; // type:function size:0x100
fn_10003030 = .text:0x10003030; // type:function size:0x60
??0LHSession@@QAE@XZ = .text:0x10003090; // type:function size:0xA0
lbl_10003130 = .text:0x10003130; // type:label
lbl_10003140 = .text:0x10003140; // type:label
?GetGameTickInterval@LHSession@@QAEKXZ = .text:0x10003150; // type:function size:0x10
?Write@LHSession@@QAE?AW4LH_RETURN@@PAVLHNetEvent@@@Z = .text:0x10003160; // type:function size:0x10
?GetSuperPacketGameTurn@LHSession@@QAEJXZ = .text:0x10003170; // type:function size:0x10
?GetPlayerList@LHSession@@QAEPAV?$LHLinkedList@PAVLHPlayer@@@@XZ = .text:0x10003180; // type:function size:0x10
?GetNumberOfPlayers@LHSession@@QAEKXZ = .text:0x10003190; // type:function size:0x10
?GetNextPlayer@LHSession@@QAEPAVLHPlayer@@PAV2@@Z = .text:0x100031A0; // type:function size:0x40
?GetChecksumErrorData@LHSession@@QAEPAXXZ = .text:0x100031E0; // type:function size:0x10
?GetChecksumErrorLength@LHSession@@QAEKXZ = .text:0x100031F0; // type:function size:0x10
?GetChecksumFromFileFlag@LHSession@@QAEKXZ = .text:0x10003200; // type:function size:0x10
?GetChecksumErrorPlayer@LHSession@@QAEPAVLHPlayer@@XZ = .text:0x10003210; // type:function size:0x10
?GetLobbyChannel@LHSession@@QAEPAVLHLobbyChannel@@XZ = .text:0x10003220; // type:function size:0x10
?IsThisMe@LHSession@@QAEHPAVLHPlayer@@@Z = .text:0x10003230; // type:function size:0x20
?CheckForSuperPackets@LHSession@@QAEHXZ = .text:0x10003250; // type:function size:0x10
?GetGameData@LHSession@@QAEPAXXZ = .text:0x10003260; // type:function size:0x10
?GetGameDataLength@LHSession@@QAEKXZ = .text:0x10003270; // type:function size:0x10
?MGJInProgress@LHSession@@QAEHXZ = .text:0x10003280; // type:function size:0x10
?ClearMGJInProgress@LHSession@@QAEXXZ = .text:0x10003290; // type:function size:0x10
?GetServerClock@LHSession@@QAEPAVLHTimer@@XZ = .text:0x100032A0; // type:function size:0x20
?Destroy@LHSession@@SAXPAV1@@Z = .text:0x100032C0; // type:function size:0x10
?IsHost@LHSession@@QAE_NXZ = .text:0x100032D0; // type:function size:0x10
??0LHSession@@QAE@ABV0@@Z = .text:0x100032E0; // type:function size:0x200
??4LHSession@@QAEAAV0@ABV0@@Z = .text:0x100034E0; // type:function size:0x230
fn_10003730 = .text:0x10003730; // type:function size:0x60
??0LHTransport@@IAE@XZ = .text:0x10003790; // type:function size:0x20
?IsOpen@LHTransport@@QAEHXZ = .text:0x100037B0; // type:function size:0x10
?GetType@LHTransport@@QAE?AW4LH_TRANSPORT_TYPE@@XZ = .text:0x100037C0; // type:function size:0x10
?GetLastEventRead@LHTransport@@QAEPAVLHNetEvent@@XZ = .text:0x100037D0; // type:function size:0x10
?GetOutgoingEventQ@LHTransport@@QAEPAV?$LHDynamicQueue@PAVLHNetEvent@@@@XZ = .text:0x100037E0; // type:function size:0x10
?GetIncomingEventQ@LHTransport@@QAEPAV?$LHDynamicQueue@PAVLHNetEvent@@@@XZ = .text:0x100037F0; // type:function size:0x10
??0LHTransport@@QAE@ABV0@@Z = .text:0x10003800; // type:function size:0x50
??4LHTransport@@QAEAAV0@ABV0@@Z = .text:0x10003850; // type:function size:0x40
fn_100038B0 = .text:0x100038B0; // type:function size:0x60
?SetHookFunction@LHSyncTransport@@QAEXP6AXPAX@Z0@Z = .text:0x10003910; // type:function size:0x20
??0LHSyncTransport@@QAE@ABV0@@Z = .text:0x10003930; // type:function size:0x60
??4LHSyncTransport@@QAEAAV0@ABV0@@Z = .text:0x10003990; // type:function size:0x50
??1LHSyncTransport@@UAE@XZ = .text:0x100039E0; // type:function size:0x10
fn_10003A10 = .text:0x10003A10; // type:function size:0x60
?LockIncomingQ@LHAsyncTransport@@IAEXXZ = .text:0x10003A70; // type:function size:0x10
?UnLockIncomingQ@LHAsyncTransport@@IAEXXZ = .text:0x10003A80; // type:function size:0x10
?LockOutgoingQ@LHAsyncTransport@@IAEXXZ = .text:0x10003A90; // type:function size:0x10
?UnLockOutgoingQ@LHAsyncTransport@@IAEXXZ = .text:0x10003AA0; // type:function size:0x10
?GetSignalDataToRead@LHAsyncTransport@@UAEPAXXZ = .text:0x10003AB0; // type:function size:0x10
??0LHAsyncTransport@@QAE@ABV0@@Z = .text:0x10003AC0; // type:function size:0x80
??4LHAsyncTransport@@QAEAAV0@ABV0@@Z = .text:0x10003B40; // type:function size:0x70
fn_10003BD0 = .text:0x10003BD0; // type:function size:0x60
??0LHTransportRemote@@QAE@ABV0@@Z = .text:0x10003C30; // type:function size:0x90
??4LHTransportRemote@@QAEAAV0@ABV0@@Z = .text:0x10003CC0; // type:function size:0x80
fn_10003D60 = .text:0x10003D60; // type:function size:0x60
??0LHTransportTCP@@QAE@ABV0@@Z = .text:0x10003DC0; // type:function size:0xA0
??4LHTransportTCP@@QAEAAV0@ABV0@@Z = .text:0x10003E60; // type:function size:0x90
fn_10003F10 = .text:0x10003F10; // type:function size:0x60
??0LHTransportUDP@@QAE@ABV0@@Z = .text:0x10003F70; // type:function size:0xA0
??4LHTransportUDP@@QAEAAV0@ABV0@@Z = .text:0x10004010; // type:function size:0x90
fn_100040C0 = .text:0x100040C0; // type:function size:0x60
?FindChannel@LHChannel@@SAPAV1@PADPAV?$LHLinkedList@PAVLHChannel@@@@@Z = .text:0x10004120; // type:function size:0x60
?ClearAllData@LHChannel@@IAEXXZ = .text:0x10004180; // type:function size:0x90
?GetPlayer@LHChannel@@QAEPAVLHPlayer@@ULH_USER_ID@@@Z = .text:0x10004210; // type:function size:0x30
?AddPlayer@LHChannel@@QAE?AW4LH_RETURN@@PAVLHPlayer@@PAD@Z = .text:0x10004240; // type:function size:0xA0
?RemovePlayer@LHChannel@@QAE?AW4LH_RETURN@@PAVLHPlayer@@@Z = .text:0x100042E0; // type:function size:0x70
??1LHChannel@@UAE@XZ = .text:0x10004350; // type:function size:0xA0
?SetGameData@LHChannel@@QAE?AW4LH_RETURN@@KPAX@Z = .text:0x100043F0; // type:function size:0x60
?GetFirstUserID@LHChannel@@QAE?AULH_USER_ID@@XZ = .text:0x10004450; // type:function size:0x40
?GetEncodedLength@LHChannel@@UAEKKPAX@Z = .text:0x10004490; // type:function size:0x60
?EncodeToBuffer@LHChannel@@UAEPAEPAEKPAX@Z = .text:0x100044F0; // type:function size:0x90
?DecodeFromBuffer@LHChannel@@UAEPAEPAE@Z = .text:0x10004580; // type:function size:0x60
?ClearObject@LHChannel@@UAEXXZ = .text:0x100045E0; // type:function size:0x10
fn_10004610 = .text:0x10004610; // type:function size:0x40
fn_10004650 = .text:0x10004650; // type:function size:0x20
?ClearAllData@LHConnection@@IAEXXZ = .text:0x10004670; // type:function size:0x50
?SetNetUser@LHConnection@@QAEXPAVLHNetUser@@@Z = .text:0x100046C0; // type:function size:0x20
?GetTransportType@LHConnection@@QAE?AW4LH_TRANSPORT_TYPE@@XZ = .text:0x100046E0; // type:function size:0x20
?AddToIncomingEventQ@LHConnection@@QAEXPAVLHNetEvent@@@Z = .text:0x10004700; // type:function size:0x20
?AddToFrontOfIncomingEventQ@LHConnection@@QAEXPAVLHNetEvent@@@Z = .text:0x10004720; // type:function size:0x20
?AddAtPositionInIncomingEventQ@LHConnection@@QAEXPAVLHNetEvent@@K@Z = .text:0x10004740; // type:function size:0x20
?GetIncomingEventQSize@LHConnection@@QAEKXZ = .text:0x10004760; // type:function size:0x20
?Flushed@LHConnection@@QAE_NXZ = .text:0x10004780; // type:function size:0x20
?GetSignalDataToRead@LHConnection@@QAEPAXXZ = .text:0x100047A0; // type:function
?Read@LHConnection@@UAEPAVLHNetEvent@@KW4LH_NETEVENT_TYPE@@@Z = .text:0x100047B0; // type:function
?RawRead@LHConnection@@QAEPAVLHNetEvent@@KW4LH_NETEVENT_TYPE@@@Z = .text:0x100047F0; // type:function size:0x50
?RawPeek@LHConnection@@QAEPAVLHNetEvent@@KW4LH_NETEVENT_TYPE@@@Z = .text:0x10004840; // type:function size:0x30
?Peek@LHConnection@@QAEPAVLHNetEvent@@K@Z = .text:0x10004870; // type:function size:0x20
?Disconnect@LHConnection@@QAEXXZ = .text:0x10004890; // type:function size:0x20
?BaseProcessEvent@LHConnection@@AAE?AW4LH_RETURN@@PAVLHNetEvent@@@Z = .text:0x100048B0; // type:function size:0x90
?SetConnectedUserName@LHConnection@@AAE?AW4LH_RETURN@@PAG@Z = .text:0x10004940; // type:function size:0x20
?ProcessClientJoin@LHConnection@@AAE?AW4LH_RETURN@@PAVLHNetEvent@@@Z = .text:0x10004960; // type:function size:0xC0
?DetermineConnectionProtocol@LHConnection@@SA?AW4LH_RETURN@@PAV1@KPAKK@Z = .text:0x10004A20; // type:function size:0x40
?WriteLastError@LHConnection@@AAEXW4LH_NETEVENT_TYPE@@@Z = .text:0x10004A60; // type:function size:0x50
?FeedbackLastErrorAndClose@LHConnection@@AAEXXZ = .text:0x10004AB0; // type:function size:0x50
?ProcessServerRequestChallenge@LHConnection@@AAE?AW4LH_RETURN@@PAVLHNetEvent@@@Z = .text:0x10004B00; // type:function size:0x90
?ProcessClientChallengeResponse@LHConnection@@AAE?AW4LH_RETURN@@PAVLHNetEvent@@@Z = .text:0x10004B90; // type:function size:0xC0
?ProcessServerConnectionValidated@LHConnection@@AAE?AW4LH_RETURN@@PAVLHNetEvent@@@Z = .text:0x10004C50; // type:function size:0x50
?ProcessServerConnectionRefused@LHConnection@@AAE?AW4LH_RETURN@@PAVLHNetEvent@@@Z = .text:0x10004CA0; // type:function size:0x40
?ProcessServerGreeting@LHConnection@@AAE?AW4LH_RETURN@@PAVLHNetEvent@@@Z = .text:0x10004CE0; // type:function size:0x40
?WaitForConnectionValidation@LHConnection@@AAE?AW4LH_RETURN@@XZ = .text:0x10004D20; // type:function size:0x50
?Write@LHConnection@@QAE?AW4LH_RETURN@@PAVLHNetEvent@@@Z = .text:0x10004D70; // type:function size:0x90
?Write@LHConnection@@QAE?AW4LH_RETURN@@PAVLHNetEvent@@PAVLHTransportInfo@@@Z = .text:0x10004E00; // type:function size:0x50
?OpenClientConnection@LHConnection@@QAE?AW4LH_RETURN@@PAVLHNetUser@@PAVLHTransportInfo@@@Z = .text:0x10004E50; // type:function size:0x30
?SendClientProtocol@LHConnection@@AAE?AW4LH_RETURN@@XZ = .text:0x10004E80; // type:function size:0x60
?RawOpen@LHConnection@@QAE?AW4LH_RETURN@@PAVLHNetUser@@PAVLHTransportInfo@@@Z = .text:0x10004EE0; // type:function size:0xA0
?ConnectionOriented@LHConnection@@QAEHXZ = .text:0x10004F80; // type:function size:0x20
?OpenServerConnectionToExternalTransport@LHConnection@@QAE?AW4LH_RETURN@@PAVLHNetUser@@PAVLHTransport@@@Z = .text:0x10004FA0; // type:function size:0x60
?OpenServerConnectionToOtherConnection@LHConnection@@QAE?AW4LH_RETURN@@PAVLHNetUser@@PAV1@P6AXPAX@Z2@Z = .text:0x10005000; // type:function size:0x190
?SetEventFunction@LHConnection@@QAEXP6A?AW4LH_RETURN@@PAVLHNetEvent@@PAV1@PAX@Z2@Z = .text:0x10005190; // type:function size:0x20
?ClearTransport@LHConnection@@AAEXXZ = .text:0x100051B0; // type:function size:0x30
?Flush@LHConnection@@QAE?AW4LH_RETURN@@K@Z = .text:0x100051E0; // type:function size:0x50
?Close@LHConnection@@UAEXXZ = .text:0x10005230; // type:function size:0x20
??1LHConnection@@UAE@XZ = .text:0x10005250; // type:function size:0x20
?IsDisconnected@LHConnection@@QAEHXZ = .text:0x10005270; // type:function size:0x20
?IsInternal@LHConnection@@QAEHXZ = .text:0x10005290; // type:function
?CheckForEvents@LHConnection@@QAEHXZ = .text:0x100052D0; // type:function size:0x20
?CheckForEvent@LHConnection@@QAEHW4LH_NETEVENT_TYPE@@@Z = .text:0x100052F0; // type:function
?GetLastEventRead@LHConnection@@IAEPAVLHNetEvent@@XZ = .text:0x10005310; // type:function size:0x10
?SetLastEventReadToBeIgnored@LHConnection@@IAEXXZ = .text:0x10005320; // type:function size:0x10
?GetProtocolVersion@LHConnection@@AAEKXZ = .text:0x10005330; // type:function size:0x30
?BlockingMultipleRead@LHConnection@@SAPAVLHNetEvent@@PAPAV1@ZZ = .text:0x10005360; // type:function size:0x40
?BlockingMultipleRead@LHConnection@@SAPAVLHNetEvent@@PAKPAPAV1@K@Z = .text:0x100053A0; // type:function size:0xF0
?GetTransportInfo@LHConnection@@QAE?AW4LH_RETURN@@PAVLHTransportInfo@@H@Z = .text:0x10005490; // type:function size:0x20
fn_100054B0 = .text:0x100054B0; // type:function size:0x10
fn_100054C0 = .text:0x100054C0; // type:function size:0x20
lbl_100054F0 = .text:0x100054F0; // type:label
??1LHVersion@@QAE@XZ = .text:0x100054F5; // type:function size:0x6
lbl_10005500 = .text:0x10005500; // type:label
fn_10005570 = .text:0x10005570; // type:function size:0x50
fn_100055C0 = .text:0x100055C0; // type:function size:0x30
fn_100055F0 = .text:0x100055F0; // type:function size:0x60
fn_10005650 = .text:0x10005650; // type:function size:0x70
fn_100056C0 = .text:0x100056C0; // type:function size:0x20
fn_100056E0 = .text:0x100056E0; // type:function size:0x30
fn_10005970 = .text:0x10005970; // type:function size:0x2E0
lbl_10005C50 = .text:0x10005C50; // type:label
lbl_10005C70 = .text:0x10005C70; // type:label
fn_10005C90 = .text:0x10005C90; // type:function size:0x50
fn_10005CE0 = .text:0x10005CE0; // type:function size:0x40
fn_10005D20 = .text:0x10005D20; // type:function size:0x50
fn_10005D70 = .text:0x10005D70; // type:function size:0x20
fn_10005D90 = .text:0x10005D90; // type:function size:0x30
fn_10005DE0 = .text:0x10005DE0; // type:function size:0x70
fn_10005E50 = .text:0x10005E50; // type:function size:0x20
fn_10005E70 = .text:0x10005E70; // type:function size:0x160
fn_10005FD0 = .text:0x10005FD0; // type:function size:0x90
fn_10006060 = .text:0x10006060; // type:function size:0x90
fn_100060F0 = .text:0x100060F0; // type:function size:0x150
lbl_10006290 = .text:0x10006290; // type:label
lbl_100062A0 = .text:0x100062A0; // type:label
fn_10006990 = .text:0x10006990; // type:function size:0x160
fn_10006AF0 = .text:0x10006AF0; // type:function size:0x40
fn_10006B80 = .text:0x10006B80; // type:function size:0x50
fn_10006BD0 = .text:0x10006BD0; // type:function size:0x30
fn_10006C00 = .text:0x10006C00; // type:function size:0x50
fn_10006C50 = .text:0x10006C50; // type:function size:0x60
fn_10006F20 = .text:0x10006F20; // type:function size:0x20
fn_10006F40 = .text:0x10006F40; // type:function size:0x10
fn_10006F50 = .text:0x10006F50; // type:function
fn_10006FE0 = .text:0x10006FE0; // type:function size:0x120
fn_10007100 = .text:0x10007100; // type:function size:0x30
fn_10007140 = .text:0x10007140; // type:function size:0x20
??0DBInfo@@QAE@XZ = .text:0x10007160; // type:function size:0x40
??1DBInfo@@QAE@XZ = .text:0x100071A0; // type:function size:0x70
??4DBInfo@@QAEAAU0@ABU0@@Z = .text:0x10007210; // type:function size:0x20
fn_10007230 = .text:0x10007230; // type:function size:0x30
fn_10007260 = .text:0x10007260; // type:function size:0x90
fn_100072F0 = .text:0x100072F0; // type:function size:0xA0
fn_10007390 = .text:0x10007390; // type:function size:0xF0
?Reset@DBInfo@@QAEXXZ = .text:0x10007480; // type:function size:0x80
fn_10007500 = .text:0x10007500; // type:function size:0x30
fn_10007530 = .text:0x10007530; // type:function size:0x30
fn_10007560 = .text:0x10007560; // type:function size:0x30
fn_10007590 = .text:0x10007590; // type:function size:0x20
fn_100075B0 = .text:0x100075B0; // type:function size:0x90
?LHWebEncode@@YA?AW4LH_RETURN@@PADKPAPADPAK@Z = .text:0x10007640; // type:function size:0x60
?LHWebDecode@@YA?AW4LH_RETURN@@PADKPAPADPAK@Z = .text:0x100076A0; // type:function size:0x70
?LHWebEncodingFreePtr@@YAXPAD@Z = .text:0x10007710; // type:function size:0x10
?db_get_status_async@@YA?AW4DBSTATUS@@PAUDBInfo@@@Z = .text:0x10007720; // type:function size:0x115
lbl_10007750 = .text:0x10007750; // type:label
lbl_10007827 = .text:0x10007827; // type:label
lbl_10007835 = .text:0x10007835; // type:label
lbl_10007854 = .text:0x10007854; // type:label
lbl_1000787C = .text:0x1000787C; // type:label
lbl_10007894 = .text:0x10007894; // type:label
lbl_10007915 = .text:0x10007915; // type:label
lbl_10007930 = .text:0x10007930; // type:label
lbl_10007949 = .text:0x10007949; // type:label
lbl_100079A8 = .text:0x100079A8; // type:label
lbl_100079C4 = .text:0x100079C4; // type:label
lbl_100079D4 = .text:0x100079D4; // type:label
?db_get_result@@YA?AW4LH_RETURN@@PAUDBInfo@@PAK1PAPAPAD@Z = .text:0x10007A40; // type:function size:0x60
?db_execute_transaction_async@@YA?AW4DBSTATUS@@PAUDBInfo@@PADPAVLHNetUser@@PAVLHTransportInfo@@@Z = .text:0x10007AA0; // type:function size:0x560
?db_parse_sql_returnbuffer@@YA?AW4LH_RETURN@@PADPAPAPADPAK2@Z = .text:0x10008000; // type:function size:0x1D0
?db_free_data@@YAXPAPAD@Z = .text:0x100081D0; // type:function size:0x30
?db_execute_transaction@@YA?AW4LH_RETURN@@PADPAK1PAPAPADPAVLHTransportInfo@@@Z = .text:0x10008200; // type:function size:0x2A0
?IsReceivingHeader@LHFileDownload@@QAEHXZ = .text:0x100084A0; // type:function size:0x10
?IsSendingRequest@LHFileDownload@@QAEHXZ = .text:0x100084B0; // type:function size:0x10
?IsDownloading@LHFileDownload@@QAEHXZ = .text:0x100084C0; // type:function size:0x10
?IsIdle@LHFileDownload@@QAEHXZ = .text:0x100084D0; // type:function size:0x10
?IsWaiting@LHFileDownload@@QAEHXZ = .text:0x100084E0; // type:function size:0x10
?GetTransferSpeed@LHFileDownload@@QAEMXZ = .text:0x100084F0; // type:function size:0x10
?GetFilename@LHFileDownload@@QAEPADXZ = .text:0x10008500; // type:function size:0x10
??4LHFileDownload@@QAEAAV0@ABV0@@Z = .text:0x10008510; // type:function size:0x20
??0LHFileDownload@@QAE@XZ = .text:0x10008530; // type:function size:0x50
??1LHFileDownload@@QAE@XZ = .text:0x10008580; // type:function size:0x80
?DownloadFile@LHFileDownload@@QAE?AW4LH_FILE_DOWNLOAD_RETURNS@@PADG000H@Z = .text:0x10008600; // type:function size:0x180
?GetPercentageDownloaded@LHFileDownload@@QAEMXZ = .text:0x10008780; // type:function size:0x60
?Refresh@LHFileDownload@@QAE?AW4LH_FILE_DOWNLOAD_RETURNS@@XZ = .text:0x100087E0; // type:function size:0x700
?StopDownload@LHFileDownload@@QAEXXZ = .text:0x10008EE0; // type:function size:0x140
fn_10009020 = .text:0x10009020; // type:function size:0x20
??0LHSocket@@QAE@ABV0@@Z = .text:0x10009040; // type:function size:0x60
??4LHSocket@@QAEAAV0@ABV0@@Z = .text:0x100090A0; // type:function size:0x50
?GetSignal@LHSocketTCP@@QAEPAXXZ = .text:0x100090F0; // type:function size:0x10
?IsDisconnected@LHSocketTCP@@QAE_NXZ = .text:0x10009100; // type:function size:0x10
?IsConnected@LHSocketTCP@@QAE_NXZ = .text:0x10009110; // type:function size:0x10
??0LHSocketTCP@@QAE@ABV0@@Z = .text:0x10009120; // type:function size:0x110
??4LHSocketTCP@@QAEAAV0@ABV0@@Z = .text:0x10009230; // type:function size:0x120
??0LHHttp@@QAE@XZ = .text:0x10009350; // type:function size:0x30
??1LHHttp@@QAE@XZ = .text:0x10009380; // type:function size:0x50
?Open@LHHttp@@QAE?AW4LH_RETURN@@PADG@Z = .text:0x100093D0; // type:function size:0x140
?Close@LHHttp@@QAE?AW4LH_RETURN@@XZ = .text:0x10009510; // type:function size:0x40
?SendRequest@LHHttp@@QAE?AW4LH_RETURN@@W4HTTP_REQUEST_TYPE@@PAD@Z = .text:0x10009550; // type:function size:0x1C0
?SendHeader@LHHttp@@QAE?AW4LH_RETURN@@PAD@Z = .text:0x10009710; // type:function size:0xC0
?SendHeaderInternal@LHHttp@@AAE?AW4LH_RETURN@@PAD@Z = .text:0x100097D0; // type:function size:0x70
?SendInternalEndOfRequest@LHHttp@@AAE?AW4LH_RETURN@@H@Z = .text:0x10009840; // type:function size:0x90
?SendEndOfRequest@LHHttp@@QAE?AW4LH_RETURN@@XZ = .text:0x100098D0; // type:function size:0x70
?SendRawData@LHHttp@@QAE?AW4LH_RETURN@@PADKPAK_N@Z = .text:0x10009940; // type:function size:0xE0
?GetDocumentType@LHHttp@@QAE?AW4LH_RETURN@@PAD@Z = .text:0x10009A20; // type:function size:0x30
?GetDocumentSize@LHHttp@@QAE?AW4LH_RETURN@@PAK@Z = .text:0x10009A50; // type:function size:0xE0
?GetDocument@LHHttp@@QAE?AW4LH_RETURN@@PADPAK@Z = .text:0x10009B30; // type:function size:0x160
?GetServerResponseHeader@LHHttp@@QAE?AW4LH_RETURN@@PAG@Z = .text:0x10009C90; // type:function size:0x4A0
?UploadFile@LHHttp@@QAE?AW4LH_RETURN@@PAD0@Z = .text:0x1000A130; // type:function size:0x140
?GetUntilCRLF@LHHttp@@QAE?AW4LH_RETURN@@PADPAK@Z = .text:0x1000A270; // type:function size:0x110
?IsDataAvailable@LHHttp@@QAE?AW4LH_RETURN@@XZ = .text:0x1000A380; // type:function size:0x10
?CheckServerResponseHeader@LHHttp@@QAE?AW4LH_RETURN@@PAGPAW4HTTP_RECEIVED_STATUS@@@Z = .text:0x1000A390; // type:function size:0x280
?ParseURI@LHHttp@@AAE?AW4LH_RETURN@@PAD0PAG0@Z = .text:0x1000A610; // type:function size:0x160
?CleanData@LHHttp@@QAEXXZ = .text:0x1000A770; // type:function size:0xF0
?GetDocumentAsync@LHHttp@@QAE?AW4LH_RETURN@@PADPAK@Z = .text:0x1000A860; // type:function size:0x1B0
?Reset@LHHttpHeaderStatus@@QAEXXZ = .text:0x1000AA10; // type:function size:0xA0
?ParseLocationData@LHHttpHeaderStatus@@QAEXXZ = .text:0x1000AAB0; // type:function size:0x120
?GetLocationHost@LHHttpHeaderStatus@@QAEPADXZ = .text:0x1000ABD0; // type:function size:0x10
?GetLocationURI@LHHttpHeaderStatus@@QAEPADXZ = .text:0x1000ABE0; // type:function size:0x10
?GetLocationPort@LHHttpHeaderStatus@@QAEGXZ = .text:0x1000ABF0; // type:function size:0x10
fn_1000AC00 = .text:0x1000AC00; // type:function size:0x30
?Reset@LHHttpHeaders@@QAEXXZ = .text:0x1000AC30; // type:function size:0x70
?AddHeader@LHHttpHeaders@@QAEXPAD@Z = .text:0x1000ACA0; // type:function size:0x50
?AddHeader@LHHttpHeaders@@QAEXPAD0@Z = .text:0x1000ACF0; // type:function size:0x110
?GetHeader@LHHttpHeaders@@QAEPADPAD@Z = .text:0x1000AE00; // type:function size:0x70
?GetLinkedList@LHHttpHeaders@@QAEPAV?$LHLinkedList@PAD@@XZ = .text:0x1000AE70; // type:function size:0x10
?GetHeaderString@LHHttpHeaders@@QAEPADXZ = .text:0x1000AE80; // type:function size:0xF0
?DeleteHeaderString@LHHttpHeaders@@QAEXXZ = .text:0x1000AF70; // type:function size:0x20
??0LHHttp2@@QAE@XZ = .text:0x1000AF90; // type:function size:0x130
??1LHHttp2@@QAE@XZ = .text:0x1000B0C0; // type:function size:0xA0
?Reset@LHHttp2@@QAEXXZ = .text:0x1000B160; // type:function size:0x140
?Open@LHHttp2@@QAE?AW4LH_RETURN@@PADG@Z = .text:0x1000B2A0; // type:function size:0x190
?Close@LHHttp2@@QAE?AW4LH_RETURN@@XZ = .text:0x1000B430; // type:function size:0x40
?PrepareRequest@LHHttp2@@QAE?AW4LH_HTTP_STATUS@@W4HTTP_REQUEST_TYPE@@PADPAVLHHttpHeaders@@1K@Z = .text:0x1000B470; // type:function size:0x350
?SendRawData@LHHttp2@@QAE?AW4LH_RETURN@@PADKPAK_N@Z = .text:0x1000B7C0; // type:function size:0xE0
?ResetRequest@LHHttp2@@QAEXXZ = .text:0x1000B8A0; // type:function size:0x40
?SendRequestAsync@LHHttp2@@QAE?AW4LH_HTTP_STATUS@@XZ = .text:0x1000B8E0; // type:function size:0x120
?IsDataAvailable@LHHttp2@@QAE?AW4LH_RETURN@@XZ = .text:0x1000BA00; // type:function size:0x20
?ReceiveHeaderAsync@LHHttp2@@QAE?AW4LH_HTTP_STATUS@@XZ = .text:0x1000BA20; // type:function size:0x2D0
?GetHeader@LHHttp2@@QAE?AW4LH_HTTP_STATUS@@AAULHHttpHeaderStatus@@@Z = .text:0x1000BCF0; // type:function size:0x140
?GetUntilCRLF@LHHttp2@@QAE?AW4LH_HTTP_STATUS@@PADPAK@Z = .text:0x1000BE30; // type:function size:0xB0
?ResetDocumentRecv@LHHttp2@@QAEXXZ = .text:0x1000BEE0; // type:function size:0xB0
?ReceiveDocumentAsync@LHHttp2@@QAE?AW4LH_HTTP_STATUS@@XZ = .text:0x1000BF90; // type:function size:0x3F0
?GetDocumentSize@LHHttp2@@QAEKXZ = .text:0x1000C380; // type:function size:0x20
?GetDocument@LHHttp2@@QAE?AW4LH_HTTP_STATUS@@PAD@Z = .text:0x1000C3A0; // type:function size:0x60
?HelperGetDocument@LHHttp2@@QAE?AW4LH_HTTP_STATUS@@_N@Z = .text:0x1000C400; // type:function size:0x180
fn_1000C580 = .text:0x1000C580; // type:function size:0x40
fn_1000C5D0 = .text:0x1000C5D0; // type:function size:0x20
fn_1000C5F0 = .text:0x1000C5F0; // type:function size:0x20
fn_1000C610 = .text:0x1000C610; // type:function size:0x50
fn_1000C660 = .text:0x1000C660; // type:function size:0x10
fn_1000C670 = .text:0x1000C670; // type:function size:0x10
lbl_1000C690 = .text:0x1000C690; // type:label
fn_1000C6B0 = .text:0x1000C6B0; // type:function size:0x40
fn_1000C6F0 = .text:0x1000C6F0; // type:function size:0x10
fn_1000C700 = .text:0x1000C700; // type:function size:0x10
lbl_1000C720 = .text:0x1000C720; // type:label
?ClearAllData@LHLobby@@AAEXXZ = .text:0x1000C740; // type:function size:0x40
?InitLibrary@LHLobby@@SAXXZ = .text:0x1000C780; // type:function size:0x10
?CloseLibrary@LHLobby@@SAXXZ = .text:0x1000C790; // type:function size:0x10
?RequestOnlineStatus@LHLobby@@SAXKPAJPAVLHTransportInfo@@@Z = .text:0x1000C7A0; // type:function size:0x50
?Chat@LHLobby@@SAXULH_USER_ID@@PAVLHTransportInfo@@PAXK@Z = .text:0x1000C7F0; // type:function size:0x50
?Ping@LHLobby@@SAXPAVLHTransportInfo@@@Z = .text:0x1000C840; // type:function size:0x40
?BroadcastEvent@LHLobby@@SAXPAVLHNetEvent@@PAVLHTransportInfo@@@Z = .text:0x1000C880; // type:function size:0x60
??0LHLobby@@QAE@XZ = .text:0x1000C8E0; // type:function size:0x80
?GetGlobalLobby@LHLobby@@QAEPAV1@XZ = .text:0x1000C960; // type:function size:0x10
?ConnectToChannel@LHLobby@@QAE?AW4LH_RETURN@@PAD0W4LH_NET_CHANNEL_MODE@@@Z = .text:0x1000C970; // type:function size:0x70
?BootOtherUsersOffChannel@LHLobby@@QAE?AW4LH_RETURN@@PAD@Z = .text:0x1000C9E0; // type:function size:0x40
?OpenLANLobby@LHLobby@@QAE?AW4LH_RETURN@@PAVLHNetUser@@PAD@Z = .text:0x1000CA20; // type:function size:0x40
?OpenRemoteLobby@LHLobby@@QAE?AW4LH_RETURN@@PAVLHNetUser@@PAVLHTransportInfo@@@Z = .text:0x1000CA60; // type:function size:0x90
?GetUserFile@LHLobby@@SAPBDXZ = .text:0x1000CAF0; // type:function size:0x10
?OpenLocalLobby@LHLobby@@QAE?AW4LH_RETURN@@PAULHMPServerStartInfo@@@Z = .text:0x1000CB00; // type:function size:0x250
?TakeServerOffLan@LHLobby@@SAXXZ = .text:0x1000CD50; // type:function size:0x20
?StopLobbyServerListeningForConnections@LHLobby@@SAXXZ = .text:0x1000CD70; // type:function size:0x20
?PutServerOnLan@LHLobby@@SAXXZ = .text:0x1000CD90; // type:function size:0x20
?SetRegisteredName@LHLobby@@SAPADPBD@Z = .text:0x1000CDB0; // type:function size:0x80
?StartInternalLobbyServer@LHLobby@@AAE?AW4LH_RETURN@@PAULHMPServerStartInfo@@@Z = .text:0x1000CE30; // type:function size:0x160
fn_1000CF90 = .text:0x1000CF90; // type:function size:0xA0
fn_1000D030 = .text:0x1000D030; // type:function size:0x10
fn_1000D040 = .text:0x1000D040; // type:function size:0x20
fn_1000D060 = .text:0x1000D060; // type:function size:0x50
?ProcessEvent@LHLobby@@EAE?AW4LH_RETURN@@PAVLHNetEvent@@@Z = .text:0x1000D0B0; // type:function size:0xFC
lbl_1000D132 = .text:0x1000D132; // type:label
lbl_1000D13B = .text:0x1000D13B; // type:label
lbl_1000D167 = .text:0x1000D167; // type:label
lbl_1000D170 = .text:0x1000D170; // type:label
lbl_1000D179 = .text:0x1000D179; // type:label
lbl_1000D1A6 = .text:0x1000D1A6; // type:label
lbl_1000D1AC = .text:0x1000D1AC; // type:label
lbl_1000D1C8 = .text:0x1000D1C8; // type:label
?WriteChatFile@LHLobby@@SAXPAD00@Z = .text:0x1000D1E0; // type:function size:0xC0
?ProcessLobbyGreeting@LHLobby@@AAE?AW4LH_RETURN@@PAVLHNetEvent@@@Z = .text:0x1000D2A0; // type:function size:0xD0
?ProcessLobbyEjectedFromChannel@LHLobby@@AAE?AW4LH_RETURN@@PAVLHNetEvent@@@Z = .text:0x1000D370; // type:function size:0xA0
?ProcessLobbyChannelListInfo@LHLobby@@AAE?AW4LH_RETURN@@PAVLHNetEvent@@@Z = .text:0x1000D410; // type:function size:0x30
?ProcessLobbyPlayerList@LHLobby@@AAE?AW4LH_RETURN@@PAVLHNetEvent@@@Z = .text:0x1000D440; // type:function size:0x170
?ProcessLobbyStartMServe@LHLobby@@AAE?AW4LH_RETURN@@PAVLHNetEvent@@@Z = .text:0x1000D5B0; // type:function size:0xC0
?StartInternalMessageServer@LHLobby@@AAE?AW4LH_RETURN@@PAVLHLobbyChannel@@KW4LH_OPERATING_MODE@@KQAY0DA@GQAULH_USER_ID@@@Z = .text:0x1000D670; // type:function size:0xE0
?StartInternalMessageServer@LHLobby@@SAPAVLHMessageServer@@PAVLHNetUser@@PADKKW4LH_OPERATING_MODE@@KQAY0DA@GQAULH_USER_ID@@@Z = .text:0x1000D750; // type:function size:0x250
fn_1000D9A0 = .text:0x1000D9A0; // type:function size:0x110
fn_1000DAB0 = .text:0x1000DAB0; // type:function size:0x20
fn_1000DAD0 = .text:0x1000DAD0; // type:function size:0x100
?ProcessLobbyUserFile@LHLobby@@AAE?AW4LH_RETURN@@PAVLHNetEvent@@@Z = .text:0x1000DBD0; // type:function size:0x80
?SendStartMServeResult@LHLobby@@AAE?AW4LH_RETURN@@PADHPAVLHTransportInfo@@W4LH_OPERATING_MODE@@@Z = .text:0x1000DC50; // type:function size:0x50
?ProcessLobbyConnectToMServe@LHLobby@@AAE?AW4LH_RETURN@@PAVLHNetEvent@@@Z = .text:0x1000DCA0; // type:function size:0x340
lbl_1000DFE0 = .text:0x1000DFE0; // type:label
?ProcessConnectionClosed@LHLobby@@AAE?AW4LH_RETURN@@XZ = .text:0x1000DFF0; // type:function size:0x20
?ProcessLobbyUserFilesTransferComplete@LHLobby@@AAE?AW4LH_RETURN@@PAVLHNetEvent@@@Z = .text:0x1000E010; // type:function size:0x40
?CheckSessionReady@LHLobby@@QAE?AW4LH_RETURN@@PAVLHLobbyChannel@@@Z = .text:0x1000E050; // type:function size:0xB0
?ProcessInternalLobbyNewLocalLobbyList@LHLobby@@AAE?AW4LH_RETURN@@PAVLHNetEvent@@@Z = .text:0x1000E100; // type:function size:0x410
?ConnectToPlayer@LHLobby@@QAE?AW4LH_RETURN@@PAVLHPlayer@@PAVLHP2P@@@Z = .text:0x1000E510; // type:function size:0x10
??1LHLobby@@UAE@XZ = .text:0x1000E520; // type:function size:0x60
?Close@LHLobby@@UAEXXZ = .text:0x1000E580; // type:function size:0x110
?ClearInternalLobbyServer@LHLobby@@SAXXZ = .text:0x1000E690; // type:function size:0x100
?ClearAllData@LHLobbyChannel@@AAEXXZ = .text:0x1000E790; // type:function size:0x30
??1LHLobbyChannel@@UAE@XZ = .text:0x1000E7C0; // type:function size:0x50
?ClearInternalMessageServer@LHLobbyChannel@@QAEXXZ = .text:0x1000E810; // type:function size:0x80
?FindOrCreateChannel@LHLobbyChannel@@SAPAV1@PADPAVLHLobby@@PAV?$LHLinkedList@PAVLHLobbyChannel@@@@@Z = .text:0x1000E890; // type:function size:0xF0
?StartGame@LHLobbyChannel@@QAE?AW4LH_RETURN@@KKPAX@Z = .text:0x1000E980; // type:function size:0x40
?RequestMGJ@LHLobbyChannel@@QAEXH@Z = .text:0x1000E9C0; // type:function size:0x40
?MGJInProgress@LHLobbyChannel@@QAEHXZ = .text:0x1000EA00; // type:function size:0x20
?SendMGJResponse@LHLobbyChannel@@QAE?AW4LH_RETURN@@HULH_USER_ID@@PAD@Z = .text:0x1000EA20; // type:function size:0x50
?ChatOnChannel@LHLobbyChannel@@QAE?AW4LH_RETURN@@PAXKULH_USER_ID@@_N@Z = .text:0x1000EA70; // type:function size:0x50
?LeaveChannel@LHLobby@@QAE?AW4LH_RETURN@@PAVLHLobbyChannel@@@Z = .text:0x1000EAC0; // type:function size:0xA0
?GetBroadcastListenerInfo@LHLobby@@QAEPAVLHTransportInfo@@XZ = .text:0x1000EB60; // type:function size:0x20
?GetConnectionAcceptorInfo@LHLobby@@QAEPAVLHTransportInfo@@XZ = .text:0x1000EB80; // type:function size:0x20
?GetInternalLobbyName@LHLobby@@QAEPADXZ = .text:0x1000EBA0; // type:function size:0x20
?GetNextLocalLobby@LHLobby@@SAPAVLHLocalLobbyInfo@@PAV2@@Z = .text:0x1000EBC0; // type:function size:0x40
?FindLocalLobby@LHLobby@@SAPAVLHLocalLobbyInfo@@PAD@Z = .text:0x1000EC00; // type:function size:0x70
?GetChatOnChannelInfo@LHLobby@@QAE?AW4LH_RETURN@@PAVLHNetEvent@@PAPAVLHLobbyChannel@@PAPAVLHPlayer@@PAPAXPAH@Z = .text:0x1000EC70; // type:function size:0xB0
?GetChatDataLength@LHLobby@@QAE?AW4LH_RETURN@@PAVLHNetEvent@@PAK@Z = .text:0x1000ED20; // type:function size:0x80
?GetLANPlayers@LHLobby@@SAPAV?$LHLinkedList@PAVLHPlayer@@@@PAVLHLocalLobbyInfo@@@Z = .text:0x1000EDA0; // type:function size:0x20
?GetNumberOfPlayersOnDefaultChannel@LHLobby@@SAKPAVLHLocalLobbyInfo@@@Z = .text:0x1000EDC0; // type:function size:0x20
?ShutdownInternalLobbyServer@LHLobby@@SAXXZ = .text:0x1000EDE0; // type:function size:0x1A0
fn_1000EF80 = .text:0x1000EF80; // type:function size:0x20
?GetInternalLobbyType@LHLobby@@SA?AW4CATEGORY@LH_USER_ID@@XZ = .text:0x1000EFA0; // type:function size:0x20
?SendUserFileToServer@LHLobby@@QAE?AW4LH_RETURN@@PAD@Z = .text:0x1000EFC0; // type:function size:0x40
?FeedbackLastError@LHLobby@@QAEXPAD@Z = .text:0x1000F000; // type:function size:0x40
?FindPlayerBroadcastInfo@LHLobby@@SAPAVLHTransportInfo@@ULH_USER_ID@@@Z = .text:0x1000F040; // type:function size:0x50
fn_1000F090 = .text:0x1000F090; // type:function size:0x10
fn_1000F0D0 = .text:0x1000F0D0; // type:function size:0x10
fn_1000F140 = .text:0x1000F140; // type:function size:0x20
fn_1000F160 = .text:0x1000F160; // type:function size:0x20
fn_1000F180 = .text:0x1000F180; // type:function size:0xF0
fn_1000F270 = .text:0x1000F270; // type:function size:0x100
fn_1000F370 = .text:0x1000F370; // type:function size:0xA0
fn_1000F410 = .text:0x1000F410; // type:function
fn_1000F420 = .text:0x1000F420; // type:function
fn_1000F440 = .text:0x1000F440; // type:function size:0x60
fn_1000F4A0 = .text:0x1000F4A0; // type:function size:0x50
fn_1000F550 = .text:0x1000F550; // type:function size:0x60
fn_1000F5B0 = .text:0x1000F5B0; // type:function size:0x50
fn_1000F600 = .text:0x1000F600; // type:function size:0x228
lbl_1000F657 = .text:0x1000F657; // type:label
lbl_1000F665 = .text:0x1000F665; // type:label
lbl_1000F66E = .text:0x1000F66E; // type:label
lbl_1000F684 = .text:0x1000F684; // type:label
lbl_1000F6A3 = .text:0x1000F6A3; // type:label
lbl_1000F7B4 = .text:0x1000F7B4; // type:label
lbl_1000F7C3 = .text:0x1000F7C3; // type:label
lbl_1000F7D2 = .text:0x1000F7D2; // type:label
lbl_1000F7E1 = .text:0x1000F7E1; // type:label
lbl_1000F7F0 = .text:0x1000F7F0; // type:label
lbl_1000F7FF = .text:0x1000F7FF; // type:label
lbl_1000F80D = .text:0x1000F80D; // type:label
lbl_1000F81C = .text:0x1000F81C; // type:label
lbl_1000F828 = .text:0x1000F828; // type:label
lbl_1000F83C = .text:0x1000F83C; // type:label
lbl_1000F85C = .text:0x1000F85C; // type:label
fn_1000F890 = .text:0x1000F890; // type:function size:0xE0
fn_1000F970 = .text:0x1000F970; // type:function size:0x50
fn_1000F9C0 = .text:0x1000F9C0; // type:function size:0x160
fn_1000FB20 = .text:0x1000FB20; // type:function size:0xD0
fn_1000FBF0 = .text:0x1000FBF0; // type:function size:0x70
fn_1000FEC0 = .text:0x1000FEC0; // type:function size:0x40
fn_1000FF00 = .text:0x1000FF00; // type:function size:0x60
fn_1000FFF0 = .text:0x1000FFF0; // type:function size:0x30
fn_100100F0 = .text:0x100100F0; // type:function size:0x260
fn_10010350 = .text:0x10010350; // type:function size:0xB0
fn_10010400 = .text:0x10010400; // type:function size:0x20
fn_10010420 = .text:0x10010420; // type:function size:0x200
fn_10010620 = .text:0x10010620; // type:function size:0xE0
fn_10010700 = .text:0x10010700; // type:function size:0x40
fn_10010740 = .text:0x10010740; // type:function size:0xB0
fn_100107F0 = .text:0x100107F0; // type:function size:0x50
fn_10010840 = .text:0x10010840; // type:function size:0x180
fn_10010B90 = .text:0x10010B90; // type:function size:0xA0
fn_10010C30 = .text:0x10010C30; // type:function size:0x160
fn_10011130 = .text:0x10011130; // type:function size:0x50
fn_10011180 = .text:0x10011180; // type:function size:0x50
fn_100111D0 = .text:0x100111D0; // type:function size:0xE0
fn_10011330 = .text:0x10011330; // type:function size:0x120
fn_10011450 = .text:0x10011450; // type:function size:0x10
fn_10011460 = .text:0x10011460; // type:function size:0x40
fn_100114A0 = .text:0x100114A0; // type:function size:0x50
fn_100114F0 = .text:0x100114F0; // type:function size:0x110
fn_10011600 = .text:0x10011600; // type:function size:0x20
fn_10011620 = .text:0x10011620; // type:function size:0x10
fn_10011630 = .text:0x10011630; // type:function size:0x20
fn_100116F0 = .text:0x100116F0; // type:function size:0x70
fn_10011760 = .text:0x10011760; // type:function size:0x60
fn_100117C0 = .text:0x100117C0; // type:function size:0xE0
fn_100118A0 = .text:0x100118A0; // type:function size:0xD0
lbl_10011970 = .text:0x10011970; // type:label
fn_10011A20 = .text:0x10011A20; // type:function size:0x20
fn_10011A40 = .text:0x10011A40; // type:function size:0x30
fn_10011A70 = .text:0x10011A70; // type:function size:0x20
fn_10011A90 = .text:0x10011A90; // type:function size:0x10
fn_10011AA0 = .text:0x10011AA0; // type:function size:0x10
fn_10011AB0 = .text:0x10011AB0; // type:function size:0x30
fn_10011AE0 = .text:0x10011AE0; // type:function size:0x10
fn_10011AF0 = .text:0x10011AF0; // type:function size:0x20
lbl_10011B20 = .text:0x10011B20; // type:label
fn_0x10011b25 = .text:0x10011B25; // type:function size:0x6
fn_10011B30 = .text:0x10011B30; // type:function
fn_10011B70 = .text:0x10011B70; // type:function size:0x20
??0LHPOP3Mail@@QAE@XZ = .text:0x10011B90; // type:function size:0x50
??4LHPOP3Mail@@QAEAAV0@ABV0@@Z = .text:0x10011BE0; // type:function size:0x20
??0LHPOP3Line@@QAE@XZ = .text:0x10011C00; // type:function size:0x10
??1LHPOP3Line@@QAE@XZ = .text:0x10011C10; // type:function size:0x20
??4LHPOP3Line@@QAEAAV0@ABV0@@Z = .text:0x10011C30; // type:function size:0x20
?GetNrOfNewMails@LHPOP3@@QAEKXZ = .text:0x10011C50; // type:function size:0x10
?GetNrofAllMails@LHPOP3@@QAEKXZ = .text:0x10011C60; // type:function size:0x10
??4LHPOP3@@QAEAAV0@ABV0@@Z = .text:0x10011C70; // type:function size:0x20
?GetCurrentCheckStatus@LHMail@@QAE_NXZ = .text:0x10011C90; // type:function size:0x10
?GetMailCount@LHMail@@QAEKXZ = .text:0x10011CA0; // type:function size:0x10
?SetSystemState@LHMail@@QAEX_N@Z = .text:0x10011CB0; // type:function size:0x10
?GetContactList@LHMail@@QAEPAV?$LHLinkedList@PAULHMailContacts@@@@XZ = .text:0x10011CC0; // type:function size:0x10
?SetCheckTime@LHMail@@QAEXK@Z = .text:0x10011CD0; // type:function size:0x10
?GetCheckTime@LHMail@@QAEKXZ = .text:0x10011CE0; // type:function size:0x10
??0LHMail@@QAE@ABV0@@Z = .text:0x10011CF0; // type:function size:0x70
??4LHMail@@QAEAAV0@ABV0@@Z = .text:0x10011D60; // type:function size:0x70
fn_10011DF0 = .text:0x10011DF0; // type:function size:0x60
??0LHMailOutlook@@QAE@ABV0@@Z = .text:0x10011E50; // type:function size:0xC0
??4LHMailOutlook@@QAEAAV0@ABV0@@Z = .text:0x10011F10; // type:function size:0xC0
fn_10011FF0 = .text:0x10011FF0; // type:function size:0x60
??0LHMailPOP3@@QAE@ABV0@@Z = .text:0x10012050; // type:function size:0xC0
??4LHMailPOP3@@QAEAAV0@ABV0@@Z = .text:0x10012110; // type:function size:0xD0
fn_10012200 = .text:0x10012200; // type:function size:0x60
?InetLogging@@YAXPAD@Z = .text:0x10012260; // type:function size:0x40
fn_100122A0 = .text:0x100122A0; // type:function size:0x70
?DecodeMemory@LHMail@@SAXPADPAPADPAK@Z = .text:0x10012310; // type:function size:0xC0
?EncodeMemory@LHMail@@SAXPADPAPADPAKD@Z = .text:0x100123D0; // type:function size:0x190
??0LHMail@@QAE@PAD@Z = .text:0x10012560; // type:function size:0x90
??1LHMail@@UAE@XZ = .text:0x100125F0; // type:function size:0x50
?SetAddressBookFile@LHMail@@QAEXPAD_N@Z = .text:0x10012640; // type:function size:0x70
?GetNextMail@LHMail@@QAEPAULHMailEmail@@XZ = .text:0x100126B0; // type:function size:0x20
?DeleteMailFromQ@LHMail@@QAEXPAULHMailEmail@@@Z = .text:0x100126D0; // type:function size:0x60
?LookUpNameInContactList@LHMail@@IAE_NPAD@Z = .text:0x10012730; // type:function size:0x70
?LookUpNameInMailQueue@LHMail@@IAE_NPAD@Z = .text:0x100127A0; // type:function size:0x70
?AddNameToContactList@LHMail@@QAE_NPAULHMailContacts@@@Z = .text:0x10012810; // type:function size:0x30
?AddNewMailToList@LHMail@@IAE_NPAULHMailEmail@@@Z = .text:0x10012840; // type:function size:0x100
?CleanUp@LHMail@@QAEXXZ = .text:0x10012940; // type:function size:0xB0
?SavePersonalAddressBook@LHMail@@IAE_NPAD@Z = .text:0x100129F0; // type:function size:0x150
?LoadPersonalAddressBook@LHMail@@IAE_NPAD@Z = .text:0x10012B40; // type:function size:0x1C0
?CheckMails@LHMail@@QAE?AW4LH_RETURN@@XZ = .text:0x10012D00; // type:function size:0x50
?GetContactNames@LHMail@@QAE_NPAK@Z = .text:0x10012D50; // type:function size:0x50
?ReloadSystem@LHMail@@QAE_NPAD@Z = .text:0x10012DA0; // type:function size:0x60
?DeleteEnDeCodePointer@LHMail@@SAXPAD@Z = .text:0x10012E00; // type:function size:0x10
?InitDriver@LHMail@@QAE_NXZ = .text:0x10012E10; // type:function size:0x20
?ReadRegistrySettings@LHMail@@QAEXXZ = .text:0x10012E30; // type:function size:0x20
?CheckForOutlook@LHMailOutlook@@SA_NXZ = .text:0x10012E50; // type:function size:0x180
?InitOutlook@LHMailOutlook@@QAE_NXZ = .text:0x10012FD0; // type:function size:0xA0
?CleanUpOutlook@LHMailOutlook@@QAE_NXZ = .text:0x10013070; // type:function size:0x40
??0LHMailOutlook@@QAE@PAD@Z = .text:0x100130B0; // type:function size:0x20
??1LHMailOutlook@@UAE@XZ = .text:0x100130D0; // type:function size:0x50
?CallInitDriver@LHMailOutlook@@UAE_NXZ = .text:0x10013120; // type:function size:0x10
?CleanUpDriver@LHMailOutlook@@UAE_NXZ = .text:0x10013130; // type:function size:0x10
?DriverCheckMails@LHMailOutlook@@UAE?AW4LH_RETURN@@XZ = .text:0x10013140; // type:function size:0x140
?DriverGetContactNames@LHMailOutlook@@UAE_NPAK@Z = .text:0x10013280; // type:function size:0xA0
?ReloadDriver@LHMailOutlook@@UAE_NXZ = .text:0x10013320; // type:function size:0x10
??0LHMailPOP3@@QAE@PAD@Z = .text:0x10013330; // type:function size:0x30
??1LHMailPOP3@@UAE@XZ = .text:0x10013360; // type:function size:0x50
?InitPOP3@LHMailPOP3@@QAE_NXZ = .text:0x100133B0; // type:function size:0x180
?CleanUpPOP3@LHMailPOP3@@QAE_NXZ = .text:0x10013530; // type:function size:0x90
?DriverCheckMails@LHMailPOP3@@UAE?AW4LH_RETURN@@XZ = .text:0x100135C0; // type:function size:0x3AE
lbl_10013631 = .text:0x10013631; // type:label
lbl_10013685 = .text:0x10013685; // type:label
lbl_100136D6 = .text:0x100136D6; // type:label
lbl_10013767 = .text:0x10013767; // type:label
lbl_1001390E = .text:0x1001390E; // type:label
lbl_10013940 = .text:0x10013940; // type:label
lbl_10013959 = .text:0x10013959; // type:label
lbl_10013970 = .text:0x10013970; // type:label
?DriverGetContactNames@LHMailPOP3@@UAE_NPAK@Z = .text:0x10013990; // type:function size:0x10
?CallInitDriver@LHMailPOP3@@UAE_NXZ = .text:0x100139A0; // type:function size:0x10
?CleanUpDriver@LHMailPOP3@@UAE_NXZ = .text:0x100139B0; // type:function size:0x10
?ReloadDriver@LHMailPOP3@@UAE_NXZ = .text:0x100139C0; // type:function size:0x10
?LHLoadInGameEmailSystem@@YAPAVLHMail@@PAD@Z = .text:0x100139D0; // type:function size:0x120
fn_10013B00 = .text:0x10013B00; // type:function size:0x70
fn_10013B80 = .text:0x10013B80; // type:function size:0x40
fn_10013BD0 = .text:0x10013BD0; // type:function size:0x20
fn_10013BF0 = .text:0x10013BF0; // type:function size:0x90
fn_10013C80 = .text:0x10013C80; // type:function size:0x130
fn_10013DB0 = .text:0x10013DB0; // type:function size:0x140
fn_10013EF0 = .text:0x10013EF0; // type:function size:0x50
fn_10013F40 = .text:0x10013F40; // type:function size:0x175
lbl_1001404A = .text:0x1001404A; // type:label
lbl_10014065 = .text:0x10014065; // type:label
lbl_10014075 = .text:0x10014075; // type:label
lbl_10014083 = .text:0x10014083; // type:label
lbl_10014091 = .text:0x10014091; // type:label
lbl_1001409D = .text:0x1001409D; // type:label
lbl_100140AB = .text:0x100140AB; // type:label
lbl_100140B8 = .text:0x100140B8; // type:label
fn_100140E0 = .text:0x100140E0; // type:function size:0x90
fn_10014170 = .text:0x10014170; // type:function size:0xF0
fn_10014260 = .text:0x10014260; // type:function size:0x240
fn_100144A0 = .text:0x100144A0; // type:function size:0x260
fn_10014700 = .text:0x10014700; // type:function size:0x1C0
fn_100148C0 = .text:0x100148C0; // type:function size:0x50
fn_10014910 = .text:0x10014910; // type:function size:0x30
fn_10014940 = .text:0x10014940; // type:function size:0x40
fn_10014980 = .text:0x10014980; // type:function size:0x210
fn_10014B90 = .text:0x10014B90; // type:function size:0xF0
fn_10014C80 = .text:0x10014C80; // type:function size:0x10
fn_10014C90 = .text:0x10014C90; // type:function size:0xE0
fn_10014E50 = .text:0x10014E50; // type:function size:0x80
fn_10014ED0 = .text:0x10014ED0; // type:function size:0xD0
fn_10014FA0 = .text:0x10014FA0; // type:function size:0x50
fn_10014FF0 = .text:0x10014FF0; // type:function size:0x260
fn_10015250 = .text:0x10015250; // type:function size:0xA0
lbl_10015430 = .text:0x10015430; // type:label
fn_100154F0 = .text:0x100154F0; // type:function size:0x3F0
fn_100158E0 = .text:0x100158E0; // type:function size:0x40
fn_10015920 = .text:0x10015920; // type:function size:0x10
fn_10015930 = .text:0x10015930; // type:function size:0x30
fn_10015960 = .text:0x10015960; // type:function size:0x10
fn_10015970 = .text:0x10015970; // type:function size:0x20
lbl_100159A0 = .text:0x100159A0; // type:label
fn_0x100159a5 = .text:0x100159A5; // type:function size:0x6
fn_100159B0 = .text:0x100159B0; // type:function
fn_10015A10 = .text:0x10015A10; // type:function size:0x50
fn_10015A60 = .text:0x10015A60; // type:function size:0x30
fn_10015A90 = .text:0x10015A90; // type:function size:0x20
?Open@LHMPPacketSave@@QAEXW4LH_PACKET_SOURCE@@PAVLHSession@@@Z = .text:0x10015AB0; // type:function size:0xC0
?ProcessHeader@LHMPPacketSave@@QAEXPAVLHSession@@@Z = .text:0x10015B70; // type:function size:0x340
?RestoreOriginalPlayerList@LHMPPacketSave@@QAEXPAVLHSession@@@Z = .text:0x10015EB0; // type:function size:0x60
?CheckSavedPacketsAvail@LHMPPacketSave@@SA?AW4LH_RETURN@@PAULHReplayPacketInfo@@@Z = .text:0x10015F10; // type:function size:0x80
?ReadEventFromFile@LHMPPacketSave@@QAEPAVLHNetEvent@@XZ = .text:0x10015F90; // type:function size:0x100
?WriteEventToFile@LHMPPacketSave@@QAEXPAVLHNetEvent@@@Z = .text:0x10016090; // type:function size:0x50
?UpdateInfoBlock@LHMPPacketSave@@QAEXXZ = .text:0x100160E0; // type:function size:0x90
?Close@LHMPPacketSave@@QAEXXZ = .text:0x10016170; // type:function size:0x20
fn_10016190 = .text:0x10016190; // type:function size:0x50
fn_100161E0 = .text:0x100161E0; // type:function size:0x20
?SetPacketHeader@LHNetEvent@@QAE?AW4LH_RETURN@@W4LH_NETEVENT_TYPE@@ULH_USER_ID@@@Z = .text:0x10016200; // type:function size:0x20
??1LHNetEvent@@QAE@XZ = .text:0x10016220; // type:function size:0x10
?CreateFromPacket@LHNetEvent@@SAPAV1@PAVLHPacket@@@Z = .text:0x10016230; // type:function size:0xA0
?CreateFromEvent@LHNetEvent@@SAPAV1@PAV1@@Z = .text:0x100162D0; // type:function size:0xA0
?CreateSimple@LHNetEvent@@SAPAV1@W4LH_NETEVENT_TYPE@@ULH_USER_ID@@KPAX@Z = .text:0x10016370; // type:function size:0xD0
?VCreate@LHNetEvent@@SAPAV1@W4LH_NETEVENT_TYPE@@ULH_USER_ID@@ZZ = .text:0x10016440; // type:function size:0x30
?VCreate@LHNetEvent@@SAPAV1@JPAULHNetMessageFormatDescriptor@@ZZ = .text:0x10016470; // type:function size:0x40
?VDecode@LHNetEvent@@QAA?AW4LH_RETURN@@W4LH_NETEVENT_TYPE@@ZZ = .text:0x100164B0; // type:function size:0x50
?VDecode@LHNetEvent@@QAA?AW4LH_RETURN@@JPAULHNetMessageFormatDescriptor@@ZZ = .text:0x10016500; // type:function size:0x30
?RawCreate@LHNetEvent@@SAPAV1@ULH_USER_ID@@W4LH_NETEVENT_TYPE@@PAD2@Z = .text:0x10016530; // type:function size:0x4AA
lbl_100165B3 = .text:0x100165B3; // type:label
lbl_100165BE = .text:0x100165BE; // type:label
lbl_100165EB = .text:0x100165EB; // type:label
lbl_10016607 = .text:0x10016607; // type:label
lbl_10016612 = .text:0x10016612; // type:label
lbl_10016624 = .text:0x10016624; // type:label
lbl_10016635 = .text:0x10016635; // type:label
lbl_10016676 = .text:0x10016676; // type:label
lbl_100166AC = .text:0x100166AC; // type:label
lbl_100166BA = .text:0x100166BA; // type:label
lbl_100166C0 = .text:0x100166C0; // type:label
lbl_10016719 = .text:0x10016719; // type:label
lbl_10016782 = .text:0x10016782; // type:label
lbl_10016795 = .text:0x10016795; // type:label
lbl_100167A8 = .text:0x100167A8; // type:label
lbl_100167CA = .text:0x100167CA; // type:label
lbl_1001681D = .text:0x1001681D; // type:label
lbl_1001684D = .text:0x1001684D; // type:label
lbl_10016899 = .text:0x10016899; // type:label
lbl_100168B1 = .text:0x100168B1; // type:label
lbl_10016912 = .text:0x10016912; // type:label
lbl_1001695C = .text:0x1001695C; // type:label
lbl_10016971 = .text:0x10016971; // type:label
lbl_1001697F = .text:0x1001697F; // type:label
lbl_100169DC = .text:0x100169DC; // type:label
lbl_10016A0C = .text:0x10016A0C; // type:label
lbl_10016A28 = .text:0x10016A28; // type:label
lbl_10016A5C = .text:0x10016A5C; // type:label
?RawDecode@LHNetEvent@@QAE?AW4LH_RETURN@@PAD0@Z = .text:0x10016A80; // type:function size:0x1DA
lbl_10016AC5 = .text:0x10016AC5; // type:label
lbl_10016AD7 = .text:0x10016AD7; // type:label
lbl_10016AE9 = .text:0x10016AE9; // type:label
lbl_10016B01 = .text:0x10016B01; // type:label
lbl_10016B35 = .text:0x10016B35; // type:label
lbl_10016B6F = .text:0x10016B6F; // type:label
lbl_10016B98 = .text:0x10016B98; // type:label
lbl_10016BAA = .text:0x10016BAA; // type:label
lbl_10016BBF = .text:0x10016BBF; // type:label
lbl_10016BDC = .text:0x10016BDC; // type:label
lbl_10016BEE = .text:0x10016BEE; // type:label
lbl_10016BFB = .text:0x10016BFB; // type:label
lbl_10016C13 = .text:0x10016C13; // type:label
lbl_10016C27 = .text:0x10016C27; // type:label
lbl_10016C5C = .text:0x10016C5C; // type:label
lbl_10016C94 = .text:0x10016C94; // type:label
?CreateMServeSuperPacket@LHNetEvent@@SAPAV1@ULH_USER_ID@@JPAV?$LHDynamicQueue@PAVLHNetEvent@@@@H@Z = .text:0x10016CD0; // type:function size:0x1D0
?CreateEmptyMServeSuperPacket@LHNetEvent@@SAPAV1@ULH_USER_ID@@J@Z = .text:0x10016EA0; // type:function size:0xA0
?DecodeMServeSuperPacket@LHNetEvent@@QAE?AW4LH_RETURN@@PAV?$LHDynamicQueue@PAVLHNetEvent@@@@PAJ@Z = .text:0x10016F40; // type:function size:0x120
?GetNetGameTurn@LHNetEvent@@QAEJXZ = .text:0x10017060; // type:function size:0x20
?GetNumberOfPlayerEvents@LHNetEvent@@QAEKXZ = .text:0x10017080; // type:function size:0x20
?SetUDPinfo@LHNetEvent@@QAEXPAVLHTransportInfo@@@Z = .text:0x100170A0; // type:function size:0x40
?DecodeDataPacket@LHNetEvent@@SA?AW4LH_RETURN@@PAV1@PAKPAPAXPAH@Z = .text:0x100170E0; // type:function size:0x40
fn_10017120 = .text:0x10017120; // type:function size:0x20
fn_10017140 = .text:0x10017140; // type:function size:0x1A0
?ClearAllData@LHLocalLobbyInfo@@QAEXXZ = .text:0x100172E0; // type:function size:0x180
??0LHLocalLobbyInfo@@QAE@PAV0@@Z = .text:0x10017460; // type:function size:0xC0
?Initialise@LHLocalLobbyInfo@@QAEXPADPAVLHTransportInfo@@1PAV?$LHLinkedList@PAVLHPlayer@@@@W4CATEGORY@LH_USER_ID@@H@Z = .text:0x10017520; // type:function size:0xB0
?UpdateLocalLobbyInfoDetails@LHLocalLobbyInfo@@QAEHPAV1@@Z = .text:0x100175D0; // type:function size:0x160
??1LHLocalLobbyInfo@@QAE@XZ = .text:0x10017730; // type:function size:0xB0
?GetEncodedLength@LHLocalLobbyInfo@@UAEKKPAX@Z = .text:0x100177E0; // type:function size:0x60
?EncodeToBuffer@LHLocalLobbyInfo@@UAEPAEPAEKPAX@Z = .text:0x10017840; // type:function size:0xA0
?DecodeFromBuffer@LHLocalLobbyInfo@@UAEPAEPAE@Z = .text:0x100178E0; // type:function size:0xA0
?ClearObject@LHLocalLobbyInfo@@UAEXXZ = .text:0x10017980; // type:function size:0x10
fn_100179A0 = .text:0x100179A0; // type:function size:0x20
?ClearAllData@LHNetUser@@AAEXXZ = .text:0x10017A00; // type:function size:0x50
?Logout@LHNetUser@@QAEXXZ = .text:0x10017A50; // type:function size:0x40
?SetUserDetails@LHNetUser@@AAE?AW4LH_RETURN@@PAGPAD@Z = .text:0x10017A90; // type:function size:0x50
??1LHNetUser@@QAE@XZ = .text:0x10017AE0; // type:function size:0x30
?Login@LHNetUser@@QAE?AW4LH_RETURN@@PAD0@Z = .text:0x10017B10; // type:function size:0xE0
?Login@LHNetUser@@QAE?AW4LH_RETURN@@PAD0PAVLHTransportInfo@@@Z = .text:0x10017BF0; // type:function size:0x2D0
?SendLogin@LHNetUser@@QAE?AW4LH_RETURN@@PAD0PAVLHTransportInfo@@@Z = .text:0x10017EC0; // type:function size:0x150
?ParseUserData@LHNetUser@@AAE?AW4LH_RETURN@@PADPAK@Z = .text:0x10018010; // type:function size:0x100
?CheckLogin@LHNetUser@@QAE?AW4LH_LOGIN_CHECK@@XZ = .text:0x10018110; // type:function size:0x1D0
?Login@LHNetUser@@QAE?AW4LH_RETURN@@PAV1@W4CATEGORY@LH_USER_ID@@@Z = .text:0x100182E0; // type:function size:0x70
fn_10018350 = .text:0x10018350; // type:function size:0x20
?LHNetFindLocalLobby@@YAPAVLHLocalLobbyInfo@@PAV?$LHLinkedList@PAVLHLocalLobbyInfo@@@@PAVLHTransportInfo@@@Z = .text:0x10018370; // type:function size:0x50
?LHNetFindLocalLobby@@YAPAVLHLocalLobbyInfo@@PAV?$LHLinkedList@PAVLHLocalLobbyInfo@@@@PAD@Z = .text:0x100183C0; // type:function size:0x60
?LHNetIsDisconnectionStatus@@YAHW4LH_NET_LOG_ERROR_LIST@@@Z = .text:0x10018420; // type:function size:0x20
?LHNetGetEncodedStringListLength@@YAKPAV?$LHLinkedList@PAD@@@Z = .text:0x10018440; // type:function size:0x40
?LHNetEncodeStringList@@YAPAEPAEPAV?$LHLinkedList@PAD@@@Z = .text:0x10018480; // type:function size:0x80
?LHNetDecodeStringList@@YAPAEPAEPAV?$LHLinkedList@PAD@@@Z = .text:0x10018500; // type:function size:0xC0
?LHNetGetFormatDescriptor@@YAPADJPAULHNetMessageFormatDescriptor@@@Z = .text:0x100185C0; // type:function size:0x40
fn_10018600 = .text:0x10018600; // type:function size:0x40
?LHNetGetEncodedFileLength@@YAKPAD@Z = .text:0x10018640; // type:function size:0x90
?LHNetEncodeFile@@YAPAEPAEULH_USER_ID@@PAD@Z = .text:0x100186D0; // type:function size:0x170
?LHNetGetNetEventLength@@YAKPAVLHNetEvent@@@Z = .text:0x10018840; // type:function size:0x20
?LHNetDecodeNetEvent@@YAPAEPAEPAPAVLHNetEvent@@@Z = .text:0x10018860; // type:function size:0x30
?LHNetEncodeNetEvent@@YAPAEPAEPAVLHNetEvent@@@Z = .text:0x10018890; // type:function size:0x40
?LHNetDecodeFile@@YAPAEPAEPAPADPAULH_USER_ID@@@Z = .text:0x100188D0; // type:function size:0x100
?LHNetGetCurrentUsedProfile@@YAPAGXZ = .text:0x100189D0; // type:function size:0x10
?LHNetCreateDefaultProfile@@YAPAGPAG@Z = .text:0x100189E0; // type:function size:0xF0
?LHNetUseProfile@@YAXPAG@Z = .text:0x10018AD0; // type:function size:0x60
?LHNetGetCurrentProfileNameFromRegistry@@YAPAGXZ = .text:0x10018B30; // type:function size:0x80
?LHNetSaveDefaultProfileNameInRegistry@@YA?AW4LH_RETURN@@PAG@Z = .text:0x10018BB0; // type:function size:0x40
?LHNetCheckProfileExists@@YAHPAG@Z = .text:0x10018BF0; // type:function size:0x70
?LHNetGetCurrentProfileUlong@@YA?AW4LH_RETURN@@PADPAK@Z = .text:0x10018C60; // type:function size:0x70
?LHNetGetCurrentProfileString@@YA?AW4LH_RETURN@@PAD0PAK@Z = .text:0x10018CD0; // type:function size:0x70
?LHNetGetCurrentProfileWString@@YA?AW4LH_RETURN@@PADPAGPAK@Z = .text:0x10018D40; // type:function size:0x70
?LHNetGetCurrentProfileDouble@@YA?AW4LH_RETURN@@PADPAN@Z = .text:0x10018DB0; // type:function size:0x70
?LHNetGetCurrentProfileData@@YA?AW4LH_RETURN@@PADPAEPAK@Z = .text:0x10018E20; // type:function size:0x70
?LHNetSetCurrentProfileUlong@@YA?AW4LH_RETURN@@PADK@Z = .text:0x10018E90; // type:function size:0x70
?LHNetSetCurrentProfileString@@YA?AW4LH_RETURN@@PAD0@Z = .text:0x10018F00; // type:function size:0x70
?LHNetSetCurrentProfileWString@@YA?AW4LH_RETURN@@PADPAG@Z = .text:0x10018F70; // type:function size:0x70
?LHNetSetCurrentProfileDouble@@YA?AW4LH_RETURN@@PADN@Z = .text:0x10018FE0; // type:function size:0x70
?LHNetSetCurrentProfileData@@YA?AW4LH_RETURN@@PADPAEK@Z = .text:0x10019050; // type:function size:0x70
?LHNetGetProfileList@@YA?AW4LH_RETURN@@PAV?$LHLinkedList@PAG@@@Z = .text:0x100190C0; // type:function size:0xE0
?LHNetFreeProfileList@@YA?AW4LH_RETURN@@PAV?$LHLinkedList@PAG@@@Z = .text:0x100191A0; // type:function size:0x60
?LHNetDeleteProfile@@YA?AW4LH_RETURN@@PAG@Z = .text:0x10019200; // type:function size:0x70
?ProfileNameToKey@@YAPADPAG@Z = .text:0x10019270; // type:function size:0xD0
fn_10019340 = .text:0x10019340; // type:function size:0x30
?KeyToProfileName@@YAPAGPAD@Z = .text:0x10019370; // type:function size:0x130
?ICQinttoLHTransportInfo@@YAXKPAVLHTransportInfo@@@Z = .text:0x100194A0; // type:function size:0xD0
?LHTransportInfotoICQint@@YAKPAVLHTransportInfo@@@Z = .text:0x10019570; // type:function size:0x70
?LIBCHAR2WCHAR@@YAPAGPAD@Z = .text:0x100195E0; // type:function size:0x30
?LIBWCHAR2CHAR@@YAPADPAG@Z = .text:0x10019610; // type:function size:0x30
?LHGetInstalledBWVersion@@YA?AW4LH_RETURN@@PAKPAD@Z = .text:0x10019640; // type:function size:0xB0
?LHCheckForInternetConnection@@YA_ND@Z = .text:0x100196F0; // type:function size:0x230
fn_10019920 = .text:0x10019920; // type:function size:0x40
fn_10019960 = .text:0x10019960; // type:function size:0x20
?GetEncodedListLength@LHPacketisableObject@@SAKPAV?$LHLinkedList@PAVLHPacketisableObject@@@@KPAX@Z = .text:0x10019980; // type:function size:0x50
?EncodeListToBuffer@LHPacketisableObject@@SAPAEPAEPAV?$LHLinkedList@PAVLHPacketisableObject@@@@KPAX@Z = .text:0x100199D0; // type:function size:0x70
?DecodeListFromBuffer@LHPacketisableObject@@SAPAEP6APAV1@XZPAEPAV?$LHLinkedList@PAVLHPacketisableObject@@@@@Z = .text:0x10019A40; // type:function size:0xA0
fn_10019AE0 = .text:0x10019AE0; // type:function size:0x40
fn_10019B20 = .text:0x10019B20; // type:function size:0x20
?SetDetails@LHPlayer@@QAE?AW4LH_RETURN@@PAGULH_USER_ID@@J@Z = .text:0x10019B40; // type:function size:0x40
?SetDetails@LHPlayer@@QAE?AW4LH_RETURN@@PAV1@@Z = .text:0x10019B80; // type:function size:0xC0
?SetDetails@LHPlayer@@QAE?AW4LH_RETURN@@PAVLHNetUser@@@Z = .text:0x10019C40; // type:function size:0x30
?ClearAllData@LHPlayer@@IAEXXZ = .text:0x10019C70; // type:function size:0x60
?SetUserFile@LHPlayer@@QAEXPBD@Z = .text:0x10019CD0; // type:function size:0x20
??0LHPlayer@@QAE@PAV0@@Z = .text:0x10019CF0; // type:function size:0x150
??0LHPlayer@@QAE@PAVLHNetUser@@@Z = .text:0x10019E40; // type:function size:0x70
??1LHPlayer@@QAE@XZ = .text:0x10019EB0; // type:function size:0x20
?SetUserData@LHPlayer@@QAEXPAXK@Z = .text:0x10019ED0; // type:function size:0x60
?GetPlayer@LHPlayer@@SAPAV1@ULH_USER_ID@@PAV?$LHLinkedList@PAVLHPlayer@@@@@Z = .text:0x10019F30; // type:function size:0x30
?GetPlayerFromPlayerNumber@LHPlayer@@SAPAV1@KPAV?$LHLinkedList@PAVLHPlayer@@@@@Z = .text:0x10019F60; // type:function size:0x30
?CopyPlayerList@LHPlayer@@SA?AW4LH_RETURN@@PAV?$LHLinkedList@PAVLHPlayer@@@@0@Z = .text:0x10019F90; // type:function size:0x90
?Compare@LHPlayer@@QAEKPAV1@@Z = .text:0x1001A020; // type:function size:0x50
?AllocSystemData@LHPlayer@@QAEPAXK@Z = .text:0x1001A070; // type:function size:0x20
?FreeSystemData@LHPlayer@@QAEXXZ = .text:0x1001A090; // type:function size:0x30
?FreeUserData@LHPlayer@@QAEXXZ = .text:0x1001A0C0; // type:function size:0x30
?GetEncodedLength@LHPlayer@@UAEKKPAX@Z = .text:0x1001A0F0; // type:function size:0x70
?EncodeToBuffer@LHPlayer@@UAEPAEPAEKPAX@Z = .text:0x1001A160; // type:function size:0xB0
?DecodeFromBuffer@LHPlayer@@UAEPAEPAE@Z = .text:0x1001A210; // type:function size:0xC0
?Create@LHPlayer@@SAPAV1@XZ = .text:0x1001A2D0; // type:function size:0x60
?ClearObject@LHPlayer@@UAEXXZ = .text:0x1001A330; // type:function size:0x10
fn_1001A340 = .text:0x1001A340; // type:function size:0x20
fn_1001A360 = .text:0x1001A360; // type:function size:0x80
fn_1001A3E0 = .text:0x1001A3E0; // type:function size:0x80
fn_1001A460 = .text:0x1001A460; // type:function size:0x130
fn_1001A590 = .text:0x1001A590; // type:function size:0xC0
??0LHPOP3@@QAE@XZ = .text:0x1001A9C0; // type:function size:0xB0
??1LHPOP3@@QAE@XZ = .text:0x1001AA70; // type:function size:0xD0
?SetLogin@LHPOP3@@QAE?AW4LH_RETURN@@PAD00J@Z = .text:0x1001AB40; // type:function size:0xD0
?ParseLine@LHPOP3@@AAE?AW4LH_RETURN@@PADJ0PAJW4LH_POP3_PARSE@@J@Z = .text:0x1001AC10; // type:function size:0x170
?ScanLines@LHPOP3@@AAE?AW4LH_RETURN@@PADJ0PAJ_N@Z = .text:0x1001AD80; // type:function size:0x190
?SearchForSpecialChar@LHPOP3@@AAE?AW4LH_RETURN@@PADJ00PAJ1@Z = .text:0x1001AF10; // type:function size:0x80
?SendCommandAsync@LHPOP3@@QAE?AW4LH_RETURN@@PADPAPAD_N@Z = .text:0x1001AF90; // type:function size:0x430
?OpenConnectionAsync@LHPOP3@@QAE?AW4LH_RETURN@@XZ = .text:0x1001B3C0; // type:function size:0x1E0
?LoginAsync@LHPOP3@@QAE?AW4LH_RETURN@@PAW4LH_POP3_ACTION@@@Z = .text:0x1001B5A0; // type:function size:0x180
lbl_1001B5D2 = .text:0x1001B5D2; // type:label
lbl_1001B5EF = .text:0x1001B5EF; // type:label
lbl_1001B650 = .text:0x1001B650; // type:label
lbl_1001B6AF = .text:0x1001B6AF; // type:label
lbl_1001B6F0 = .text:0x1001B6F0; // type:label
lbl_1001B720 = .text:0x1001B720; // type:label
?GetMsgListAsync@LHPOP3@@QAE?AW4LH_RETURN@@AAV?$LHLinkedList@PAVLHPOP3Mail@@@@PAW4LH_POP3_ACTION@@@Z = .text:0x1001B740; // type:function size:0x338
lbl_1001B774 = .text:0x1001B774; // type:label
lbl_1001B7A3 = .text:0x1001B7A3; // type:label
lbl_1001B7EA = .text:0x1001B7EA; // type:label
lbl_1001B7FC = .text:0x1001B7FC; // type:label
lbl_1001B9EE = .text:0x1001B9EE; // type:label
lbl_1001BA1D = .text:0x1001BA1D; // type:label
lbl_1001BA4F = .text:0x1001BA4F; // type:label
lbl_1001BA78 = .text:0x1001BA78; // type:label
?LogoutAsync@LHPOP3@@QAE?AW4LH_RETURN@@PAW4LH_POP3_ACTION@@@Z = .text:0x1001BAA0; // type:function size:0xD0
?GetMailNameSubject@LHPOP3@@QAE?AW4LH_RETURN@@JAAVLHPOP3Mail@@PAW4LH_POP3_ACTION@@@Z = .text:0x1001BB70; // type:function size:0x366
lbl_1001BBBA = .text:0x1001BBBA; // type:label
lbl_1001BBD9 = .text:0x1001BBD9; // type:label
lbl_1001BC27 = .text:0x1001BC27; // type:label
lbl_1001BE7A = .text:0x1001BE7A; // type:label
lbl_1001BE9C = .text:0x1001BE9C; // type:label
lbl_1001BED8 = .text:0x1001BED8; // type:label
fn_1001BF00 = .text:0x1001BF00; // type:function size:0x50
fn_1001BF50 = .text:0x1001BF50; // type:function size:0x20
??4LHSerial@@QAEAAV0@ABV0@@Z = .text:0x1001BF70; // type:function size:0x20
??0LHSerial@@QAE@XZ = .text:0x1001BF90; // type:function size:0x10
??1LHSerial@@QAE@XZ = .text:0x1001BFA0; // type:function size:0x10
?Connect@LHSerial@@QAE?AW4LH_RETURN@@PAVLHTransportInfo@@@Z = .text:0x1001BFB0; // type:function size:0x130
?Disconnect@LHSerial@@QAE?AW4LH_RETURN@@XZ = .text:0x1001C0E0; // type:function size:0x50
?Send@LHSerial@@QAE?AW4LH_RETURN@@PAXK@Z = .text:0x1001C130; // type:function size:0x20
?Receive@LHSerial@@QAE?AW4LH_RETURN@@PAXK@Z = .text:0x1001C150; // type:function size:0x40
?SendPacket@LHSerial@@QAE?AW4LH_RETURN@@PAVLHPacket@@@Z = .text:0x1001C190; // type:function size:0x20
?RecievePacket@LHSerial@@QAE?AW4LH_RETURN@@PAPAVLHPacket@@@Z = .text:0x1001C1B0; // type:function size:0x80
?GetWaitingSize@LHSerial@@QAEKXZ = .text:0x1001C230; // type:function size:0x20
fn_1001C250 = .text:0x1001C250; // type:function size:0x20
fn_1001C270 = .text:0x1001C270; // type:function size:0x20
fn_1001C290 = .text:0x1001C290; // type:function size:0x90
fn_1001C320 = .text:0x1001C320; // type:function size:0xD0
fn_1001C3F0 = .text:0x1001C3F0; // type:function size:0x20
fn_1001C410 = .text:0x1001C410; // type:function size:0x10
fn_1001C420 = .text:0x1001C420; // type:function size:0x10
fn_1001C430 = .text:0x1001C430; // type:function size:0x20
fn_1001C450 = .text:0x1001C450; // type:function size:0x50
fn_1001C4A0 = .text:0x1001C4A0; // type:function size:0xD0
fn_1001C570 = .text:0x1001C570; // type:function size:0x10
fn_1001C580 = .text:0x1001C580; // type:function size:0x10
fn_1001C590 = .text:0x1001C590; // type:function size:0x20
fn_1001C5B0 = .text:0x1001C5B0; // type:function size:0x10
fn_1001C5C0 = .text:0x1001C5C0; // type:function size:0x20
lbl_1001C5F0 = .text:0x1001C5F0; // type:label
fn_1001C610 = .text:0x1001C610; // type:function size:0x10
fn_1001C620 = .text:0x1001C620; // type:function size:0x20
lbl_1001C650 = .text:0x1001C650; // type:label
?SendChecksum@LHSession@@QAE?AW4LH_RETURN@@KKPAXK@Z = .text:0x1001C670; // type:function size:0x1F0
?SendOOSChecksumAndWaitForSync@LHSession@@QAE?AW4LH_RETURN@@KKPAXK@Z = .text:0x1001C860; // type:function size:0x260
?ClearAllData@LHSession@@AAEXXZ = .text:0x1001CAC0; // type:function size:0x150
?GetChannelName@LHSession@@QAEPADXZ = .text:0x1001CC10; // type:function size:0x10
?ClearLastGameEventRead@LHSession@@AAEXXZ = .text:0x1001CC20; // type:function size:0x30
?Write@LHSession@@QAE?AW4LH_RETURN@@PAXK@Z = .text:0x1001CC50; // type:function size:0x70
?SetupGamePlayerInfo@LHSession@@QAEXXZ = .text:0x1001CCC0; // type:function size:0x80
?SendDataPacketToAllGamePlayers@LHSession@@QAEXKPAXH@Z = .text:0x1001CD40; // type:function size:0x40
?GetSuperPacketNextData@LHSession@@QAE?AW4LH_RETURN@@PAPAXPAKPAPAVLHPlayer@@@Z = .text:0x1001CD80; // type:function size:0xD0
?ClearGameEventQ@LHSession@@AAEXXZ = .text:0x1001CE50; // type:function size:0x90
?ProcessEvent@LHSession@@EAE?AW4LH_RETURN@@PAVLHNetEvent@@@Z = .text:0x1001CEE0; // type:function size:0x129
lbl_1001CF28 = .text:0x1001CF28; // type:label
lbl_1001CF7B = .text:0x1001CF7B; // type:label
lbl_1001CF84 = .text:0x1001CF84; // type:label
lbl_1001CF8E = .text:0x1001CF8E; // type:label
lbl_1001CF93 = .text:0x1001CF93; // type:label
lbl_1001CFC0 = .text:0x1001CFC0; // type:label
lbl_1001CFCF = .text:0x1001CFCF; // type:label
lbl_1001CFDF = .text:0x1001CFDF; // type:label
lbl_1001CFE8 = .text:0x1001CFE8; // type:label
lbl_1001CFF1 = .text:0x1001CFF1; // type:label
lbl_1001D001 = .text:0x1001D001; // type:label
lbl_1001D00C = .text:0x1001D00C; // type:label
lbl_1001D01C = .text:0x1001D01C; // type:label
?ProcessServerShutdown@LHSession@@AAE?AW4LH_RETURN@@XZ = .text:0x1001D040; // type:function size:0x10
?ProcessMServeGreeting@LHSession@@AAE?AW4LH_RETURN@@PAVLHNetEvent@@@Z = .text:0x1001D050; // type:function size:0x70
?ProcessMServeRequestLastSuperpacketData@LHSession@@AAE?AW4LH_RETURN@@PAVLHNetEvent@@@Z = .text:0x1001D0C0; // type:function size:0x80
?BuildSuperpacketDatablock@LHSession@@SAPAXKPAK@Z = .text:0x1001D140; // type:function size:0xD0
?ProcessMServeCheckSumFailure@LHSession@@QAE?AW4LH_RETURN@@PAVLHNetEvent@@@Z = .text:0x1001D210; // type:function size:0x250
?GetPlayerFromNum@LHSession@@QAEPAVLHPlayer@@K@Z = .text:0x1001D460; // type:function size:0x30
?ProcessMServePlayerList@LHSession@@AAE?AW4LH_RETURN@@PAVLHNetEvent@@@Z = .text:0x1001D490; // type:function size:0x3B0
fn_1001D840 = .text:0x1001D840; // type:function size:0x20
?GetLobbyPlayer@LHSession@@QAEPAVLHPlayer@@PAV2@@Z = .text:0x1001D860; // type:function size:0x40
??1LHSession@@UAE@XZ = .text:0x1001D8A0; // type:function size:0x90
?FakeOpen@LHSession@@QAEXPAVLHNetUser@@@Z = .text:0x1001D930; // type:function size:0x180
?IsSinglePlayer@LHSession@@QAEHXZ = .text:0x1001DAB0; // type:function size:0x30
?ProcessMServeMGJ@LHSession@@AAE?AW4LH_RETURN@@PAVLHNetEvent@@@Z = .text:0x1001DAE0; // type:function size:0xA0
?SavesCompleteForMGJ@LHSession@@QAEXXZ = .text:0x1001DB80; // type:function size:0x60
?ProcessMServeGameFile@LHSession@@AAE?AW4LH_RETURN@@PAVLHNetEvent@@@Z = .text:0x1001DBE0; // type:function size:0x80
?ProcessMServeChallengeKey@LHSession@@AAE?AW4LH_RETURN@@PAVLHNetEvent@@@Z = .text:0x1001DC60; // type:function size:0x80
?GetPlayer@LHSession@@QAEPAVLHPlayer@@ULH_USER_ID@@@Z = .text:0x1001DCE0; // type:function size:0x30
?ProcessMServeSuperPacket@LHSession@@AAE?AW4LH_RETURN@@PAVLHNetEvent@@@Z = .text:0x1001DD10; // type:function size:0x290
?ProcessServerNewIdleTime@LHSession@@AAE?AW4LH_RETURN@@PAVLHNetEvent@@@Z = .text:0x1001DFA0; // type:function size:0x40
?ProcessMServeGameLoopStarted@LHSession@@AAE?AW4LH_RETURN@@PAVLHNetEvent@@@Z = .text:0x1001DFE0; // type:function size:0x70
?SyncPoint@LHSession@@QAE_NPADH@Z = .text:0x1001E050; // type:function size:0x80
?SyncData@LHSession@@QAE_NKPAX_N@Z = .text:0x1001E0D0; // type:function size:0xA0
?SyncAllAndStartSession@LHSession@@QAE?AW4LH_RETURN@@K@Z = .text:0x1001E170; // type:function size:0x80
?Close@LHSession@@UAEXXZ = .text:0x1001E1F0; // type:function size:0xC0
?SetIdlePeriod@LHSession@@QAE?AW4LH_RETURN@@K@Z = .text:0x1001E2B0; // type:function size:0x40
?StopSession@LHSession@@QAE?AW4LH_RETURN@@XZ = .text:0x1001E2F0; // type:function size:0x30
?StartSession@LHSession@@QAE?AW4LH_RETURN@@XZ = .text:0x1001E320; // type:function size:0x30
?CloseSession@LHSession@@QAE?AW4LH_RETURN@@XZ = .text:0x1001E350; // type:function size:0x30
?Open@LHSession@@QAE?AW4LH_RETURN@@PAVLHNetUser@@PAVLHLobbyChannel@@PAVLHTransportInfo@@HPAVLHMessageServer@@@Z = .text:0x1001E380; // type:function size:0x1C0
?GetPacketSource@LHSession@@QAE?AW4LH_PACKET_SOURCE@@XZ = .text:0x1001E540; // type:function size:0x10
?SetPacketSource@LHSession@@QAEXW4LH_PACKET_SOURCE@@@Z = .text:0x1001E550; // type:function size:0x50
?GetMPPacketSave@LHSession@@QAEPAVLHMPPacketSave@@XZ = .text:0x1001E5A0; // type:function size:0x10
?GetMessageServer@LHSession@@QAEPAVLHMessageServer@@XZ = .text:0x1001E5B0; // type:function size:0x10
?MessageServerRunningHere@LHSession@@QAEHXZ = .text:0x1001E5C0; // type:function size:0x10
?GetLobby@LHSession@@QAEPAVLHLobby@@XZ = .text:0x1001E5D0; // type:function size:0x10
?NextPacketIsSuperpacket@LHSession@@QAEHXZ = .text:0x1001E5E0; // type:function size:0x20
?GetLastJoinChannelInfo@LHSession@@QAEXPAPAGPAW4LH_PLAYER_EVENT@@PAK@Z = .text:0x1001E600; // type:function size:0x30
?GetLastJoinChannelInfo@LHSession@@QAEXPAPAGPAW4LH_PLAYER_EVENT@@@Z = .text:0x1001E630; // type:function size:0x20
?GetUserData@LHSession@@QAEPAXPAVLHPlayer@@@Z = .text:0x1001E650; // type:function size:0x30
?GetUserDataLen@LHSession@@QAEKPAVLHPlayer@@@Z = .text:0x1001E680; // type:function size:0x30
?EmptyEventQ@LHSession@@QAEXXZ = .text:0x1001E6B0; // type:function size:0x50
?Create@LHSession@@SAPAV1@_NPAVLHNetUser@@PAVLHTransportInfo@@PADKKPAXKQAY0DA@GQAULH_USER_ID@@@Z = .text:0x1001E700; // type:function size:0x2B0
?SetUserData@LHSession@@QAE?AW4LH_RETURN@@ULH_USER_ID@@PADKPAX@Z = .text:0x1001E9B0; // type:function size:0x50
?MigrateHost@LHSession@@QAEXXZ = .text:0x1001EA00; // type:function size:0x70
?ProcessMServeHostMigration@LHSession@@AAE?AW4LH_RETURN@@PAVLHNetEvent@@@Z = .text:0x1001EA70; // type:function size:0x210
?WaitForMigrationCompleted@LHSession@@QAEXXZ = .text:0x1001EC80; // type:function size:0x1D0
?ConnectToNewHost@LHSession@@AAE?AW4LH_RETURN@@PAVLHTransportInfo@@@Z = .text:0x1001EE50; // type:function size:0x1A0
?HostSession@LHSession@@AAE?AW4LH_RETURN@@PAV?$LHDynamicQueue@PAVLHNetEvent@@@@@Z = .text:0x1001EFF0; // type:function size:0x2D0
?MakeNextPlayerHost@LHSession@@AAE?AW4LH_RETURN@@PAVLHTransportInfo@@@Z = .text:0x1001F2C0; // type:function size:0x100
?GetHost@LHSession@@AAEPAVLHPlayer@@XZ = .text:0x1001F3C0; // type:function size:0x30
fn_1001F3F0 = .text:0x1001F3F0; // type:function size:0x50
fn_1001F440 = .text:0x1001F440; // type:function size:0x20
fn_1001F460 = .text:0x1001F460; // type:function size:0x60
fn_1001F4C0 = .text:0x1001F4C0; // type:function size:0x20
fn_1001F4E0 = .text:0x1001F4E0; // type:function size:0x50
fn_1001F530 = .text:0x1001F530; // type:function size:0x50
fn_1001F580 = .text:0x1001F580; // type:function size:0x10
fn_1001F590 = .text:0x1001F590; // type:function size:0xC0
fn_1001F650 = .text:0x1001F650; // type:function size:0x30
fn_1001F6B0 = .text:0x1001F6B0; // type:function size:0x40
fn_1001F730 = .text:0x1001F730; // type:function size:0x80
fn_1001F7B0 = .text:0x1001F7B0; // type:function size:0x20
fn_1001FB00 = .text:0x1001FB00; // type:function size:0x200
fn_1001FD00 = .text:0x1001FD00; // type:function size:0x40
fn_1001FD40 = .text:0x1001FD40; // type:function size:0x30
fn_1001FD70 = .text:0x1001FD70; // type:function size:0x90
fn_1001FE00 = .text:0x1001FE00; // type:function size:0x20
??0LHSocket@@QAE@XZ = .text:0x1001FE20; // type:function size:0x20
??1LHSocket@@QAE@XZ = .text:0x1001FE40; // type:function size:0x10
?Shutdown@LHSocket@@SAXXZ = .text:0x1001FE50; // type:function size:0x10
?Startup@LHSocket@@SAXXZ = .text:0x1001FE60; // type:function
?ClearAllData@LHSocket@@IAEXXZ = .text:0x1001FEA0; // type:function size:0x30
?ClearLastUDPPacketBuffer@LHSocket@@QAEXXZ = .text:0x1001FED0; // type:function size:0x20
?WaitForSocketEvents@LHSocket@@SA?AW4LH_RETURN@@PAIGPAUtimeval@@@Z = .text:0x1001FEF0; // type:function size:0x110
?Resolving@LHSocket@@QAE?AW4LH_RETURN@@PAD@Z = .text:0x10020000; // type:function size:0x60
?GetIP@LHSocket@@QAE?AW4LH_RETURN@@PAD@Z = .text:0x10020060; // type:function size:0x50
?GetIPbin@LHSocket@@QAEJXZ = .text:0x100200B0; // type:function size:0x10
?GetPort@LHSocket@@QAEJXZ = .text:0x100200C0; // type:function size:0x20
?GetName@LHSocket@@QAE?AW4LH_RETURN@@PAD@Z = .text:0x100200E0; // type:function size:0x50
?GetSendBytesTotal@LHSocket@@QAEJXZ = .text:0x10020130; // type:function size:0x10
?GetSendBytes@LHSocket@@QAEJXZ = .text:0x10020140; // type:function size:0x10
?IsReadData@LHSocket@@QAE?AW4LH_RETURN@@XZ = .text:0x10020150; // type:function size:0x90
?IsExcept@LHSocket@@QAE?AW4LH_RETURN@@XZ = .text:0x100201E0; // type:function size:0x80
??0LHSocketTCP@@QAE@XZ = .text:0x10020260; // type:function size:0x170
??0LHSocketTCP@@QAE@H@Z = .text:0x100203D0; // type:function size:0x170
??0LHSocketTCP@@QAE@HPAUsockaddr_in@@@Z = .text:0x10020540; // type:function size:0x1A0
?Connect@LHSocketTCP@@UAE?AW4LH_RETURN@@PAVLHTransportInfo@@@Z = .text:0x100206E0; // type:function size:0x220
?Send@LHSocketTCP@@UAE?AW4LH_RETURN@@PAXJ@Z = .text:0x10020900; // type:function size:0x60
?PreparePacketToWrite@LHSocketTCP@@QAE?AW4LH_RETURN@@PAVLHPacket@@@Z = .text:0x10020960; // type:function size:0x140
?FlushBuffer@LHSocketTCP@@QAE?AW4LH_RETURN@@XZ = .text:0x10020AA0; // type:function size:0xB0
?Flushed@LHSocketTCP@@QAE_NXZ = .text:0x10020B50; // type:function size:0x30
?Receive@LHSocketTCP@@UAE?AW4LH_RETURN@@PAXJH@Z = .text:0x10020B80; // type:function size:0xB0
?DoAttemptReadPacketNonBlocking@LHSocketTCP@@QAE?AW4LH_RETURN@@XZ = .text:0x10020C30; // type:function size:0x1F0
?ResetReadPacket@LHSocketTCP@@QAEXXZ = .text:0x10020E20; // type:function size:0x20
?DecompressPacketIfCompressed@LHSocketTCP@@QAE?AW4LH_RETURN@@XZ = .text:0x10020E40; // type:function size:0xE0
?GetLastReadPacket@LHSocketTCP@@QAEXPAPAVLHPacket@@@Z = .text:0x10020F20; // type:function size:0x60
?ReceiveRaw@LHSocketTCP@@QAE?AW4LH_RETURN@@PAXPAJ@Z = .text:0x10020F80; // type:function size:0xB0
?Disconnect@LHSocketTCP@@UAE?AW4LH_RETURN@@XZ = .text:0x10021030; // type:function size:0x70
??1LHSocketTCP@@QAE@XZ = .text:0x100210A0; // type:function size:0x20
?SendPacket@LHSocketTCP@@UAE?AW4LH_RETURN@@PAVLHPacket@@@Z = .text:0x100210C0; // type:function size:0x20
?GetNewPacket@LHSocketTCP@@QAE?AW4LH_RETURN@@K@Z = .text:0x100210E0; // type:function size:0x40
?ReceivePacket@LHSocketTCP@@UAE?AW4LH_RETURN@@PAPAVLHPacket@@@Z = .text:0x10021120; // type:function size:0x90
?AcceptConnections@LHSocketTCP@@QAE?AW4LH_RETURN@@G@Z = .text:0x100211B0; // type:function size:0x1A0
?GetDatagram@LHSocketTCP@@QAE?AW4LH_RETURN@@PAXKPAKPAVLHTransportInfo@@K@Z = .text:0x10021350; // type:function size:0x120
?ReceiveUDPPacket@LHSocketTCP@@UAE?AW4LH_RETURN@@PAPAVLHPacket@@KPAVLHTransportInfo@@@Z = .text:0x10021470; // type:function size:0x90
?sockaddr_inFromLHTransportInfo@LHSocketTCP@@SA?AW4LH_RETURN@@PAUsockaddr_in@@PAVLHTransportInfo@@@Z = .text:0x10021500; // type:function size:0x60
?LHTransportInfoFromsockaddr_in@LHSocketTCP@@SA?AW4LH_RETURN@@PAVLHTransportInfo@@PAUsockaddr_in@@@Z = .text:0x10021560; // type:function size:0xB0
?GetNewConnectedSocket@LHSocketTCP@@QAE?AW4LH_RETURN@@PAPAV1@K@Z = .text:0x10021610; // type:function size:0x220
?SendDatagramPacket@LHSocketTCP@@UAE?AW4LH_RETURN@@PAVLHPacket@@PAVLHTransportInfo@@@Z = .text:0x10021830; // type:function size:0x30
?SendDatagram@LHSocketTCP@@UAE?AW4LH_RETURN@@PAXKPAVLHTransportInfo@@@Z = .text:0x10021860; // type:function size:0x1C0
?ListenForBroadcastRequests@LHSocketTCP@@UAE?AW4LH_RETURN@@PAVLHTransportInfo@@@Z = .text:0x10021A20; // type:function size:0x1C0
?GetSocketInfo@LHSocketTCP@@QAE?AW4LH_RETURN@@PAVLHTransportInfo@@H@Z = .text:0x10021BE0; // type:function size:0x130
?GetIPAddress@LHSocketTCP@@SAPADXZ = .text:0x10021D10; // type:function size:0x60
?GetIPAddress@@YAPADXZ = .text:0x10021D70; // type:function size:0x10
?CheckActivity@LHSocketTCP@@QAE_NW4LH_ACTIVITY_TYPE@@@Z = .text:0x10021D80; // type:function size:0xA0
?SetBlockingMode@LHSocketTCP@@QAE?AW4LH_RETURN@@_N@Z = .text:0x10021E20; // type:function size:0x60
?HasTimedOut@LHSocketTCP@@QAE_NXZ = .text:0x10021E80; // type:function size:0xB0
fn_10021F30 = .text:0x10021F30; // type:function size:0x20
fn_10021F50 = .text:0x10021F50; // type:function size:0x50
fn_10021FA0 = .text:0x10021FA0; // type:function size:0x220
lbl_10021FB0 = .text:0x10021FB0; // type:label
fn_100221C0 = .text:0x100221C0; // type:function size:0x90
fn_10022250 = .text:0x10022250; // type:function size:0x70
fn_100222C0 = .text:0x100222C0; // type:function size:0x80
fn_10022340 = .text:0x10022340; // type:function size:0x20
fn_10022360 = .text:0x10022360; // type:function size:0x20
fn_10022380 = .text:0x10022380; // type:function size:0x60
fn_100223E0 = .text:0x100223E0; // type:function size:0x20
?ClearAllData@LHTransport@@IAEXXZ = .text:0x10022400; // type:function size:0x20
?ClearLastIncomingEvent@LHTransport@@AAEXXZ = .text:0x10022420; // type:function size:0x30
??1LHTransport@@MAE@XZ = .text:0x10022450; // type:function size:0x10
?IsDisconnected@LHTransport@@UAEHXZ = .text:0x10022460; // type:function size:0x10
?IsConnected@LHTransport@@QAEHXZ = .text:0x10022470; // type:function size:0x20
?GetTransportInfo@LHTransport@@UAE?AW4LH_RETURN@@PAVLHTransportInfo@@H@Z = .text:0x10022490; // type:function size:0x10
?Open@LHTransport@@UAE?AW4LH_RETURN@@PAV?$LHDynamicQueue@PAVLHNetEvent@@@@0PAVLHTransportInfo@@@Z = .text:0x100224A0; // type:function size:0xB0
?OpenConnectionToTransport@LHTransport@@UAE?AW4LH_RETURN@@PAV1@P6AXPAX@Z1@Z = .text:0x10022550; // type:function size:0xE0
?CheckForEvents@LHTransport@@UAEHXZ = .text:0x10022630; // type:function size:0x10
?CheckForEvent@LHTransport@@UAEHW4LH_NETEVENT_TYPE@@@Z = .text:0x10022640; // type:function size:0x40
?WaitForEvent@LHTransport@@UAEHW4LH_NETEVENT_TYPE@@K@Z = .text:0x10022680; // type:function size:0x10
?Close@LHTransport@@UAEXXZ = .text:0x10022690; // type:function size:0xE0
?Disconnect@LHTransport@@UAE_NXZ = .text:0x10022770; // type:function size:0x20
?Write@LHTransport@@UAEXPAVLHNetEvent@@@Z = .text:0x10022790; // type:function size:0x20
?AddToIncomingEventQ@LHTransport@@UAEXPAVLHNetEvent@@@Z = .text:0x100227B0; // type:function size:0x20
?AddAtPositionInIncomingEventQ@LHTransport@@UAEXPAVLHNetEvent@@K@Z = .text:0x100227D0; // type:function size:0x30
?AddToFrontOfIncomingEventQ@LHTransport@@UAEXPAVLHNetEvent@@@Z = .text:0x10022800; // type:function size:0x20
?GetIncomingEventQSize@LHTransport@@QAEKXZ = .text:0x10022820; // type:function size:0x10
?Read@LHTransport@@UAEPAVLHNetEvent@@K@Z = .text:0x10022830; // type:function size:0x60
?SetLastEventReadToBeIgnored@LHTransport@@QAEXXZ = .text:0x10022890; // type:function size:0x20
?Peek@LHTransport@@UAEPAVLHNetEvent@@K@Z = .text:0x100228B0; // type:function size:0x30
?ExtractEvent@LHTransport@@UAEPAVLHNetEvent@@W4LH_NETEVENT_TYPE@@K@Z = .text:0x100228E0; // type:function size:0x40
?RawPeek@LHTransport@@UAEPAVLHNetEvent@@W4LH_NETEVENT_TYPE@@K@Z = .text:0x10022920; // type:function size:0x40
?GetFirstEventOfType@LHTransport@@QAEPAVLHNetEvent@@W4LH_NETEVENT_TYPE@@@Z = .text:0x10022960; // type:function size:0x90
?PeekAtFirstEventOfType@LHTransport@@AAEPAVLHNetEvent@@W4LH_NETEVENT_TYPE@@@Z = .text:0x100229F0; // type:function size:0x30
?PeekAtNextEvent@LHTransport@@AAEPAVLHNetEvent@@XZ = .text:0x10022A20; // type:function size:0x20
?Flush@LHTransport@@UAE?AW4LH_RETURN@@K@Z = .text:0x10022A40; // type:function size:0x20
?Flushed@LHTransport@@UAE_NXZ = .text:0x10022A60; // type:function size:0x10
?Create@LHTransport@@SAPAV1@W4LH_TRANSPORT_TYPE@@@Z = .text:0x10022A70; // type:function size:0x171
lbl_10022A9E = .text:0x10022A9E; // type:label
lbl_10022ADC = .text:0x10022ADC; // type:label
lbl_10022B15 = .text:0x10022B15; // type:label
lbl_10022B4E = .text:0x10022B4E; // type:label
lbl_10022B83 = .text:0x10022B83; // type:label
lbl_10022BE4 = .text:0x10022BE4; // type:label
?GetSignalDataToRead@LHTransport@@UAEPAXXZ = .text:0x10022C00; // type:function size:0x10
?Destroy@LHTransport@@SAXPAV1@@Z = .text:0x10022C10; // type:function size:0x30
??0LHSyncTransport@@QAE@XZ = .text:0x10022C40; // type:function size:0x60
?ClearAllData@LHSyncTransport@@AAEXXZ = .text:0x10022CA0; // type:function size:0x10
?Read@LHSyncTransport@@UAEPAVLHNetEvent@@K@Z = .text:0x10022CB0; // type:function size:0x30
?CheckForEvents@LHSyncTransport@@UAEHXZ = .text:0x10022CE0; // type:function size:0x20
?CheckForEvent@LHSyncTransport@@UAEHW4LH_NETEVENT_TYPE@@@Z = .text:0x10022D00; // type:function size:0x30
??1LHAsyncTransport@@UAE@XZ = .text:0x10022D30; // type:function size:0x50
??0LHAsyncTransport@@QAE@XZ = .text:0x10022D80; // type:function size:0x60
?ClearAllData@LHAsyncTransport@@QAEXXZ = .text:0x10022DE0; // type:function size:0x20
?Open@LHAsyncTransport@@MAE?AW4LH_RETURN@@PAV?$LHDynamicQueue@PAVLHNetEvent@@@@0PAVLHTransportInfo@@@Z = .text:0x10022E00; // type:function size:0x60
?OpenConnectionToTransport@LHAsyncTransport@@UAE?AW4LH_RETURN@@PAVLHTransport@@P6AXPAX@Z1@Z = .text:0x10022E60; // type:function size:0x50
?InitialiseLocks@LHAsyncTransport@@AAEXPAV1@@Z = .text:0x10022EB0; // type:function size:0x70
?InitialiseSignals@LHAsyncTransport@@AAE?AW4LH_RETURN@@PAV1@@Z = .text:0x10022F20; // type:function size:0x80
?Close@LHAsyncTransport@@MAEXXZ = .text:0x10022FA0; // type:function size:0xA0
?CheckForEvents@LHAsyncTransport@@UAEHXZ = .text:0x10023040; // type:function size:0x30
?CheckForEvent@LHAsyncTransport@@UAEHW4LH_NETEVENT_TYPE@@@Z = .text:0x10023070; // type:function size:0x40
?Flush@LHAsyncTransport@@UAE?AW4LH_RETURN@@K@Z = .text:0x100230B0; // type:function size:0x70
?WaitForEvent@LHAsyncTransport@@UAEHW4LH_NETEVENT_TYPE@@K@Z = .text:0x10023120; // type:function size:0x240
?WaitForEvent@LHAsyncTransport@@QAEHK@Z = .text:0x10023360; // type:function size:0x70
?Read@LHAsyncTransport@@QAEPAVLHNetEvent@@XZ = .text:0x100233D0; // type:function size:0x40
?Read@LHAsyncTransport@@UAEPAVLHNetEvent@@K@Z = .text:0x10023410; // type:function size:0x80
?Peek@LHAsyncTransport@@QAEPAVLHNetEvent@@XZ = .text:0x10023490; // type:function size:0x30
?Peek@LHAsyncTransport@@UAEPAVLHNetEvent@@K@Z = .text:0x100234C0; // type:function size:0x40
?ExtractEvent@LHAsyncTransport@@QAEPAVLHNetEvent@@W4LH_NETEVENT_TYPE@@@Z = .text:0x10023500; // type:function size:0x30
?ExtractEvent@LHAsyncTransport@@UAEPAVLHNetEvent@@W4LH_NETEVENT_TYPE@@K@Z = .text:0x10023530; // type:function size:0x40
?RawPeek@LHAsyncTransport@@QAEPAVLHNetEvent@@W4LH_NETEVENT_TYPE@@@Z = .text:0x10023570; // type:function size:0x30
?RawPeek@LHAsyncTransport@@UAEPAVLHNetEvent@@W4LH_NETEVENT_TYPE@@K@Z = .text:0x100235A0; // type:function size:0x40
?Write@LHAsyncTransport@@UAEXPAVLHNetEvent@@@Z = .text:0x100235E0; // type:function size:0x40
?AddToIncomingEventQ@LHAsyncTransport@@UAEXPAVLHNetEvent@@@Z = .text:0x10023620; // type:function size:0x40
?AddToFrontOfIncomingEventQ@LHAsyncTransport@@UAEXPAVLHNetEvent@@@Z = .text:0x10023660; // type:function size:0x40
?AddAtPositionInIncomingEventQ@LHAsyncTransport@@UAEXPAVLHNetEvent@@K@Z = .text:0x100236A0; // type:function size:0x40
?Disconnect@LHTransportRemote@@UAE_NXZ = .text:0x100236E0; // type:function size:0x40
?ClearAllData@LHTransportRemote@@QAEXXZ = .text:0x10023720; // type:function size:0x10
?Open@LHTransportRemote@@EAE?AW4LH_RETURN@@PAV?$LHDynamicQueue@PAVLHNetEvent@@@@0PAVLHTransportInfo@@@Z = .text:0x10023730; // type:function size:0x90
?Open@LHTransportRemote@@QAE?AW4LH_RETURN@@XZ = .text:0x100237C0; // type:function size:0x10
?Close@LHTransportRemote@@UAEXXZ = .text:0x100237D0; // type:function size:0x30
??1LHTransportRemote@@UAE@XZ = .text:0x10023800; // type:function size:0x50
??0LHTransportRemote@@QAE@XZ = .text:0x10023850; // type:function size:0x20
lbl_10023870 = .text:0x10023870; // type:label
?RemoteTransportThread@LHTransportRemote@@QAEXXZ = .text:0x10023880; // type:function size:0x100
?ProcessRemoteDataOrWrite@LHTransportRemote@@AAE?AW4LH_RETURN@@XZ = .text:0x10023980; // type:function size:0x40
?ProcessRemoteData@LHTransportRemote@@AAE?AW4LH_RETURN@@XZ = .text:0x100239C0; // type:function size:0x1A0
?WriteAllOutgoingQEvents@LHTransportRemote@@AAE?AW4LH_RETURN@@XZ = .text:0x10023B60; // type:function size:0xA0
?WriteInternalCloseConnectionEvent@LHTransportRemote@@QAEXXZ = .text:0x10023C00; // type:function size:0x50
?RemoteShutdown@LHTransportTCP@@EAEXXZ = .text:0x10023C50; // type:function size:0x20
?ClearAllData@LHTransportTCP@@AAEXXZ = .text:0x10023C70; // type:function size:0x10
?ClearSocket@LHTransportTCP@@AAEXXZ = .text:0x10023C80; // type:function size:0x30
?Open@LHTransportTCP@@UAE?AW4LH_RETURN@@PAV?$LHDynamicQueue@PAVLHNetEvent@@@@0PAVLHTransportInfo@@@Z = .text:0x10023CB0; // type:function size:0xB0
?Open@LHTransportTCP@@QAE?AW4LH_RETURN@@PAVLHSocketTCP@@@Z = .text:0x10023D60; // type:function size:0x10
?Close@LHTransportTCP@@UAEXXZ = .text:0x10023D70; // type:function size:0x40
?GetTransportInfo@LHTransportTCP@@EAE?AW4LH_RETURN@@PAVLHTransportInfo@@H@Z = .text:0x10023DB0; // type:function size:0x20
?GetRemoteDataAvailableSignal@LHTransportTCP@@EAEPAXXZ = .text:0x10023DD0; // type:function size:0x10
??1LHTransportTCP@@UAE@XZ = .text:0x10023DE0; // type:function size:0x50
??0LHTransportTCP@@QAE@XZ = .text:0x10023E30; // type:function size:0x20
?ReadyToRead@LHTransportTCP@@EAE_NXZ = .text:0x10023E50; // type:function size:0x10
?ReadyToWrite@LHTransportTCP@@EAE_NXZ = .text:0x10023E60; // type:function size:0x10
?FlushBuffer@LHTransportTCP@@EAE?AW4LH_RETURN@@XZ = .text:0x10023E70; // type:function size:0x30
?Flushed@LHTransportTCP@@EAE_NXZ = .text:0x10023EA0; // type:function size:0x40
?ReadOnePacket@LHTransportTCP@@EAE?AW4LH_RETURN@@PAPAVLHPacket@@PAVLHTransportInfo@@@Z = .text:0x10023EE0; // type:function size:0x50
?WriteOnePacket@LHTransportTCP@@EAE?AW4LH_RETURN@@PAVLHPacket@@PAVLHTransportInfo@@@Z = .text:0x10023F30; // type:function size:0x10
?PingConnection@LHTransportTCP@@EAE?AW4LH_RETURN@@XZ = .text:0x10023F40; // type:function size:0x50
?ClearAllData@LHTransportUDP@@AAEXXZ = .text:0x10023F90; // type:function size:0x10
?RemoteShutdown@LHTransportUDP@@EAEXXZ = .text:0x10023FA0; // type:function size:0x20
?ClearSocket@LHTransportUDP@@AAEXXZ = .text:0x10023FC0; // type:function size:0x30
?GetTransportInfo@LHTransportUDP@@EAE?AW4LH_RETURN@@PAVLHTransportInfo@@H@Z = .text:0x10023FF0; // type:function size:0x20
?Write@LHTransportUDP@@QAE?AW4LH_RETURN@@PAVLHNetEvent@@PAVLHTransportInfo@@@Z = .text:0x10024010; // type:function size:0x40
?GetRemoteDataAvailableSignal@LHTransportUDP@@EAEPAXXZ = .text:0x10024050; // type:function size:0x20
?Open@LHTransportUDP@@UAE?AW4LH_RETURN@@PAV?$LHDynamicQueue@PAVLHNetEvent@@@@0PAVLHTransportInfo@@@Z = .text:0x10024070; // type:function size:0xC0
?Close@LHTransportUDP@@UAEXXZ = .text:0x10024130; // type:function size:0x40
??1LHTransportUDP@@UAE@XZ = .text:0x10024170; // type:function size:0x50
??0LHTransportUDP@@QAE@XZ = .text:0x100241C0; // type:function size:0x20
?ReadyToRead@LHTransportUDP@@EAE_NXZ = .text:0x100241E0; // type:function size:0x10
?ReadyToWrite@LHTransportUDP@@EAE_NXZ = .text:0x100241F0; // type:function size:0x10
?ReadOnePacket@LHTransportUDP@@EAE?AW4LH_RETURN@@PAPAVLHPacket@@PAVLHTransportInfo@@@Z = .text:0x10024200; // type:function size:0x20
?WriteOnePacket@LHTransportUDP@@EAE?AW4LH_RETURN@@PAVLHPacket@@PAVLHTransportInfo@@@Z = .text:0x10024220; // type:function size:0x20
?FlushBuffer@LHTransportUDP@@EAE?AW4LH_RETURN@@XZ = .text:0x10024240; // type:function size:0x10
?Flushed@LHTransportUDP@@EAE_NXZ = .text:0x10024250; // type:function size:0x10
?PingConnection@LHTransportUDP@@EAE?AW4LH_RETURN@@XZ = .text:0x10024260; // type:function size:0x10
fn_10024270 = .text:0x10024270; // type:function size:0x80
fn_100242F0 = .text:0x100242F0; // type:function size:0x50
fn_10024340 = .text:0x10024340; // type:function size:0x20
?GetEncodedLength@LHTransportInfo@@UAEKKPAX@Z = .text:0x10024360; // type:function size:0x10
?EncodeToBuffer@LHTransportInfo@@UAEPAEPAEKPAX@Z = .text:0x10024370; // type:function size:0x40
?DecodeFromBuffer@LHTransportInfo@@UAEPAEPAE@Z = .text:0x100243B0; // type:function size:0x40
?Create@LHTransportInfo@@SAPAV1@XZ = .text:0x100243F0; // type:function size:0x30
?ClearObject@LHTransportInfo@@UAEXXZ = .text:0x10024420; // type:function size:0x20
fn_10024440 = .text:0x10024440; // type:function size:0x10
fn_10024450 = .text:0x10024450; // type:function size:0x20
lbl_10024480 = .text:0x10024480; // type:label
fn_0x10024485 = .text:0x10024485; // type:function size:0x6
_EnterCriticalSection = .text:0x10024490; // type:function size:0x6
_LeaveCriticalSection = .text:0x10024496; // type:function size:0x6
_GetTickCount = .text:0x1002449C; // type:function size:0x6
_WaitForMultipleObjects = .text:0x100244A2; // type:function size:0x6
_CloseHandle = .text:0x100244A8; // type:function size:0x6
_Sleep = .text:0x100244AE; // type:function size:0x6
_CreateEventA = .text:0x100244B4; // type:function size:0x6
_InitializeCriticalSection = .text:0x100244BA; // type:function size:0x6
_SetEvent = .text:0x100244C0; // type:function size:0x6
_ResetEvent = .text:0x100244C6; // type:function size:0x6
_WaitForSingleObject = .text:0x100244CC; // type:function size:0x6
_DeleteCriticalSection = .text:0x100244D2; // type:function size:0x6
_GetDiskFreeSpaceA = .text:0x100244D8; // type:function size:0x6
_WriteFile = .text:0x100244DE; // type:function size:0x6
_CreateFileA = .text:0x100244E4; // type:function size:0x6
_CreateDirectoryA = .text:0x100244EA; // type:function size:0x6
_GetComputerNameA = .text:0x100244F0; // type:function size:0x6
_GetProcAddress = .text:0x100244F6; // type:function size:0x6
_LoadLibraryA = .text:0x100244FC; // type:function size:0x6
_FreeLibrary = .text:0x10024502; // type:function size:0x6
_GetFileAttributesA = .text:0x10024508; // type:function size:0x6
_ReadFile = .text:0x1002450E; // type:function size:0x6
_SetFilePointer = .text:0x10024514; // type:function size:0x6
_GetFileSize = .text:0x1002451A; // type:function size:0x6
_SetFileAttributesA = .text:0x10024520; // type:function size:0x6
_MultiByteToWideChar = .text:0x10024526; // type:function size:0x6
_WideCharToMultiByte = .text:0x1002452C; // type:function size:0x6
_GetVersionExA = .text:0x10024532; // type:function size:0x6
_SetCommTimeouts = .text:0x10024538; // type:function size:0x6
_SetCommState = .text:0x1002453E; // type:function size:0x6
_GetCommState = .text:0x10024544; // type:function size:0x6
_PurgeComm = .text:0x1002454A; // type:function size:0x6
_SetupComm = .text:0x10024550; // type:function size:0x6
_SetCommMask = .text:0x10024556; // type:function size:0x6
_EscapeCommFunction = .text:0x1002455C; // type:function size:0x6
_ClearCommError = .text:0x10024562; // type:function size:0x6
_SetLastError = .text:0x10024568; // type:function size:0x6
_GlobalAlloc = .text:0x1002456E; // type:function size:0x6
_GlobalFree = .text:0x10024574; // type:function size:0x6
_wsprintfA = .text:0x1002457A; // type:function size:0x6
_GetUserNameW = .text:0x10024580; // type:function size:0x6
_RegCloseKey = .text:0x10024586; // type:function size:0x6
_RegEnumKeyA = .text:0x1002458C; // type:function size:0x6
_RegQueryInfoKeyA = .text:0x10024592; // type:function size:0x6
_RegOpenKeyA = .text:0x10024598; // type:function size:0x6
_RegDeleteKeyA = .text:0x1002459E; // type:function size:0x6
lbl_100245A4 = .text:0x100245A4; // type:label
lbl_100245C4 = .text:0x100245C4; // type:label
fn_100245D6 = .text:0x100245D6; // type:function size:0xC
fn_100245E8 = .text:0x100245E8; // type:function size:0xC
fn_100245FA = .text:0x100245FA; // type:function size:0xC
fn_10024606 = .text:0x10024606; // type:function size:0x6
fn_1002460C = .text:0x1002460C; // type:function size:0xC
fn_10024618 = .text:0x10024618; // type:function size:0x6
fn_1002461E = .text:0x1002461E; // type:function size:0xC
fn_10024630 = .text:0x10024630; // type:function size:0xC
fn_1002463C = .text:0x1002463C; // type:function size:0x12
lbl_10024642 = .text:0x10024642; // type:label
fn_10024654 = .text:0x10024654; // type:function size:0xC
fn_10024666 = .text:0x10024666; // type:function size:0xC
fn_10024678 = .text:0x10024678; // type:function size:0xC
fn_1002468A = .text:0x1002468A; // type:function size:0xC
fn_1002469C = .text:0x1002469C; // type:function size:0xC
fn_100246AE = .text:0x100246AE; // type:function size:0xC
fn_100246C0 = .text:0x100246C0; // type:function size:0xC
fn_100246D2 = .text:0x100246D2; // type:function size:0xC
fn_100246E4 = .text:0x100246E4; // type:function size:0xC
fn_100246F6 = .text:0x100246F6; // type:function size:0xC
fn_10024708 = .text:0x10024708; // type:function size:0xC
fn_1002471A = .text:0x1002471A; // type:function size:0xC
fn_1002472C = .text:0x1002472C; // type:function size:0xC
fn_1002473E = .text:0x1002473E; // type:function size:0xC
fn_10024750 = .text:0x10024750; // type:function size:0xC
fn_10024762 = .text:0x10024762; // type:function size:0xC
fn_10024774 = .text:0x10024774; // type:function size:0xC
fn_10024786 = .text:0x10024786; // type:function size:0xC
fn_10024798 = .text:0x10024798; // type:function size:0xC
fn_100247AA = .text:0x100247AA; // type:function size:0xC
fn_100247BC = .text:0x100247BC; // type:function size:0x1F9
fn_10024A45 = .text:0x10024A45; // type:function size:0x2B
fn_10024A70 = .text:0x10024A70; // type:function size:0xA0
fn_10024B10 = .text:0x10024B10; // type:function size:0xB0
fn_10024BC0 = .text:0x10024BC0; // type:function size:0x20
fn_10024BE0 = .text:0x10024BE0; // type:function size:0x50
fn_10024C30 = .text:0x10024C30; // type:function size:0x50
fn_10024C80 = .text:0x10024C80; // type:function size:0x110
fn_10024D90 = .text:0x10024D90; // type:function size:0x20
fn_10024DB0 = .text:0x10024DB0; // type:function size:0x3DA
lbl_10024E07 = .text:0x10024E07; // type:label
lbl_10024E7E = .text:0x10024E7E; // type:label
lbl_10024EF5 = .text:0x10024EF5; // type:label
lbl_10024F62 = .text:0x10024F62; // type:label
lbl_10024F97 = .text:0x10024F97; // type:label
lbl_10024FD1 = .text:0x10024FD1; // type:label
lbl_1002500B = .text:0x1002500B; // type:label
lbl_10025070 = .text:0x10025070; // type:label
lbl_100250A8 = .text:0x100250A8; // type:label
lbl_100250E5 = .text:0x100250E5; // type:label
lbl_1002511E = .text:0x1002511E; // type:label
lbl_10025166 = .text:0x10025166; // type:label
lbl_10025193 = .text:0x10025193; // type:label
lbl_1002519D = .text:0x1002519D; // type:label
lbl_100251A8 = .text:0x100251A8; // type:label
fn_10025370 = .text:0x10025370; // type:function size:0x30
fn_100253A0 = .text:0x100253A0; // type:function size:0x200
fn_100256A0 = .text:0x100256A0; // type:function size:0x80
fn_100257F0 = .text:0x100257F0; // type:function size:0x2B0
fn_10025AA0 = .text:0x10025AA0; // type:function size:0x30
fn_10025AD0 = .text:0x10025AD0; // type:function size:0x80
fn_10025B50 = .text:0x10025B50; // type:function size:0xB0
fn_10025DB0 = .text:0x10025DB0; // type:function size:0xA0
fn_10025E50 = .text:0x10025E50; // type:function size:0x160
fn_10025FB0 = .text:0x10025FB0; // type:function size:0x130
fn_100260E0 = .text:0x100260E0; // type:function size:0x80
fn_10026160 = .text:0x10026160; // type:function size:0x330
fn_10026490 = .text:0x10026490; // type:function size:0x170
fn_10026600 = .text:0x10026600; // type:function size:0x430
fn_10026A30 = .text:0x10026A30; // type:function size:0x80
fn_10026AB0 = .text:0x10026AB0; // type:function size:0xA0
lbl_10026BA4 = .text:0x10026BA4; // type:label
lbl_10026C08 = .text:0x10026C08; // type:label
lbl_10026C26 = .text:0x10026C26; // type:label
lbl_10026C85 = .text:0x10026C85; // type:label
lbl_10026C9A = .text:0x10026C9A; // type:label
lbl_10026D0D = .text:0x10026D0D; // type:label
lbl_10026E3C = .text:0x10026E3C; // type:label
lbl_10026EE5 = .text:0x10026EE5; // type:label
lbl_10026FCE = .text:0x10026FCE; // type:label
lbl_1002721E = .text:0x1002721E; // type:label
lbl_1002733F = .text:0x1002733F; // type:label
lbl_100276DC = .text:0x100276DC; // type:label
lbl_10027743 = .text:0x10027743; // type:label
lbl_10027787 = .text:0x10027787; // type:label
lbl_10027810 = .text:0x10027810; // type:label
lbl_10027838 = .text:0x10027838; // type:label
fn_10027850 = .text:0x10027850; // type:function size:0x40
fn_100278E0 = .text:0x100278E0; // type:function size:0x130
lbl_10027A40 = .text:0x10027A40; // type:label
lbl_10027A60 = .text:0x10027A60; // type:label
fn_10027A70 = .text:0x10027A70; // type:function size:0x70
fn_10027AE0 = .text:0x10027AE0; // type:function size:0x10
fn_10027AF0 = .text:0x10027AF0; // type:function size:0x70
fn_10027B60 = .text:0x10027B60; // type:function size:0xA0
fn_10027C00 = .text:0x10027C00; // type:function size:0x260
fn_10027E60 = .text:0x10027E60; // type:function size:0x1F0
fn_10028050 = .text:0x10028050; // type:function size:0x240
fn_10028290 = .text:0x10028290; // type:function size:0xE0
fn_10028370 = .text:0x10028370; // type:function size:0x230
fn_100285A0 = .text:0x100285A0; // type:function size:0x80
fn_10028620 = .text:0x10028620; // type:function size:0x70
fn_10028690 = .text:0x10028690; // type:function size:0xF0
fn_10028780 = .text:0x10028780; // type:function size:0x270
fn_100289F0 = .text:0x100289F0; // type:function size:0x580
fn_10029020 = .text:0x10029020; // type:function size:0x440
fn_10029460 = .text:0x10029460; // type:function size:0x80
fn_100294E0 = .text:0x100294E0; // type:function size:0x20
fn_10029500 = .text:0x10029500; // type:function size:0x90
fn_10029590 = .text:0x10029590; // type:function size:0x80
fn_10029610 = .text:0x10029610; // type:function size:0xA0
lbl_10029743 = .text:0x10029743; // type:label
lbl_10029805 = .text:0x10029805; // type:label
lbl_100298F9 = .text:0x100298F9; // type:label
lbl_1002997A = .text:0x1002997A; // type:label
lbl_10029A27 = .text:0x10029A27; // type:label
lbl_10029A9A = .text:0x10029A9A; // type:label
lbl_10029BC7 = .text:0x10029BC7; // type:label
lbl_10029D58 = .text:0x10029D58; // type:label
lbl_10029DC7 = .text:0x10029DC7; // type:label
lbl_10029DFF = .text:0x10029DFF; // type:label
lbl_10029E70 = .text:0x10029E70; // type:label
fn_10029EA0 = .text:0x10029EA0; // type:function size:0x20
?GetCode@LHLogger@@SAKXZ = .text:0x1002AAD0; // type:function size:0x6
?GetText@LHLogger@@SAPADXZ = .text:0x1002AAD6; // type:function size:0x6
?ChecksumBlock@LHVersion@@SAKPAEG@Z = .text:0x1002AADC; // type:function size:0x6
?GetMajorMinorULONG@LHVersion@@SA?AW4LH_RETURN@@PADPAK@Z = .text:0x1002AAE2; // type:function size:0x6
??0LHVersion@@QAE@PAULHVersionBlock@@@Z = .text:0x1002AAE8; // type:function size:0x6
fn_0x1002aaee = .text:0x1002AAEE; // type:function size:0x6
?_lhbeginthread@@YAKPADP6AXPAX@ZI1J@Z = .text:0x1002AAF4; // type:function size:0x6
?LogS@LHLogger@@SAXPAD0K0ZZ = .text:0x1002AAFA; // type:function size:0x6
??0LHSPrintf@@QAA@PADZZ = .text:0x1002AB00; // type:function size:0x6
?RegistryRetrieveULong@@YA?AW4LH_RETURN@@PAD0PAK@Z = .text:0x1002AB06; // type:function size:0x6
?GetFileName@LHLogger@@SAPADPAD@Z = .text:0x1002AB0C; // type:function size:0x6
?AppendString@LHSPrintf@@QAAXPADZZ = .text:0x1002AB12; // type:function size:0x6
?RegistryRetrieveString@@YA?AW4LH_RETURN@@PAD00PAK@Z = .text:0x1002AB18; // type:function size:0x6
?LHRegistrySetCurrentKey@@YAXW4LH_REG_KEY_TYPE@@@Z = .text:0x1002AB1E; // type:function size:0x6
?LHRegistryGetCurrentKey@@YA?AW4LH_REG_KEY_TYPE@@XZ = .text:0x1002AB24; // type:function size:0x6
?EncryptBlock@LHVersion@@SAXPAEG@Z = .text:0x1002AB2A; // type:function size:0x6
?RegistryRetrieveWString@@YA?AW4LH_RETURN@@PAD0PAGPAK@Z = .text:0x1002AB30; // type:function size:0x6
?RegistrySetWString@@YA?AW4LH_RETURN@@PAD0PAG@Z = .text:0x1002AB36; // type:function size:0x6
?RegistryCheckKey@@YAHPAD@Z = .text:0x1002AB3C; // type:function size:0x6
?RegistryRetrieveDouble@@YA?AW4LH_RETURN@@PAD0PAN@Z = .text:0x1002AB42; // type:function size:0x6
?RegistryRetrieveData@@YA?AW4LH_RETURN@@PAD0PAEPAK@Z = .text:0x1002AB48; // type:function size:0x6
?RegistrySetULong@@YA?AW4LH_RETURN@@PAD0K@Z = .text:0x1002AB4E; // type:function size:0x6
?RegistrySetString@@YA?AW4LH_RETURN@@PAD00@Z = .text:0x1002AB54; // type:function size:0x6
?RegistrySetDouble@@YA?AW4LH_RETURN@@PAD0N@Z = .text:0x1002AB5A; // type:function size:0x6
?RegistrySetData@@YA?AW4LH_RETURN@@PAD0PAEK@Z = .text:0x1002AB60; // type:function size:0x6
?SetString@LHSPrintf@@QAAXPADZZ = .text:0x1002AB66; // type:function size:0x6
lbl_1002AB6C = .text:0x1002AB6C; // type:label
?_CallMemberFunction0@@YGXPAX0@Z = .text:0x1002ABA9; // type:function scope:global
lbl_1002ABE6 = .text:0x1002ABE6; // type:label
lbl_1002ACB1 = .text:0x1002ACB1; // type:label
lbl_1002AD5E = .text:0x1002AD5E; // type:label
lbl_1002AD8C = .text:0x1002AD8C; // type:label
lbl_1002AE94 = .text:0x1002AE94; // type:label
__unwind_handler = .text:0x1002AE9C; // type:function scope:local
fn_1002AEBE = .text:0x1002AEBE; // type:function size:0x68
__abnormal_termination = .text:0x1002AF26; // type:function scope:global
fn_1002AF49 = .text:0x1002AF49; // type:function size:0x9
fn_1002AF52 = .text:0x1002AF52; // type:function size:0x18
fn_1002AF6A = .text:0x1002AF6A; // type:function size:0xB
??_M@YGXPAXIHP6EX0@Z@Z = .text:0x1002AF75; // type:function scope:global
fn_1002AFDD = .text:0x1002AFDD; // type:function
?__ArrayUnwind@@YGXPAXIHP6EX0@Z@Z = .text:0x1002AFF5; // type:function scope:global
fn_1002B031 = .text:0x1002B031; // type:function size:0xA
fn_1002B03B = .text:0x1002B03B; // type:function size:0x18
fn_1002B053 = .text:0x1002B053; // type:function size:0x1D
_strncpy = .text:0x1002B070; // type:function scope:global
??_L@YGXPAXIHP6EX0@Z1@Z = .text:0x1002B16E; // type:function scope:global
fn_1002B1D8 = .text:0x1002B1D8; // type:function
_free = .text:0x1002B1F0; // type:function scope:global
fn_1002B25A = .text:0x1002B25A; // type:function size:0x9
fn_1002B2B2 = .text:0x1002B2B2; // type:function size:0x9
_malloc = .text:0x1002B2D9; // type:function scope:global
__nh_malloc = .text:0x1002B2EB; // type:function scope:global
__heap_alloc = .text:0x1002B317; // type:function scope:global
fn_1002B37E = .text:0x1002B37E; // type:function size:0x9
fn_1002B3DA = .text:0x1002B3DA; // type:function size:0x3
fn_1002B3DD = .text:0x1002B3DD; // type:function size:0x9
??2@YAPAXI@Z = .text:0x1002B413; // type:function scope:global
_wcsncpy = .text:0x1002B421; // type:function scope:global
_srand = .text:0x1002B45E; // type:function scope:global
_rand = .text:0x1002B46B; // type:function scope:global
__onexit = .text:0x1002B48D; // type:function scope:global
_atexit = .text:0x1002B50B; // type:function scope:global
___onexitinit = .text:0x1002B51D; // type:function scope:global
fn_1002B54C = .text:0x1002B54C; // type:function size:0x17
fn_1002B563 = .text:0x1002B563; // type:function size:0x1
__cfltcvt_init = .text:0x1002B564; // type:function scope:global
__ftol = .text:0x1002B5AC; // type:function scope:global
_sprintf = .text:0x1002B5D3; // type:function scope:global
_time = .text:0x1002B625; // type:function scope:global
_fclose = .text:0x1002B701; // type:function scope:global
__fclose_lk = .text:0x1002B732; // type:function scope:global
fn_1002B77E = .text:0x1002B77E; // type:function size:0x2F
__fread_lk = .text:0x1002B7AD; // type:function scope:global
__fsopen = .text:0x1002B895; // type:function scope:global
__wfopen = .text:0x1002B8C6; // type:function scope:global
fn_1002B8D9 = .text:0x1002B8D9; // type:function size:0x37
_strstr = .text:0x1002B910; // type:function scope:global
_ftell = .text:0x1002B990; // type:function scope:global
__ftell_lk = .text:0x1002B9B2; // type:function scope:global
_fseek = .text:0x1002BB13; // type:function scope:global
__fseek_lk = .text:0x1002BB3F; // type:function scope:global
fn_1002BBCC = .text:0x1002BBCC; // type:function size:0x2F
fn_1002BBFB = .text:0x1002BBFB; // type:function size:0x115
__chkstk = .text:0x1002BD10; // type:function scope:global
_strncmp = .text:0x1002BD40; // type:function scope:global
__strlwr = .text:0x1002BD78; // type:function scope:global
_atol = .text:0x1002BEAC; // type:function scope:global
fn_1002BF37 = .text:0x1002BF37; // type:function size:0xB
_iswspace = .text:0x1002C05D; // type:function scope:global
_wcscpy = .text:0x1002C0F0; // type:function scope:global
_fprintf = .text:0x1002C115; // type:function scope:global
_wcslen = .text:0x1002CE63; // type:function scope:global
_calloc = .text:0x1002CE80; // type:function scope:global
fn_1002CF14 = .text:0x1002CF14; // type:function size:0x5
fn_1002CF19 = .text:0x1002CF19; // type:function size:0x9
fn_1002CF9D = .text:0x1002CF9D; // type:function size:0x5
fn_1002CFA2 = .text:0x1002CFA2; // type:function size:0x9
_isxdigit = .text:0x1002D063; // type:function scope:global
_isspace = .text:0x1002D090; // type:function scope:global
_isalnum = .text:0x1002D0E0; // type:function scope:global
_toupper = .text:0x1002D229; // type:function scope:global
__toupper_lk = .text:0x1002D298; // type:function scope:global
_wcscmp = .text:0x1002D364; // type:function scope:global
_tolower = .text:0x1002D3A1; // type:function scope:global
__tolower_lk = .text:0x1002D410; // type:function scope:global
___tzset = .text:0x1002D6DB; // type:function scope:global
__tzset_lk = .text:0x1002D71F; // type:function scope:local
__isindst = .text:0x1002D9A6; // type:function scope:global
__isindst_lk = .text:0x1002D9C7; // type:function scope:local
_cvtdate = .text:0x1002DB73; // type:function scope:local
__CRT_INIT@12 = .text:0x1002DD68; // type:function scope:global
__DllMainCRTStartup@12 = .text:0x1002DE41; // type:function
__amsg_exit = .text:0x1002DEDE; // type:function scope:global
fn_1002E2CD = .text:0x1002E2CD; // type:function size:0xA
fn_1002E2D7 = .text:0x1002E2D7; // type:function size:0x2D
fn_1002E304 = .text:0x1002E304; // type:function size:0x136
fn_1002E43A = .text:0x1002E43A; // type:function size:0xA
fn_1002E444 = .text:0x1002E444; // type:function size:0x18
fn_1002E45C = .text:0x1002E45C; // type:function size:0x54
?ExFilterRethrow@@YAHPAU_EXCEPTION_POINTERS@@@Z = .text:0x1002E4B0; // type:function scope:local
fn_1002E692 = .text:0x1002E692; // type:function size:0x4
fn_1002E696 = .text:0x1002E696; // type:function size:0x8
?_DestructExceptionObject@@YAXPAUEHExceptionRecord@@E@Z = .text:0x1002E69E; // type:function scope:global
fn_1002E6F4 = .text:0x1002E6F4; // type:function size:0x9
fn_1002E6FD = .text:0x1002E6FD; // type:function size:0x33
fn_1002E730 = .text:0x1002E730; // type:function size:0x4C
__mtinit = .text:0x1002E77C; // type:function scope:global
__mtterm = .text:0x1002E7D0; // type:function scope:global
__initptd = .text:0x1002E7EE; // type:function scope:global
__getptd = .text:0x1002E801; // type:function scope:global
__freeptd = .text:0x1002E868; // type:function scope:global
_GetCurrentThreadId = .text:0x1002E908; // type:function size:0x6
_GetCurrentThread = .text:0x1002E90E; // type:function size:0x6
lbl_1002E914 = .text:0x1002E914; // type:label
fn_1002E95C = .text:0x1002E95C; // type:function size:0x4
fn_1002E960 = .text:0x1002E960; // type:function size:0x10
fn_1002E970 = .text:0x1002E970; // type:function
fn_1002E98D = .text:0x1002E98D; // type:function size:0x3D
fn_1002E9CA = .text:0x1002E9CA; // type:function size:0x4
fn_1002E9CE = .text:0x1002E9CE; // type:function size:0x10
fn_1002E9DE = .text:0x1002E9DE; // type:function
__except_handler3 = .text:0x1002E9EC; // type:function scope:global
fn_1002EAC4 = .text:0x1002EAC4; // type:function size:0x2D
fn_1002EAF1 = .text:0x1002EAF1; // type:function size:0x148
__heap_init = .text:0x1002EC39; // type:function scope:global
__heap_term = .text:0x1002EC96; // type:function scope:global
fn_1002EE10 = .text:0x1002EE10; // type:function size:0x48
___sbh_find_block = .text:0x1002EE58; // type:function scope:global
fn_1002EE83 = .text:0x1002EE83; // type:function size:0x329
___sbh_alloc_block = .text:0x1002F1AC; // type:function scope:global
___sbh_alloc_new_region = .text:0x1002F4B5; // type:function scope:global
___sbh_alloc_new_group = .text:0x1002F566; // type:function scope:global
___sbh_resize_block = .text:0x1002F661; // type:function scope:global
fn_1002FD79 = .text:0x1002FD79; // type:function size:0x144
fn_1002FEBD = .text:0x1002FEBD; // type:function size:0x56
fn_1002FF13 = .text:0x1002FF13; // type:function size:0xC2
fn_1002FFD5 = .text:0x1002FFD5; // type:function size:0x57
fn_1003002C = .text:0x1003002C; // type:function size:0x45
fn_10030071 = .text:0x10030071; // type:function size:0x208
fn_10030279 = .text:0x10030279; // type:function size:0x124
fn_1003039D = .text:0x1003039D; // type:function size:0xA9
__mtinitlocks = .text:0x100305A4; // type:function scope:global
__mtdeletelocks = .text:0x100305CD; // type:function scope:global
__lock = .text:0x10030639; // type:function scope:global
__unlock = .text:0x1003069A; // type:function scope:global
__callnewh = .text:0x100306F1; // type:function scope:global
__cinit = .text:0x1003070C; // type:function scope:global
__exit = .text:0x1003074A; // type:function scope:global
__cexit = .text:0x1003075B; // type:function scope:global
_doexit = .text:0x10030779; // type:function scope:local
__lockexit = .text:0x1003081E; // type:function scope:global
__unlockexit = .text:0x10030827; // type:function scope:global
__initterm = .text:0x10030830; // type:function scope:local
_realloc = .text:0x1003084A; // type:function scope:global
fn_100309CD = .text:0x100309CD; // type:function size:0x8
fn_100309D5 = .text:0x100309D5; // type:function size:0x9
fn_10030B1D = .text:0x10030B1D; // type:function size:0x6
fn_10030B23 = .text:0x10030B23; // type:function size:0xB
__msize = .text:0x10030B79; // type:function scope:global
fn_10030BE0 = .text:0x10030BE0; // type:function size:0x3
fn_10030BE3 = .text:0x10030BE3; // type:function
fn_10030C5B = .text:0x10030C5B; // type:function size:0x3
fn_10030C5E = .text:0x10030C5E; // type:function
__setdefaultprecision = .text:0x10030C67; // type:function scope:global
__ms_p5_mp_test_fdiv = .text:0x10030CB7; // type:function scope:global
__forcdecpt = .text:0x10030CE0; // type:function scope:global
__cropzeros = .text:0x10030D3A; // type:function scope:global
__positive = .text:0x10030D88; // type:function scope:global
__fassign = .text:0x10030DA0; // type:function scope:global
__cfltcvt = .text:0x10031090; // type:function scope:global
__flsbuf = .text:0x10031106; // type:function scope:global
__output = .text:0x1003121E; // type:function scope:global
lbl_10031293 = .text:0x10031293; // type:label
lbl_100312AE = .text:0x100312AE; // type:label
lbl_100312FA = .text:0x100312FA; // type:label
lbl_10031331 = .text:0x10031331; // type:label
lbl_10031339 = .text:0x10031339; // type:label
lbl_1003136E = .text:0x1003136E; // type:label
lbl_100313BD = .text:0x100313BD; // type:label
lbl_10031401 = .text:0x10031401; // type:label
lbl_1003193F = .text:0x1003193F; // type:label
___loctotime_t = .text:0x10031A28; // type:function scope:global
___initstdio = .text:0x10031AEA; // type:function scope:global
___endstdio = .text:0x10031B92; // type:function scope:global
__lock_file = .text:0x10031BA6; // type:function scope:global
__lock_file2 = .text:0x10031BD5; // type:function scope:global
__unlock_file = .text:0x10031BF8; // type:function scope:global
__unlock_file2 = .text:0x10031C27; // type:function scope:global
__close = .text:0x10031C4A; // type:function scope:global
__close_lk = .text:0x10031CA7; // type:function scope:global
__freebuf = .text:0x10031D2A; // type:function scope:global
__fflush_lk = .text:0x10031D84; // type:function scope:global
__flush = .text:0x10031DB2; // type:function scope:global
__flushall = .text:0x10031E0E; // type:function scope:global
_flsall = .text:0x10031E17; // type:function scope:local
__filbuf = .text:0x10031EBB; // type:function scope:global
__read = .text:0x10031F97; // type:function scope:global
__read_lk = .text:0x10031FFC; // type:function scope:global
_memcpy = .text:0x100321E0; // type:function scope:global
lbl_10032240 = .text:0x10032240; // type:label
lbl_10032250 = .text:0x10032250; // type:label
lbl_1003227C = .text:0x1003227C; // type:label
lbl_100322A0 = .text:0x100322A0; // type:label
lbl_100322BC = .text:0x100322BC; // type:label
lbl_100322DC = .text:0x100322DC; // type:label
lbl_100322E4 = .text:0x100322E4; // type:label
lbl_100322EC = .text:0x100322EC; // type:label
lbl_100322F4 = .text:0x100322F4; // type:label
lbl_100322FC = .text:0x100322FC; // type:label
lbl_10032304 = .text:0x10032304; // type:label
lbl_1003230C = .text:0x1003230C; // type:label
lbl_1003231F = .text:0x1003231F; // type:label
lbl_10032328 = .text:0x10032328; // type:label
lbl_10032338 = .text:0x10032338; // type:label
lbl_10032340 = .text:0x10032340; // type:label
lbl_1003234C = .text:0x1003234C; // type:label
lbl_10032360 = .text:0x10032360; // type:label
lbl_100323C8 = .text:0x100323C8; // type:label
lbl_100323D8 = .text:0x100323D8; // type:label
lbl_100323F8 = .text:0x100323F8; // type:label
lbl_10032420 = .text:0x10032420; // type:label
lbl_10032470 = .text:0x10032470; // type:label
lbl_10032474 = .text:0x10032474; // type:label
lbl_1003247C = .text:0x1003247C; // type:label
lbl_10032484 = .text:0x10032484; // type:label
lbl_1003248C = .text:0x1003248C; // type:label
lbl_10032494 = .text:0x10032494; // type:label
lbl_1003249C = .text:0x1003249C; // type:label
lbl_100324A4 = .text:0x100324A4; // type:label
lbl_100324B7 = .text:0x100324B7; // type:label
lbl_100324C0 = .text:0x100324C0; // type:label
lbl_100324D0 = .text:0x100324D0; // type:label
lbl_100324D8 = .text:0x100324D8; // type:label
lbl_100324E8 = .text:0x100324E8; // type:label
lbl_100324FC = .text:0x100324FC; // type:label
__openfile = .text:0x10032515; // type:function scope:global
__getstream = .text:0x10032685; // type:function scope:global
__input = .text:0x1003274D; // type:function scope:global
__hextodec = .text:0x10033172; // type:function scope:local
__inc = .text:0x100331A9; // type:function scope:local
__un_inc = .text:0x100331C3; // type:function scope:local
__whiteout = .text:0x100331DA; // type:function scope:local
_strlen = .text:0x10033200; // type:function scope:global
_strchr = .text:0x10033290; // type:function scope:global
__dosmaperr = .text:0x1003334C; // type:function scope:global
__errno = .text:0x100333BF; // type:function scope:global
___doserrno = .text:0x100333C8; // type:function scope:global
__ioinit = .text:0x100333D1; // type:function scope:global
__ioterm = .text:0x1003358D; // type:function scope:global
__lseek = .text:0x100335E1; // type:function scope:global
__lseek_lk = .text:0x10033646; // type:function scope:global
__write = .text:0x100336B9; // type:function scope:global
__write_lk = .text:0x1003371E; // type:function scope:global
_strcpy = .text:0x100338B0; // type:function scope:global
__mbscat = .text:0x100338C0; // type:function scope:global
___crtLCMapStringA = .text:0x100339A0; // type:function scope:global
fn_10033AB0 = .text:0x10033AB0; // type:function size:0x4
fn_10033AB4 = .text:0x10033AB4; // type:function size:0xB0
fn_10033B64 = .text:0x10033B64; // type:function size:0x4
fn_10033B68 = .text:0x10033B68; // type:function size:0x5C
fn_10033BC4 = .text:0x10033BC4; // type:function size:0x2B
fn_10034121 = .text:0x10034121; // type:function size:0x3
__isctype = .text:0x10034268; // type:function scope:global
__allmul = .text:0x100342E0; // type:function scope:global
_iswctype = .text:0x10034314; // type:function scope:global
__stbuf = .text:0x10034376; // type:function scope:global
__ftbuf = .text:0x10034403; // type:function scope:global
fn_10034430 = .text:0x10034430; // type:function size:0xD0
_memset = .text:0x10034500; // type:function scope:global
_strcmp = .text:0x100346C0; // type:function scope:global
__getenv_lk = .text:0x10034765; // type:function scope:global
___crtsetenv = .text:0x10034A38; // type:function scope:global
_findenv = .text:0x10034BBF; // type:function scope:local
_copy_environ = .text:0x10034C17; // type:function scope:local
__setenvp = .text:0x10034C7E; // type:function scope:global
__setargv = .text:0x10034D37; // type:function scope:global
_parse_cmdline = .text:0x10034DD0; // type:function scope:local
___crtGetEnvironmentStringsA = .text:0x10034F84; // type:function scope:global
_DllMain@12 = .text:0x100350B6; // type:function scope:global
__FF_MSGBANNER = .text:0x100350BC; // type:function scope:global
__NMSG_WRITE = .text:0x100350F5; // type:function scope:global
?__CxxUnhandledExceptionFilter@@YGJPAU_EXCEPTION_POINTERS@@@Z = .text:0x10035279; // type:function scope:global
fn_100352BF = .text:0x100352BF; // type:function size:0x11
fn_100352D0 = .text:0x100352D0; // type:function size:0xD
?_ValidateExecute@@YAHP6GHXZ@Z = .text:0x10035315; // type:function scope:global
fn_10035330 = .text:0x10035330; // type:function size:0x2F8
lbl_10035390 = .text:0x10035390; // type:label
lbl_100353A0 = .text:0x100353A0; // type:label
lbl_100353CC = .text:0x100353CC; // type:label
lbl_100353F0 = .text:0x100353F0; // type:label
lbl_1003540C = .text:0x1003540C; // type:label
lbl_1003542C = .text:0x1003542C; // type:label
lbl_10035434 = .text:0x10035434; // type:label
lbl_1003543C = .text:0x1003543C; // type:label
lbl_10035444 = .text:0x10035444; // type:label
lbl_1003544C = .text:0x1003544C; // type:label
lbl_10035454 = .text:0x10035454; // type:label
lbl_1003545C = .text:0x1003545C; // type:label
lbl_1003546F = .text:0x1003546F; // type:label
lbl_10035478 = .text:0x10035478; // type:label
lbl_10035488 = .text:0x10035488; // type:label
lbl_10035490 = .text:0x10035490; // type:label
lbl_1003549C = .text:0x1003549C; // type:label
lbl_100354B0 = .text:0x100354B0; // type:label
lbl_10035518 = .text:0x10035518; // type:label
lbl_10035528 = .text:0x10035528; // type:label
lbl_10035548 = .text:0x10035548; // type:label
lbl_10035570 = .text:0x10035570; // type:label
lbl_100355C0 = .text:0x100355C0; // type:label
lbl_100355C4 = .text:0x100355C4; // type:label
lbl_100355CC = .text:0x100355CC; // type:label
lbl_100355D4 = .text:0x100355D4; // type:label
lbl_100355DC = .text:0x100355DC; // type:label
lbl_100355E4 = .text:0x100355E4; // type:label
lbl_100355EC = .text:0x100355EC; // type:label
lbl_100355F4 = .text:0x100355F4; // type:label
lbl_10035607 = .text:0x10035607; // type:label
lbl_10035610 = .text:0x10035610; // type:label
lbl_10035620 = .text:0x10035620; // type:label
lbl_10035628 = .text:0x10035628; // type:label
lbl_10035638 = .text:0x10035638; // type:label
lbl_1003564C = .text:0x1003564C; // type:label
__spawnv = .text:0x100357F4; // type:function scope:global
__spawnve = .text:0x1003580B; // type:function scope:global
__control87 = .text:0x10035A4E; // type:function scope:global
__controlfp = .text:0x10035A83; // type:function scope:global
__abstract_cw = .text:0x10035AC4; // type:function scope:local
__hw_cw = .text:0x10035B56; // type:function scope:local
fn_10036231 = .text:0x10036231; // type:function size:0x9
__getbuf = .text:0x1003623A; // type:function scope:global
__isatty = .text:0x1003627E; // type:function scope:global
__alloc_osfhnd = .text:0x100364D6; // type:function scope:global
__set_osfhnd = .text:0x100365F9; // type:function scope:global
__free_osfhnd = .text:0x10036675; // type:function scope:global
__get_osfhandle = .text:0x100366F4; // type:function scope:global
__lock_fhandle = .text:0x100367DD; // type:function scope:global
__unlock_fhandle = .text:0x1003683C; // type:function scope:global
__commit = .text:0x1003685E; // type:function scope:global
__sopen = .text:0x10036908; // type:function scope:global
_mbtowc = .text:0x10036BD7; // type:function scope:global
__mbstowcs_lk = .text:0x10036C34; // type:function scope:global
__allshl = .text:0x10036D00; // type:function scope:global
__ungetc_lk = .text:0x10036D48; // type:function scope:global
___init_time = .text:0x10036DB6; // type:function scope:global
__get_lc_time = .text:0x10036E47; // type:function scope:local
__free_lc_time = .text:0x10037195; // type:function scope:local
___init_numeric = .text:0x10037325; // type:function scope:global
_fix_grouping = .text:0x100374FA; // type:function scope:local
___init_monetary = .text:0x10037531; // type:function scope:global
__get_lc_lconv = .text:0x100375FC; // type:function scope:local
fn_0x1003771e = .text:0x1003771E; // type:function scope:local
__free_lc_lconv = .text:0x10037755; // type:function scope:local
___init_ctype = .text:0x100377A3; // type:function scope:global
fn_100379E8 = .text:0x100379E8; // type:function size:0x8
lbl_10037CC6 = .text:0x10037CC6; // type:label
lbl_10037F20 = .text:0x10037F20; // type:label
lbl_10038014 = .text:0x10038014; // type:label
lbl_100381D1 = .text:0x100381D1; // type:label
___crtGetStringTypeA = .text:0x10038311; // type:function scope:global
fn_1003840A = .text:0x1003840A; // type:function size:0x4
fn_1003840E = .text:0x1003840E; // type:function size:0x4C
___crtGetStringTypeW = .text:0x1003845A; // type:function scope:global
fn_10038546 = .text:0x10038546; // type:function size:0x4
fn_1003854A = .text:0x1003854A; // type:function size:0x59
fn_100385A3 = .text:0x100385A3; // type:function size:0x4
fn_100385A7 = .text:0x100385A7; // type:function size:0x78
__mbsnbicoll = .text:0x1003861F; // type:function scope:global
___wtomb_environ = .text:0x1003865E; // type:function scope:global
__mbschr = .text:0x1003886C; // type:function scope:global
__mbsdup = .text:0x10038903; // type:function scope:global
__setmbcp = .text:0x1003892E; // type:function scope:global
_getSystemCP = .text:0x10038ADB; // type:function scope:local
_GetOEMCP = .text:0x10038AF5; // type:function size:0x6
_GetACP = .text:0x10038B0A; // type:function size:0x6
_CPtoLCID = .text:0x10038B25; // type:function scope:local
_setSBCS = .text:0x10038B58; // type:function scope:local
_setSBUpLow = .text:0x10038B81; // type:function scope:local
___initmbctable = .text:0x10038D16; // type:function scope:global
___crtMessageBoxA = .text:0x10038D32; // type:function scope:global
lbl_10038F3D = .text:0x10038F3D; // type:label
_raise = .text:0x10038F9F; // type:function scope:global
_siglookup = .text:0x10039121; // type:function scope:local
lbl_1003937B = .text:0x1003937B; // type:label
lbl_100393CA = .text:0x100393CA; // type:label
lbl_10039421 = .text:0x10039421; // type:label
lbl_1003944B = .text:0x1003944B; // type:label
lbl_100394A6 = .text:0x100394A6; // type:label
lbl_1003951D = .text:0x1003951D; // type:label
lbl_10039553 = .text:0x10039553; // type:label
lbl_1003957C = .text:0x1003957C; // type:label
lbl_1003959D = .text:0x1003959D; // type:label
lbl_100395B7 = .text:0x100395B7; // type:label
lbl_100395EB = .text:0x100395EB; // type:label
lbl_10039601 = .text:0x10039601; // type:label
lbl_100397B2 = .text:0x100397B2; // type:label
__chsize_lk = .text:0x10039B0A; // type:function scope:global
___getlocaleinfo = .text:0x10039C2F; // type:function scope:global
___crtCompareStringA = .text:0x1003A011; // type:function scope:global
fn_1003A1C8 = .text:0x1003A1C8; // type:function size:0x4
fn_1003A1CC = .text:0x1003A1CC; // type:function size:0x6B
fn_1003A237 = .text:0x1003A237; // type:function size:0x4
fn_1003A23B = .text:0x1003A23B; // type:function size:0x53
fn_1003A28E = .text:0x1003A28E; // type:function size:0x2B
fn_1003A3DE = .text:0x1003A3DE; // type:function size:0x4
fn_1003A3E2 = .text:0x1003A3E2; // type:function size:0x72
fn_1003A454 = .text:0x1003A454; // type:function size:0x4
fn_1003A458 = .text:0x1003A458; // type:function size:0x7C
__setmode_lk = .text:0x1003A8F1; // type:function scope:global
___crtGetLocaleInfoW = .text:0x1003A952; // type:function scope:global
fn_1003AA0B = .text:0x1003AA0B; // type:function size:0x4
fn_1003AA0F = .text:0x1003AA0F; // type:function size:0x56
___crtGetLocaleInfoA = .text:0x1003AA65; // type:function scope:global
fn_1003AB24 = .text:0x1003AB24; // type:function size:0x4
fn_1003AB28 = .text:0x1003AB28; // type:function size:0x5B
fn_1003AD74 = .text:0x1003AD74; // type:function size:0x4
fn_1003AD78 = .text:0x1003AD78; // type:function size:0x79
fn_1003ADF1 = .text:0x1003ADF1; // type:function size:0x4
fn_1003ADF5 = .text:0x1003ADF5; // type:function size:0x86
_timeGetTime = .text:0x1003AEB0; // type:function size:0x6
lbl_1003C0C0 = .text:0x1003C0C0; // type:label
lbl_1003C4D0 = .text:0x1003C4D0; // type:label
fn_1003C790 = .text:0x1003C790; // type:function size:0x120
fn_1003C8B0 = .text:0x1003C8B0; // type:function size:0x10
fn_1003C8C0 = .text:0x1003C8C0; // type:function size:0x10
fn_1003C8D0 = .text:0x1003C8D0; // type:function size:0x20
fn_1003C920 = .text:0x1003C920; // type:function size:0x20
fn_1003C940 = .text:0x1003C940; // type:function size:0x10
fn_1003C950 = .text:0x1003C950; // type:function size:0x20
fn_1003C9B0 = .text:0x1003C9B0; // type:function size:0x60
fn_1003CA10 = .text:0x1003CA10; // type:function size:0x10
fn_1003CA20 = .text:0x1003CA20; // type:function size:0x40
fn_1003CAC0 = .text:0x1003CAC0; // type:function size:0x50
fn_1003CB10 = .text:0x1003CB10; // type:function size:0x10
fn_1003CB20 = .text:0x1003CB20; // type:function size:0x70
fn_1003CBF0 = .text:0x1003CBF0; // type:function size:0x40
fn_1003CC30 = .text:0x1003CC30; // type:function size:0x10
fn_1003CC40 = .text:0x1003CC40; // type:function size:0x20
fn_1003CCA0 = .text:0x1003CCA0; // type:function size:0x50
fn_1003CCF0 = .text:0x1003CCF0; // type:function size:0x10
fn_1003CD00 = .text:0x1003CD00; // type:function size:0x30
fn_1003CD80 = .text:0x1003CD80; // type:function size:0x40
fn_1003CDC0 = .text:0x1003CDC0; // type:function size:0x10
fn_1003CDD0 = .text:0x1003CDD0; // type:function size:0x30
fn_1003CE40 = .text:0x1003CE40; // type:function size:0x40
fn_1003CE80 = .text:0x1003CE80; // type:function size:0x10
fn_1003CE90 = .text:0x1003CE90; // type:function size:0x30
fn_1003CF00 = .text:0x1003CF00; // type:function size:0x70
fn_1003CF70 = .text:0x1003CF70; // type:function size:0x20
fn_1003CF90 = .text:0x1003CF90; // type:function size:0x30
fn_1003D020 = .text:0x1003D020; // type:function size:0xA0
fn_1003D0C0 = .text:0x1003D0C0; // type:function size:0x30
fn_1003D0F0 = .text:0x1003D0F0; // type:function size:0x30
fn_1003D180 = .text:0x1003D180; // type:function size:0x20
fn_1003D1A0 = .text:0x1003D1A0; // type:function size:0x10
fn_1003D1B0 = .text:0x1003D1B0; // type:function size:0x20
fn_1003D210 = .text:0x1003D210; // type:function size:0x70
fn_1003D280 = .text:0x1003D280; // type:function size:0x20
fn_1003D2A0 = .text:0x1003D2A0; // type:function size:0x30
fn_1003D320 = .text:0x1003D320; // type:function size:0xA0
fn_1003D3C0 = .text:0x1003D3C0; // type:function size:0x30
fn_1003D3F0 = .text:0x1003D3F0; // type:function size:0x30
fn_1003D470 = .text:0x1003D470; // type:function size:0x40
fn_1003D4B0 = .text:0x1003D4B0; // type:function size:0x10
fn_1003D4C0 = .text:0x1003D4C0; // type:function size:0x20
fn_1003D530 = .text:0x1003D530; // type:function size:0x40
fn_1003D570 = .text:0x1003D570; // type:function size:0x10
fn_1003D580 = .text:0x1003D580; // type:function size:0x20
fn_1003D5F0 = .text:0x1003D5F0; // type:function size:0x40
fn_1003D630 = .text:0x1003D630; // type:function size:0x10
fn_1003D640 = .text:0x1003D640; // type:function size:0x20
fn_1003D6B0 = .text:0x1003D6B0; // type:function size:0x40
fn_1003D6F0 = .text:0x1003D6F0; // type:function size:0x10
fn_1003D700 = .text:0x1003D700; // type:function size:0x20
fn_1003D770 = .text:0x1003D770; // type:function size:0x70
fn_1003D7E0 = .text:0x1003D7E0; // type:function size:0x20
fn_1003D800 = .text:0x1003D800; // type:function size:0x30
fn_1003D880 = .text:0x1003D880; // type:function size:0x20
fn_1003D8A0 = .text:0x1003D8A0; // type:function size:0x10
fn_1003D8B0 = .text:0x1003D8B0; // type:function size:0x20
fn_1003D910 = .text:0x1003D910; // type:function size:0x70
fn_1003D980 = .text:0x1003D980; // type:function size:0x20
fn_1003D9A0 = .text:0x1003D9A0; // type:function size:0x30
fn_1003DA20 = .text:0x1003DA20; // type:function size:0x40
fn_1003DA60 = .text:0x1003DA60; // type:function size:0x10
fn_1003DA70 = .text:0x1003DA70; // type:function size:0x30
fn_1003DAF0 = .text:0x1003DAF0; // type:function size:0x30
fn_1003DB20 = .text:0x1003DB20; // type:function size:0x10
fn_1003DB30 = .text:0x1003DB30; // type:function size:0x20
fn_1003DB90 = .text:0x1003DB90; // type:function size:0x40
fn_1003DBD0 = .text:0x1003DBD0; // type:function size:0x10
fn_1003DBE0 = .text:0x1003DBE0; // type:function size:0x20
fn_1003DC50 = .text:0x1003DC50; // type:function size:0x70
fn_1003DCC0 = .text:0x1003DCC0; // type:function size:0x20
fn_1003DCE0 = .text:0x1003DCE0; // type:function size:0x30
fn_1003DD60 = .text:0x1003DD60; // type:function size:0x70
fn_1003DDD0 = .text:0x1003DDD0; // type:function size:0x20
fn_1003DDF0 = .text:0x1003DDF0; // type:function size:0x30
lbl_1003DEB0 = .text:0x1003DEB0; // type:label
lbl_1003E150 = .text:0x1003E150; // type:label
lbl_1003E1B0 = .text:0x1003E1B0; // type:label
lbl_1003E250 = .text:0x1003E250; // type:label
lbl_1003E2C0 = .text:0x1003E2C0; // type:label
lbl_1003E440 = .text:0x1003E440; // type:label
lbl_1003E4A0 = .text:0x1003E4A0; // type:label
lbl_1003E4D0 = .text:0x1003E4D0; // type:label
lbl_1003E5F0 = .text:0x1003E5F0; // type:label
lbl_1003E680 = .text:0x1003E680; // type:label
lbl_1003E890 = .text:0x1003E890; // type:label
lbl_1003E930 = .text:0x1003E930; // type:label
lbl_1003EAE0 = .text:0x1003EAE0; // type:label
lbl_1003EC10 = .text:0x1003EC10; // type:label
lbl_1003ECB0 = .text:0x1003ECB0; // type:label
lbl_1003EE10 = .text:0x1003EE10; // type:label
fn_0x1003eed0 = .text:0x1003EED0; // type:function size:0x6
fn_1003F310 = .text:0x1003F310; // type:function size:0xA0
lbl_1003FA80 = .text:0x1003FA80; // type:label
lbl_10040110 = .text:0x10040110; // type:label
lbl_10040890 = .text:0x10040890; // type:label
lbl_100408A0 = .text:0x100408A0; // type:label
lbl_10040940 = .text:0x10040940; // type:label
lbl_10040A60 = .text:0x10040A60; // type:label
lbl_10040D20 = .text:0x10040D20; // type:label
lbl_10040E50 = .text:0x10040E50; // type:label
lbl_100414E0 = .text:0x100414E0; // type:label
lbl_10041580 = .text:0x10041580; // type:label
lbl_10041630 = .text:0x10041630; // type:label
lbl_10041640 = .text:0x10041640; // type:label
lbl_10041650 = .text:0x10041650; // type:label
lbl_100417B0 = .text:0x100417B0; // type:label
lbl_100417F0 = .text:0x100417F0; // type:label
lbl_10041A60 = .text:0x10041A60; // type:label
lbl_10041CF0 = .text:0x10041CF0; // type:label
lbl_10041FA0 = .text:0x10041FA0; // type:label
lbl_10041FE0 = .text:0x10041FE0; // type:label
lbl_10042000 = .text:0x10042000; // type:label
lbl_10042310 = .text:0x10042310; // type:label
lbl_100423A0 = .text:0x100423A0; // type:label
lbl_10042430 = .text:0x10042430; // type:label
lbl_10042CCD = .text:0x10042CCD; // type:label
lbl_10042CE4 = .text:0x10042CE4; // type:label
lbl_10042CFB = .text:0x10042CFB; // type:label
lbl_10042D12 = .text:0x10042D12; // type:label
lbl_10042D29 = .text:0x10042D29; // type:label
lbl_10042D6D = .text:0x10042D6D; // type:label
lbl_10042DDE = .text:0x10042DDE; // type:label
lbl_10042DF3 = .text:0x10042DF3; // type:label
lbl_10042E58 = .text:0x10042E58; // type:label
lbl_100437D0 = .text:0x100437D0; // type:label
lbl_100437F0 = .text:0x100437F0; // type:label
lbl_10043C40 = .text:0x10043C40; // type:label
lbl_10043CD0 = .text:0x10043CD0; // type:label
lbl_10043D20 = .text:0x10043D20; // type:label
lbl_10043DC0 = .text:0x10043DC0; // type:label
lbl_10043E00 = .text:0x10043E00; // type:label
lbl_10043E50 = .text:0x10043E50; // type:label
lbl_10043EF0 = .text:0x10043EF0; // type:label
lbl_10043FA0 = .text:0x10043FA0; // type:label
lbl_10044030 = .text:0x10044030; // type:label
lbl_10044110 = .text:0x10044110; // type:label
lbl_100442C0 = .text:0x100442C0; // type:label
lbl_10044300 = .text:0x10044300; // type:label
lbl_100443B0 = .text:0x100443B0; // type:label
lbl_10044760 = .text:0x10044760; // type:label
lbl_100449B5 = .text:0x100449B5; // type:label
lbl_100449C1 = .text:0x100449C1; // type:label
lbl_100449CD = .text:0x100449CD; // type:label
lbl_10044A0C = .text:0x10044A0C; // type:label
fn_10044B40 = .text:0x10044B40; // type:function size:0x10
fn_10044B50 = .text:0x10044B50; // type:function size:0x10
fn_10044B60 = .text:0x10044B60; // type:function size:0x10
lbl_10044E20 = .text:0x10044E20; // type:label
lbl_10044E40 = .text:0x10044E40; // type:label
lbl_10044EA0 = .text:0x10044EA0; // type:label
lbl_10044EC0 = .text:0x10044EC0; // type:label
lbl_10044EE0 = .text:0x10044EE0; // type:label
lbl_10044EF0 = .text:0x10044EF0; // type:label
fn_10044F00 = .text:0x10044F00; // type:function size:0x30
fn_10044F30 = .text:0x10044F30; // type:function size:0xB0
fn_10044FE0 = .text:0x10044FE0; // type:function size:0x70
fn_10045050 = .text:0x10045050; // type:function size:0x950
fn_100459A0 = .text:0x100459A0; // type:function size:0x50
fn_100459F0 = .text:0x100459F0; // type:function size:0x50
fn_10045A40 = .text:0x10045A40; // type:function size:0x20
fn_10045A60 = .text:0x10045A60; // type:function size:0x30
fn_10045A90 = .text:0x10045A90; // type:function size:0x30
fn_10045AC0 = .text:0x10045AC0; // type:function size:0x50
fn_10046170 = .text:0x10046170; // type:function size:0x80
fn_100461F0 = .text:0x100461F0; // type:function size:0x30
fn_10046220 = .text:0x10046220; // type:function size:0x60
fn_10046280 = .text:0x10046280; // type:function size:0x30
lbl_100464C2 = .text:0x100464C2; // type:label
lbl_100464CC = .text:0x100464CC; // type:label
lbl_100464D6 = .text:0x100464D6; // type:label
lbl_100464E0 = .text:0x100464E0; // type:label
lbl_100464E4 = .text:0x100464E4; // type:label
lbl_10046EB0 = .text:0x10046EB0; // type:label
lbl_10046EB6 = .text:0x10046EB6; // type:label
lbl_10046EBC = .text:0x10046EBC; // type:label
lbl_10046EC2 = .text:0x10046EC2; // type:label
lbl_10046EC8 = .text:0x10046EC8; // type:label
lbl_10046ECE = .text:0x10046ECE; // type:label
lbl_10046EDC = .text:0x10046EDC; // type:label
lbl_10046F70 = .text:0x10046F70; // type:label
lbl_10046F77 = .text:0x10046F77; // type:label
lbl_10046F7E = .text:0x10046F7E; // type:label
lbl_10046F85 = .text:0x10046F85; // type:label
lbl_10046FB8 = .text:0x10046FB8; // type:label
lbl_10046FD0 = .text:0x10046FD0; // type:label
lbl_10047030 = .text:0x10047030; // type:label
lbl_100470C0 = .text:0x100470C0; // type:label
lbl_10047150 = .text:0x10047150; // type:label
fn_100471C0 = .text:0x100471C0; // type:function size:0x50
fn_10047250 = .text:0x10047250; // type:function size:0x20
fn_10047270 = .text:0x10047270; // type:function size:0x10
fn_10047280 = .text:0x10047280; // type:function size:0x20
fn_100472A0 = .text:0x100472A0; // type:function size:0x20
fn_100472C0 = .text:0x100472C0; // type:function size:0x70
fn_10047330 = .text:0x10047330; // type:function size:0x30
fn_10047360 = .text:0x10047360; // type:function size:0x40
fn_100473E0 = .text:0x100473E0; // type:function size:0x50
fn_10047430 = .text:0x10047430; // type:function size:0x30
fn_10047460 = .text:0x10047460; // type:function size:0x30
fn_100474B0 = .text:0x100474B0; // type:function size:0x90
fn_10047540 = .text:0x10047540; // type:function size:0x40
fn_10047620 = .text:0x10047620; // type:function size:0x50
fn_10047670 = .text:0x10047670; // type:function size:0x70
fn_10047C60 = .text:0x10047C60; // type:function size:0x60
fn_10047CC0 = .text:0x10047CC0; // type:function size:0xB0
fn_10047D70 = .text:0x10047D70; // type:function size:0x60
lbl_100486B0 = .text:0x100486B0; // type:label
lbl_10048729 = .text:0x10048729; // type:label
lbl_10048747 = .text:0x10048747; // type:label
lbl_1004875B = .text:0x1004875B; // type:label
lbl_10048794 = .text:0x10048794; // type:label
lbl_100487C4 = .text:0x100487C4; // type:label
lbl_100487D8 = .text:0x100487D8; // type:label
lbl_100487EB = .text:0x100487EB; // type:label
lbl_10048809 = .text:0x10048809; // type:label
lbl_10048811 = .text:0x10048811; // type:label
lbl_1004886E = .text:0x1004886E; // type:label
lbl_1004888D = .text:0x1004888D; // type:label
lbl_10048898 = .text:0x10048898; // type:label
lbl_100488D9 = .text:0x100488D9; // type:label
lbl_1004893F = .text:0x1004893F; // type:label
lbl_10048970 = .text:0x10048970; // type:label
lbl_10048985 = .text:0x10048985; // type:label
lbl_100489D0 = .text:0x100489D0; // type:label
lbl_100489EF = .text:0x100489EF; // type:label
lbl_10048A01 = .text:0x10048A01; // type:label
lbl_10048A44 = .text:0x10048A44; // type:label
lbl_10048A54 = .text:0x10048A54; // type:label
fn_10048AD0 = .text:0x10048AD0; // type:function size:0xB10
lbl_10048BA0 = .text:0x10048BA0; // type:label
lbl_10048BC7 = .text:0x10048BC7; // type:label
lbl_10048C05 = .text:0x10048C05; // type:label
lbl_10048C43 = .text:0x10048C43; // type:label
lbl_10048C81 = .text:0x10048C81; // type:label
lbl_10048CDC = .text:0x10048CDC; // type:label
lbl_10048CFB = .text:0x10048CFB; // type:label
lbl_10048D22 = .text:0x10048D22; // type:label
lbl_10048D93 = .text:0x10048D93; // type:label
lbl_10048DE9 = .text:0x10048DE9; // type:label
lbl_10048E24 = .text:0x10048E24; // type:label
lbl_10048E74 = .text:0x10048E74; // type:label
lbl_10048E9A = .text:0x10048E9A; // type:label
lbl_10048ED5 = .text:0x10048ED5; // type:label
lbl_1004903F = .text:0x1004903F; // type:label
lbl_1004907F = .text:0x1004907F; // type:label
lbl_100490BC = .text:0x100490BC; // type:label
lbl_10049127 = .text:0x10049127; // type:label
lbl_1004914F = .text:0x1004914F; // type:label
lbl_10049221 = .text:0x10049221; // type:label
lbl_10049329 = .text:0x10049329; // type:label
lbl_10049388 = .text:0x10049388; // type:label
lbl_100493B0 = .text:0x100493B0; // type:label
lbl_10049478 = .text:0x10049478; // type:label
lbl_10049498 = .text:0x10049498; // type:label
lbl_100495BB = .text:0x100495BB; // type:label
lbl_100495E0 = .text:0x100495E0; // type:label
lbl_1004966B = .text:0x1004966B; // type:label
lbl_10049689 = .text:0x10049689; // type:label
lbl_100496AB = .text:0x100496AB; // type:label
lbl_100496D1 = .text:0x100496D1; // type:label
lbl_100496FF = .text:0x100496FF; // type:label
lbl_10049725 = .text:0x10049725; // type:label
lbl_10049743 = .text:0x10049743; // type:label
lbl_10049779 = .text:0x10049779; // type:label
lbl_100497A7 = .text:0x100497A7; // type:label
lbl_100497DD = .text:0x100497DD; // type:label
lbl_10049807 = .text:0x10049807; // type:label
lbl_10049829 = .text:0x10049829; // type:label
lbl_1004984F = .text:0x1004984F; // type:label
lbl_1004987C = .text:0x1004987C; // type:label
lbl_10049AB0 = .text:0x10049AB0; // type:label
lbl_10049B00 = .text:0x10049B00; // type:label
lbl_10049B20 = .text:0x10049B20; // type:label
lbl_10049BE0 = .text:0x10049BE0; // type:label
fn_10049C00 = .text:0x10049C00; // type:function size:0x60
fn_10049C60 = .text:0x10049C60; // type:function size:0x120
lbl_10049D80 = .text:0x10049D80; // type:label
lbl_10049D90 = .text:0x10049D90; // type:label
lbl_10049DB0 = .text:0x10049DB0; // type:label
fn_10049DC0 = .text:0x10049DC0; // type:function size:0x90
fn_10049E50 = .text:0x10049E50; // type:function size:0x20
fn_10049E70 = .text:0x10049E70; // type:function size:0x60
lbl_10049F50 = .text:0x10049F50; // type:label
fn_1004A000 = .text:0x1004A000; // type:function size:0x20
fn_1004A020 = .text:0x1004A020; // type:function size:0x40
fn_1004A060 = .text:0x1004A060; // type:function size:0x40
fn_1004A0A0 = .text:0x1004A0A0; // type:function size:0x80
fn_1004A140 = .text:0x1004A140; // type:function size:0x30
fn_1004A170 = .text:0x1004A170; // type:function size:0x20
fn_1004A190 = .text:0x1004A190; // type:function size:0x40
fn_1004A1F0 = .text:0x1004A1F0; // type:function size:0x100
fn_1004A2F0 = .text:0x1004A2F0; // type:function size:0x70
fn_1004A360 = .text:0x1004A360; // type:function size:0x80
lbl_1004A3E0 = .text:0x1004A3E0; // type:label
fn_1004A420 = .text:0x1004A420; // type:function size:0x40
lbl_1004A460 = .text:0x1004A460; // type:label
fn_1004A540 = .text:0x1004A540; // type:function size:0x150
lbl_1004A810 = .text:0x1004A810; // type:label
fn_1004A840 = .text:0x1004A840; // type:function size:0x80
lbl_1004A8C0 = .text:0x1004A8C0; // type:label
lbl_1004A9D0 = .text:0x1004A9D0; // type:label
lbl_1004AA40 = .text:0x1004AA40; // type:label
lbl_1004AAA0 = .text:0x1004AAA0; // type:label
fn_1004AD30 = .text:0x1004AD30; // type:function size:0x60
fn_1004AD90 = .text:0x1004AD90; // type:function size:0x30
fn_1004ADC0 = .text:0x1004ADC0; // type:function size:0x3D0
fn_1004B6B0 = .text:0x1004B6B0; // type:function size:0x16D
lbl_1004B704 = .text:0x1004B704; // type:label
lbl_1004B70E = .text:0x1004B70E; // type:label
lbl_1004B714 = .text:0x1004B714; // type:label
lbl_1004B718 = .text:0x1004B718; // type:label
lbl_1004B71F = .text:0x1004B71F; // type:label
lbl_1004B72B = .text:0x1004B72B; // type:label
lbl_1004B732 = .text:0x1004B732; // type:label
lbl_1004B739 = .text:0x1004B739; // type:label
lbl_1004B745 = .text:0x1004B745; // type:label
lbl_1004B74C = .text:0x1004B74C; // type:label
lbl_1004B753 = .text:0x1004B753; // type:label
lbl_1004B75A = .text:0x1004B75A; // type:label
lbl_1004B766 = .text:0x1004B766; // type:label
lbl_1004B772 = .text:0x1004B772; // type:label
lbl_1004B77B = .text:0x1004B77B; // type:label
lbl_1004B782 = .text:0x1004B782; // type:label
lbl_1004B7E7 = .text:0x1004B7E7; // type:label
lbl_1004B820 = .text:0x1004B820; // type:label
lbl_1004B864 = .text:0x1004B864; // type:label
fn_1004B8E0 = .text:0x1004B8E0; // type:function size:0x7C
lbl_1004B904 = .text:0x1004B904; // type:label
lbl_1004B90A = .text:0x1004B90A; // type:label
lbl_1004B92D = .text:0x1004B92D; // type:label
lbl_1004B934 = .text:0x1004B934; // type:label
lbl_1004B93B = .text:0x1004B93B; // type:label
lbl_1004B942 = .text:0x1004B942; // type:label
lbl_1004B949 = .text:0x1004B949; // type:label
lbl_1004B94E = .text:0x1004B94E; // type:label
lbl_1004B95C = .text:0x1004B95C; // type:label
fn_1004B980 = .text:0x1004B980; // type:function size:0x70
fn_1004B9F0 = .text:0x1004B9F0; // type:function size:0x1E0
fn_1004BBD0 = .text:0x1004BBD0; // type:function size:0xD0
fn_1004BCA0 = .text:0x1004BCA0; // type:function size:0xD0
fn_1004BD70 = .text:0x1004BD70; // type:function size:0x20
fn_1004BD90 = .text:0x1004BD90; // type:function size:0xB0
fn_1004BE40 = .text:0x1004BE40; // type:function size:0xA0
fn_1004BEE0 = .text:0x1004BEE0; // type:function size:0x1C0
fn_1004C0A0 = .text:0x1004C0A0; // type:function size:0xE0
fn_1004C180 = .text:0x1004C180; // type:function size:0x140
lbl_1004C2C0 = .text:0x1004C2C0; // type:label
fn_1004C370 = .text:0x1004C370; // type:function size:0x30
lbl_1004C3A0 = .text:0x1004C3A0; // type:label
fn_1004C450 = .text:0x1004C450; // type:function size:0x30
fn_1004C480 = .text:0x1004C480; // type:function size:0x70
fn_1004C4F0 = .text:0x1004C4F0; // type:function size:0x110
fn_1004C600 = .text:0x1004C600; // type:function size:0x70
fn_1004C670 = .text:0x1004C670; // type:function size:0x50
fn_1004C6C0 = .text:0x1004C6C0; // type:function size:0x1C0
fn_1004C880 = .text:0x1004C880; // type:function size:0x160
fn_1004C9E0 = .text:0x1004C9E0; // type:function size:0xC0
fn_1004CAA0 = .text:0x1004CAA0; // type:function size:0xC0
fn_1004CB60 = .text:0x1004CB60; // type:function size:0x90
fn_1004CBF0 = .text:0x1004CBF0; // type:function size:0x130
fn_1004CD20 = .text:0x1004CD20; // type:function size:0xA0
fn_1004CDC0 = .text:0x1004CDC0; // type:function size:0x90
fn_1004CE50 = .text:0x1004CE50; // type:function size:0x40
fn_1004CE90 = .text:0x1004CE90; // type:function size:0x1F0
fn_1004D080 = .text:0x1004D080; // type:function size:0x70
fn_1004D0F0 = .text:0x1004D0F0; // type:function size:0x120
fn_1004D210 = .text:0x1004D210; // type:function size:0x180
fn_1004D390 = .text:0x1004D390; // type:function size:0x120
fn_1004D4B0 = .text:0x1004D4B0; // type:function size:0xA0
fn_1004D550 = .text:0x1004D550; // type:function size:0xC0
fn_1004D610 = .text:0x1004D610; // type:function size:0x80
fn_1004D690 = .text:0x1004D690; // type:function size:0x30
fn_1004D6C0 = .text:0x1004D6C0; // type:function size:0xB0
fn_1004D770 = .text:0x1004D770; // type:function size:0x70
fn_1004D7E0 = .text:0x1004D7E0; // type:function size:0x70
fn_1004D850 = .text:0x1004D850; // type:function size:0x70
fn_1004D8C0 = .text:0x1004D8C0; // type:function size:0x70
fn_1004D930 = .text:0x1004D930; // type:function size:0x70
fn_1004D9A0 = .text:0x1004D9A0; // type:function size:0x70
fn_1004DA10 = .text:0x1004DA10; // type:function size:0x10
fn_1004DA20 = .text:0x1004DA20; // type:function size:0x20
fn_1004DA40 = .text:0x1004DA40; // type:function size:0x30
fn_1004DA70 = .text:0x1004DA70; // type:function size:0x70
fn_1004DB50 = .text:0x1004DB50; // type:function size:0x60
fn_1004DBB0 = .text:0x1004DBB0; // type:function size:0x50
fn_1004DC00 = .text:0x1004DC00; // type:function size:0x50
fn_1004DC50 = .text:0x1004DC50; // type:function size:0x40
lbl_1004E740 = .text:0x1004E740; // type:label
_WSOCK32_8 = .text:0x1004E990; // type:function size:0x6
_LocalAlloc = .text:0x1004E996; // type:function size:0x6
_InterlockedExchange = .text:0x1004E99C; // type:function size:0x6
_RaiseException = .text:0x1004E9A2; // type:function size:0x6
_GetLastError = .text:0x1004E9A8; // type:function size:0x6
_LocalFree = .text:0x1004E9AE; // type:function size:0x6
_RtlUnwind = .text:0x1004E9B4; // type:function size:0x6
_HeapFree = .text:0x1004E9BA; // type:function size:0x6
_HeapAlloc = .text:0x1004E9C0; // type:function size:0x6
_GetTimeZoneInformation = .text:0x1004E9C6; // type:function size:0x6
_GetSystemTime = .text:0x1004E9CC; // type:function size:0x6
_GetLocalTime = .text:0x1004E9D2; // type:function size:0x6
_InterlockedDecrement = .text:0x1004E9D8; // type:function size:0x6
_InterlockedIncrement = .text:0x1004E9DE; // type:function size:0x6
_GetCommandLineA = .text:0x1004E9E4; // type:function size:0x6
_GetVersion = .text:0x1004E9EA; // type:function size:0x6
fn_0x1004e9f0 = .text:0x1004E9F0; // type:function size:0x6
_TlsSetValue = .text:0x1004E9F6; // type:function size:0x6
_TlsAlloc = .text:0x1004E9FC; // type:function size:0x6
_TlsFree = .text:0x1004EA02; // type:function size:0x6
_TlsGetValue = .text:0x1004EA08; // type:function size:0x6
fn_0x1004ea0e = .text:0x1004EA0E; // type:function size:0x6
_GetModuleHandleA = .text:0x1004EA14; // type:function size:0x6
_GetModuleFileNameA = .text:0x1004EA1A; // type:function size:0x6
_GetEnvironmentVariableA = .text:0x1004EA20; // type:function size:0x6
_HeapDestroy = .text:0x1004EA26; // type:function size:0x6
_HeapCreate = .text:0x1004EA2C; // type:function size:0x6
_VirtualFree = .text:0x1004EA32; // type:function size:0x6
_VirtualAlloc = .text:0x1004EA38; // type:function size:0x6
_HeapReAlloc = .text:0x1004EA3E; // type:function size:0x6
_IsBadWritePtr = .text:0x1004EA44; // type:function size:0x6
_ExitProcess = .text:0x1004EA4A; // type:function size:0x6
_FatalAppExitA = .text:0x1004EA50; // type:function size:0x6
_TerminateProcess = .text:0x1004EA56; // type:function size:0x6
_GetCurrentProcess = .text:0x1004EA5C; // type:function size:0x6
_HeapSize = .text:0x1004EA62; // type:function size:0x6
_SetHandleCount = .text:0x1004EA68; // type:function size:0x6
_GetStdHandle = .text:0x1004EA6E; // type:function size:0x6
_GetFileType = .text:0x1004EA74; // type:function size:0x6
_GetStartupInfoA = .text:0x1004EA7A; // type:function size:0x6
_LCMapStringA = .text:0x1004EA80; // type:function size:0x6
_LCMapStringW = .text:0x1004EA86; // type:function size:0x6
_SetEnvironmentVariableW = .text:0x1004EA8C; // type:function size:0x6
_SetEnvironmentVariableA = .text:0x1004EA92; // type:function size:0x6
_FreeEnvironmentStringsA = .text:0x1004EA98; // type:function size:0x6
_FreeEnvironmentStringsW = .text:0x1004EA9E; // type:function size:0x6
_GetEnvironmentStrings = .text:0x1004EAA4; // type:function size:0x6
_GetEnvironmentStringsW = .text:0x1004EAAA; // type:function size:0x6
_SetUnhandledExceptionFilter = .text:0x1004EAB0; // type:function size:0x6
_IsBadReadPtr = .text:0x1004EAB6; // type:function size:0x6
_IsBadCodePtr = .text:0x1004EABC; // type:function size:0x6
_UnhandledExceptionFilter = .text:0x1004EAC2; // type:function size:0x6
_SetStdHandle = .text:0x1004EAC8; // type:function size:0x6
_FlushFileBuffers = .text:0x1004EACE; // type:function size:0x6
_GetCPInfo = .text:0x1004EAD4; // type:function size:0x6
_IsValidLocale = .text:0x1004EADA; // type:function size:0x6
_IsValidCodePage = .text:0x1004EAE0; // type:function size:0x6
_GetLocaleInfoA = .text:0x1004EAE6; // type:function size:0x6
_EnumSystemLocalesA = .text:0x1004EAEC; // type:function size:0x6
_GetUserDefaultLCID = .text:0x1004EAF2; // type:function size:0x6
_GetStringTypeA = .text:0x1004EAF8; // type:function size:0x6
_GetStringTypeW = .text:0x1004EAFE; // type:function size:0x6
fn_0x1004eb04 = .text:0x1004EB04; // type:function size:0x6
fn_0x1004eb0a = .text:0x1004EB0A; // type:function size:0x6
_SetConsoleCtrlHandler = .text:0x1004EB10; // type:function size:0x6
_SetEndOfFile = .text:0x1004EB16; // type:function size:0x6
_CompareStringA = .text:0x1004EB1C; // type:function size:0x6
_CompareStringW = .text:0x1004EB22; // type:function size:0x6
_GetLocaleInfoW = .text:0x1004EB28; // type:function size:0x6
_QueryPerformanceCounter = .text:0x1004EB2E; // type:function size:0x6
_RegSetValueExA = .text:0x1004EB34; // type:function size:0x6
_RegCreateKeyExA = .text:0x1004EB3A; // type:function size:0x6
_RegQueryValueExA = .text:0x1004EB40; // type:function size:0x6
_RegOpenKeyExA = .text:0x1004EB46; // type:function size:0x6
__filelength = .text:0x1004EB4C; // type:function scope:global
__fileno = .text:0x1004EBD6; // type:function scope:global
__rmdir = .text:0x1004EBDE; // type:function scope:global
fn_1004EC08 = .text:0x1004EC08; // type:function size:0xB
___inittime = .text:0x1004EC56; // type:function scope:global
_vsprintf = .text:0x1004EEB0; // type:function scope:global
_strtok = .text:0x1004EF01; // type:function scope:global
_DeleteFileA = .text:0x1004F024; // type:function size:0x6
_GetSystemTimeAsFileTime = .text:0x1004F02A; // type:function size:0x6
lbl_1004F030 = .text:0x1004F030; // type:label
lbl_1004F038 = .text:0x1004F038; // type:label
fn_1004F050 = .text:0x1004F050; // type:function size:0xB
fn_1004F05B = .text:0x1004F05B; // type:function size:0x8
lbl_1004F063 = .text:0x1004F063; // type:label
fn_1004F070 = .text:0x1004F070; // type:function size:0xB
lbl_1004F07B = .text:0x1004F07B; // type:label
fn_1004F090 = .text:0x1004F090; // type:function size:0xB
lbl_1004F09B = .text:0x1004F09B; // type:label
fn_1004F0B0 = .text:0x1004F0B0; // type:function size:0xE
lbl_1004F0BE = .text:0x1004F0BE; // type:label
fn_1004F0D0 = .text:0x1004F0D0; // type:function size:0xE
lbl_1004F0DE = .text:0x1004F0DE; // type:label
fn_1004F0F0 = .text:0x1004F0F0; // type:function size:0xB
fn_1004F0FB = .text:0x1004F0FB; // type:function size:0x8
fn_1004F103 = .text:0x1004F103; // type:function size:0xE
lbl_1004F111 = .text:0x1004F111; // type:label
fn_1004F120 = .text:0x1004F120; // type:function size:0xB
fn_1004F12B = .text:0x1004F12B; // type:function size:0x8
fn_1004F133 = .text:0x1004F133; // type:function size:0xE
lbl_1004F141 = .text:0x1004F141; // type:label
fn_1004F150 = .text:0x1004F150; // type:function size:0x8
fn_1004F158 = .text:0x1004F158; // type:function size:0xE
fn_1004F166 = .text:0x1004F166; // type:function size:0x18
lbl_1004F17E = .text:0x1004F17E; // type:label
fn_1004F190 = .text:0x1004F190; // type:function size:0xB
lbl_1004F19B = .text:0x1004F19B; // type:label
fn_1004F1B0 = .text:0x1004F1B0; // type:function size:0x8
lbl_1004F1B8 = .text:0x1004F1B8; // type:label
fn_1004F1D0 = .text:0x1004F1D0; // type:function size:0xE
lbl_1004F1DE = .text:0x1004F1DE; // type:label
fn_1004F1F0 = .text:0x1004F1F0; // type:function size:0xE
fn_1004F1FE = .text:0x1004F1FE; // type:function size:0xE
lbl_1004F20C = .text:0x1004F20C; // type:label
fn_1004F220 = .text:0x1004F220; // type:function size:0xB
lbl_1004F22B = .text:0x1004F22B; // type:label
fn_1004F240 = .text:0x1004F240; // type:function size:0xB
fn_1004F24B = .text:0x1004F24B; // type:function size:0xB
fn_1004F256 = .text:0x1004F256; // type:function size:0x8
lbl_1004F25E = .text:0x1004F25E; // type:label
fn_1004F270 = .text:0x1004F270; // type:function size:0xE
lbl_1004F27E = .text:0x1004F27E; // type:label
fn_1004F290 = .text:0x1004F290; // type:function size:0xE
lbl_1004F29E = .text:0x1004F29E; // type:label
fn_1004F2B0 = .text:0x1004F2B0; // type:function size:0xB
fn_1004F2BB = .text:0x1004F2BB; // type:function size:0xB
fn_1004F2C6 = .text:0x1004F2C6; // type:function size:0x8
lbl_1004F2CE = .text:0x1004F2CE; // type:label
fn_1004F2E0 = .text:0x1004F2E0; // type:function size:0xE
lbl_1004F2EE = .text:0x1004F2EE; // type:label
fn_1004F300 = .text:0x1004F300; // type:function size:0xE
lbl_1004F30E = .text:0x1004F30E; // type:label
fn_1004F320 = .text:0x1004F320; // type:function size:0xE
fn_1004F32E = .text:0x1004F32E; // type:function size:0xE
lbl_1004F33C = .text:0x1004F33C; // type:label
fn_1004F350 = .text:0x1004F350; // type:function size:0xE
lbl_1004F35E = .text:0x1004F35E; // type:label
fn_1004F370 = .text:0x1004F370; // type:function size:0xE
lbl_1004F37E = .text:0x1004F37E; // type:label
fn_1004F390 = .text:0x1004F390; // type:function size:0xE
fn_1004F39E = .text:0x1004F39E; // type:function size:0x8
fn_1004F3A6 = .text:0x1004F3A6; // type:function size:0x8
lbl_1004F3AE = .text:0x1004F3AE; // type:label
fn_1004F3C0 = .text:0x1004F3C0; // type:function size:0xE
lbl_1004F3CE = .text:0x1004F3CE; // type:label
fn_1004F3E0 = .text:0x1004F3E0; // type:function size:0x8
fn_1004F3E8 = .text:0x1004F3E8; // type:function size:0x8
fn_1004F3F0 = .text:0x1004F3F0; // type:function size:0x8
lbl_1004F3F8 = .text:0x1004F3F8; // type:label
fn_1004F410 = .text:0x1004F410; // type:function size:0x8
fn_1004F418 = .text:0x1004F418; // type:function size:0xE
fn_1004F426 = .text:0x1004F426; // type:function size:0xE
lbl_1004F434 = .text:0x1004F434; // type:label
fn_1004F440 = .text:0x1004F440; // type:function size:0xB
fn_1004F44B = .text:0x1004F44B; // type:function size:0xE
fn_1004F459 = .text:0x1004F459; // type:function size:0xE
fn_1004F467 = .text:0x1004F467; // type:function size:0x8
fn_1004F46F = .text:0x1004F46F; // type:function size:0xE
fn_1004F47D = .text:0x1004F47D; // type:function size:0xE
lbl_1004F48B = .text:0x1004F48B; // type:label
fn_1004F4A0 = .text:0x1004F4A0; // type:function size:0x8
fn_1004F4A8 = .text:0x1004F4A8; // type:function size:0xE
fn_1004F4B6 = .text:0x1004F4B6; // type:function size:0xE
lbl_1004F4C4 = .text:0x1004F4C4; // type:label
fn_1004F4D0 = .text:0x1004F4D0; // type:function size:0x8
lbl_1004F4D8 = .text:0x1004F4D8; // type:label
fn_1004F4F0 = .text:0x1004F4F0; // type:function size:0xE
fn_1004F4FE = .text:0x1004F4FE; // type:function size:0x11
fn_1004F50F = .text:0x1004F50F; // type:function size:0x11
fn_1004F520 = .text:0x1004F520; // type:function size:0xB
fn_1004F52B = .text:0x1004F52B; // type:function size:0x11
fn_1004F53C = .text:0x1004F53C; // type:function size:0x11
fn_1004F54D = .text:0x1004F54D; // type:function size:0x11
lbl_1004F55E = .text:0x1004F55E; // type:label
fn_1004F570 = .text:0x1004F570; // type:function size:0x8
fn_1004F578 = .text:0x1004F578; // type:function size:0xE
fn_1004F586 = .text:0x1004F586; // type:function size:0xE
fn_1004F594 = .text:0x1004F594; // type:function size:0xE
lbl_1004F5A2 = .text:0x1004F5A2; // type:label
fn_1004F5B0 = .text:0x1004F5B0; // type:function size:0xE
fn_1004F5BE = .text:0x1004F5BE; // type:function size:0xB
fn_1004F5C9 = .text:0x1004F5C9; // type:function size:0x11
fn_1004F5DA = .text:0x1004F5DA; // type:function size:0x1B
lbl_1004F5F5 = .text:0x1004F5F5; // type:label
fn_1004F600 = .text:0x1004F600; // type:function size:0x8
fn_1004F608 = .text:0x1004F608; // type:function size:0xB
fn_1004F613 = .text:0x1004F613; // type:function size:0xE
fn_1004F621 = .text:0x1004F621; // type:function size:0xE
fn_1004F62F = .text:0x1004F62F; // type:function size:0xE
lbl_1004F63D = .text:0x1004F63D; // type:label
fn_1004F650 = .text:0x1004F650; // type:function size:0x8
fn_1004F658 = .text:0x1004F658; // type:function size:0xE
fn_1004F666 = .text:0x1004F666; // type:function size:0xE
lbl_1004F674 = .text:0x1004F674; // type:label
fn_1004F680 = .text:0x1004F680; // type:function size:0x8
fn_1004F688 = .text:0x1004F688; // type:function size:0xE
lbl_1004F696 = .text:0x1004F696; // type:label
fn_1004F6A0 = .text:0x1004F6A0; // type:function size:0xB
fn_1004F6AB = .text:0x1004F6AB; // type:function size:0xB
fn_1004F6B6 = .text:0x1004F6B6; // type:function size:0x8
fn_1004F6BE = .text:0x1004F6BE; // type:function size:0xE
lbl_1004F6CC = .text:0x1004F6CC; // type:label
fn_1004F6E0 = .text:0x1004F6E0; // type:function size:0x8
fn_1004F6E8 = .text:0x1004F6E8; // type:function size:0xB
fn_1004F6F3 = .text:0x1004F6F3; // type:function size:0xE
lbl_1004F701 = .text:0x1004F701; // type:label
fn_1004F710 = .text:0x1004F710; // type:function size:0x8
fn_1004F718 = .text:0x1004F718; // type:function size:0xB
lbl_1004F723 = .text:0x1004F723; // type:label
fn_1004F730 = .text:0x1004F730; // type:function size:0xB
fn_1004F73B = .text:0x1004F73B; // type:function size:0xB
fn_1004F746 = .text:0x1004F746; // type:function size:0x8
lbl_1004F74E = .text:0x1004F74E; // type:label
fn_1004F760 = .text:0x1004F760; // type:function size:0xB
fn_1004F76B = .text:0x1004F76B; // type:function size:0xB
fn_1004F776 = .text:0x1004F776; // type:function size:0x8
lbl_1004F77E = .text:0x1004F77E; // type:label
fn_1004F790 = .text:0x1004F790; // type:function size:0xB
fn_1004F79B = .text:0x1004F79B; // type:function size:0xB
lbl_1004F7A6 = .text:0x1004F7A6; // type:label
fn_1004F7B0 = .text:0x1004F7B0; // type:function size:0xB
fn_1004F7BB = .text:0x1004F7BB; // type:function size:0xB
lbl_1004F7C6 = .text:0x1004F7C6; // type:label
fn_1004F7D0 = .text:0x1004F7D0; // type:function size:0x8
lbl_1004F7D8 = .text:0x1004F7D8; // type:label
fn_1004F7F0 = .text:0x1004F7F0; // type:function size:0x8
fn_1004F7F8 = .text:0x1004F7F8; // type:function size:0xE
lbl_1004F806 = .text:0x1004F806; // type:label
fn_1004F810 = .text:0x1004F810; // type:function size:0xE
lbl_1004F81E = .text:0x1004F81E; // type:label
fn_1004F830 = .text:0x1004F830; // type:function size:0xB
fn_1004F83B = .text:0x1004F83B; // type:function size:0xB
lbl_1004F846 = .text:0x1004F846; // type:label
fn_1004F850 = .text:0x1004F850; // type:function size:0xB
lbl_1004F85B = .text:0x1004F85B; // type:label
fn_1004F870 = .text:0x1004F870; // type:function size:0xE
lbl_1004F87E = .text:0x1004F87E; // type:label
fn_1004F890 = .text:0x1004F890; // type:function size:0xE
lbl_1004F89E = .text:0x1004F89E; // type:label
fn_1004F8B0 = .text:0x1004F8B0; // type:function size:0xE
fn_1004F8BE = .text:0x1004F8BE; // type:function size:0xB
fn_1004F8C9 = .text:0x1004F8C9; // type:function size:0xB
fn_1004F8D4 = .text:0x1004F8D4; // type:function size:0xB
lbl_1004F8DF = .text:0x1004F8DF; // type:label
fn_1004F8F0 = .text:0x1004F8F0; // type:function size:0xE
lbl_1004F8FE = .text:0x1004F8FE; // type:label
fn_1004F910 = .text:0x1004F910; // type:function size:0xE
lbl_1004F91E = .text:0x1004F91E; // type:label
fn_1004F930 = .text:0x1004F930; // type:function size:0xE
lbl_1004F93E = .text:0x1004F93E; // type:label
fn_1004F950 = .text:0x1004F950; // type:function size:0xE
lbl_1004F95E = .text:0x1004F95E; // type:label
fn_1004F970 = .text:0x1004F970; // type:function size:0xB
lbl_1004F97B = .text:0x1004F97B; // type:label
fn_1004F990 = .text:0x1004F990; // type:function size:0xB
fn_1004F99B = .text:0x1004F99B; // type:function size:0x8
lbl_1004F9A3 = .text:0x1004F9A3; // type:label
fn_1004F9B0 = .text:0x1004F9B0; // type:function size:0x8
lbl_1004F9B8 = .text:0x1004F9B8; // type:label
fn_1004F9D0 = .text:0x1004F9D0; // type:function size:0xB
lbl_1004F9DB = .text:0x1004F9DB; // type:label
fn_1004F9F0 = .text:0x1004F9F0; // type:function size:0x8
fn_1004F9F8 = .text:0x1004F9F8; // type:function size:0xB
fn_1004FA03 = .text:0x1004FA03; // type:function size:0xB
fn_1004FA0E = .text:0x1004FA0E; // type:function size:0x8
lbl_1004FA16 = .text:0x1004FA16; // type:label
fn_1004FA20 = .text:0x1004FA20; // type:function size:0x8
fn_1004FA28 = .text:0x1004FA28; // type:function size:0xE
fn_1004FA36 = .text:0x1004FA36; // type:function size:0x18
lbl_1004FA4E = .text:0x1004FA4E; // type:label
fn_1004FA60 = .text:0x1004FA60; // type:function size:0xE
fn_1004FA6E = .text:0x1004FA6E; // type:function size:0xE
fn_1004FA7C = .text:0x1004FA7C; // type:function size:0xE
fn_1004FA8A = .text:0x1004FA8A; // type:function size:0xB
fn_1004FA95 = .text:0x1004FA95; // type:function size:0x11
lbl_1004FAA6 = .text:0x1004FAA6; // type:label
fn_1004FAB0 = .text:0x1004FAB0; // type:function size:0xE
fn_1004FABE = .text:0x1004FABE; // type:function size:0xB
fn_1004FAC9 = .text:0x1004FAC9; // type:function size:0x11
fn_1004FADA = .text:0x1004FADA; // type:function size:0x1B
fn_1004FAF5 = .text:0x1004FAF5; // type:function size:0xE
fn_1004FB03 = .text:0x1004FB03; // type:function size:0xE
fn_1004FB11 = .text:0x1004FB11; // type:function size:0xB
fn_1004FB1C = .text:0x1004FB1C; // type:function size:0x11
lbl_1004FB2D = .text:0x1004FB2D; // type:label
fn_1004FB40 = .text:0x1004FB40; // type:function size:0xB
lbl_1004FB4B = .text:0x1004FB4B; // type:label
fn_1004FB60 = .text:0x1004FB60; // type:function size:0xB
lbl_1004FB6B = .text:0x1004FB6B; // type:label
fn_1004FB80 = .text:0x1004FB80; // type:function size:0xB
lbl_1004FB8B = .text:0x1004FB8B; // type:label
fn_1004FBA0 = .text:0x1004FBA0; // type:function size:0xB
lbl_1004FBAB = .text:0x1004FBAB; // type:label
fn_1004FBC0 = .text:0x1004FBC0; // type:function size:0xB
fn_1004FBCB = .text:0x1004FBCB; // type:function size:0xB
lbl_1004FBD6 = .text:0x1004FBD6; // type:label
fn_1004FBE0 = .text:0x1004FBE0; // type:function size:0xB
fn_1004FBEB = .text:0x1004FBEB; // type:function size:0xB
fn_1004FBF6 = .text:0x1004FBF6; // type:function size:0xB
fn_1004FC01 = .text:0x1004FC01; // type:function size:0xB
lbl_1004FC0C = .text:0x1004FC0C; // type:label
fn_1004FC20 = .text:0x1004FC20; // type:function size:0x8
lbl_1004FC28 = .text:0x1004FC28; // type:label
fn_1004FC40 = .text:0x1004FC40; // type:function size:0x8
lbl_1004FC48 = .text:0x1004FC48; // type:label
fn_1004FC60 = .text:0x1004FC60; // type:function size:0x8
lbl_1004FC68 = .text:0x1004FC68; // type:label
fn_1004FC80 = .text:0x1004FC80; // type:function size:0x8
lbl_1004FC88 = .text:0x1004FC88; // type:label
fn_1004FCA0 = .text:0x1004FCA0; // type:function size:0xB
lbl_1004FCAB = .text:0x1004FCAB; // type:label
fn_1004FCC0 = .text:0x1004FCC0; // type:function size:0x8
lbl_1004FCC8 = .text:0x1004FCC8; // type:label
fn_1004FCE0 = .text:0x1004FCE0; // type:function size:0xB
lbl_1004FCEB = .text:0x1004FCEB; // type:label
fn_1004FD00 = .text:0x1004FD00; // type:function size:0x8
lbl_1004FD08 = .text:0x1004FD08; // type:label
__imp__RegSetValueExA = .rdata:0x10050000; // type:object size:0x4
__imp__RegOpenKeyExA = .rdata:0x10050004; // type:object size:0x4
__imp__RegOpenKeyA = .rdata:0x10050008; // type:object size:0x4
__imp__RegQueryInfoKeyA = .rdata:0x1005000C; // type:object size:0x4
__imp__RegDeleteKeyA = .rdata:0x10050010; // type:object size:0x4
__imp__RegCloseKey = .rdata:0x10050014; // type:object size:0x4
__imp__GetUserNameW = .rdata:0x10050018; // type:object size:0x4
__imp__RegEnumKeyA = .rdata:0x1005001C; // type:object size:0x4
__imp__RegQueryValueExA = .rdata:0x10050020; // type:object size:0x4
__imp__RegCreateKeyExA = .rdata:0x10050024; // type:object size:0x4
__imp__GetDiskFreeSpaceA = .rdata:0x1005002C; // type:object size:0x4
__imp__WriteFile = .rdata:0x10050030; // type:object size:0x4
__imp__CreateFileA@28 = .rdata:0x10050034; // type:object scope:global
lbl_3_rdata_10050034 = .rdata:0x10050034; // type:object size:0x4
__imp__CreateDirectoryA = .rdata:0x10050038; // type:object size:0x4
__imp__DeleteCriticalSection@4 = .rdata:0x1005003C; // type:object scope:global
lbl_3_rdata_1005003C = .rdata:0x1005003C; // type:object size:0x4
__imp__WaitForSingleObject = .rdata:0x10050040; // type:object size:0x4
__imp__GetComputerNameA = .rdata:0x10050044; // type:object size:0x4
__imp__LoadLibraryA@4 = .rdata:0x10050048; // type:object scope:global
lbl_3_rdata_10050048 = .rdata:0x10050048; // type:object size:0x4
__imp__FreeLibrary = .rdata:0x1005004C; // type:object size:0x4
__imp__GetFileAttributesA = .rdata:0x10050050; // type:object size:0x4
__imp__ReadFile = .rdata:0x10050054; // type:object size:0x4
__imp__SetFilePointer@16 = .rdata:0x10050058; // type:object scope:global
lbl_3_rdata_10050058 = .rdata:0x10050058; // type:object size:0x4
__imp__GetFileSize = .rdata:0x1005005C; // type:object size:0x4
__imp__GetProcAddress@8 = .rdata:0x10050060; // type:object scope:global
lbl_3_rdata_10050060 = .rdata:0x10050060; // type:object size:0xC
__imp__InitializeCriticalSection = .rdata:0x10050064; // type:object
__imp__WideCharToMultiByte = .rdata:0x10050068; // type:object
__imp__GetVersionExA = .rdata:0x1005006C; // type:object size:0x4
__imp__SetCommTimeouts = .rdata:0x10050070; // type:object size:0x4
__imp__SetCommState = .rdata:0x10050074; // type:object size:0x4
__imp__GetCommState = .rdata:0x10050078; // type:object size:0x4
__imp__PurgeComm = .rdata:0x1005007C; // type:object size:0x4
__imp__SetupComm = .rdata:0x10050080; // type:object size:0x4
__imp__SetCommMask = .rdata:0x10050084; // type:object size:0x4
__imp__EscapeCommFunction = .rdata:0x10050088; // type:object size:0x4
__imp__ClearCommError = .rdata:0x1005008C; // type:object size:0x4
__imp__SetLastError@4 = .rdata:0x10050090; // type:object scope:global
lbl_3_rdata_10050090 = .rdata:0x10050090; // type:object size:0x4
__imp__GlobalAlloc = .rdata:0x10050094; // type:object size:0x4
__imp__GlobalFree = .rdata:0x10050098; // type:object size:0x4
__imp__ResetEvent = .rdata:0x1005009C; // type:object size:0x4
__imp__SetEvent = .rdata:0x100500A0; // type:object size:0x4
__imp__CloseHandle@4 = .rdata:0x100500A4; // type:object scope:global
lbl_3_rdata_100500A4 = .rdata:0x100500A4; // type:object size:0x4
__imp__CreateEventA = .rdata:0x100500A8; // type:object size:0x4
__imp__Sleep = .rdata:0x100500AC; // type:object size:0x4
__imp__LeaveCriticalSection@4 = .rdata:0x100500B0; // type:object scope:global
lbl_3_rdata_100500B0 = .rdata:0x100500B0; // type:object size:0x4
__imp__WaitForMultipleObjects = .rdata:0x100500B4; // type:object size:0x4
__imp__GetTickCount = .rdata:0x100500B8; // type:object size:0x4
__imp__SetFileAttributesA = .rdata:0x100500BC; // type:object size:0x4
__imp__MultiByteToWideChar = .rdata:0x100500C0; // type:object size:0x4
__imp__GetLocaleInfoW = .rdata:0x100500C4; // type:object size:0x4
__imp__TlsAlloc@0 = .rdata:0x100500C8; // type:object scope:global
lbl_3_rdata_100500C8 = .rdata:0x100500C8; // type:object size:0xC
__imp__TlsFree = .rdata:0x100500CC; // type:object
__imp__SetEndOfFile = .rdata:0x100500D0; // type:object
__imp__SetConsoleCtrlHandler = .rdata:0x100500D4; // type:object size:0x4
__imp__CompareStringA = .rdata:0x100500D8; // type:object size:0x4
__imp__GetACP = .rdata:0x100500DC; // type:object size:0x4
__imp__GetStringTypeW = .rdata:0x100500E0; // type:object size:0x4
__imp__GetOEMCP = .rdata:0x100500E4; // type:object size:0x4
__imp__GetUserDefaultLCID = .rdata:0x100500E8; // type:object size:0x4
__imp__EnumSystemLocalesA = .rdata:0x100500EC; // type:object size:0x4
__imp__GetStringTypeA = .rdata:0x100500F0; // type:object size:0x4
__imp__IsValidCodePage = .rdata:0x100500F4; // type:object size:0x4
__imp__IsValidLocale = .rdata:0x100500F8; // type:object size:0x4
__imp__GetLocaleInfoA = .rdata:0x100500FC; // type:object size:0x4
__imp__FlushFileBuffers@4 = .rdata:0x10050100; // type:object scope:global
lbl_3_rdata_10050100 = .rdata:0x10050100; // type:object size:0xC
__imp__SetStdHandle = .rdata:0x10050104; // type:object
__imp__GetCPInfo = .rdata:0x10050108; // type:object
__imp__IsBadCodePtr = .rdata:0x1005010C; // type:object size:0x4
__imp__IsBadReadPtr = .rdata:0x10050110; // type:object size:0x4
__imp__UnhandledExceptionFilter = .rdata:0x10050114; // type:object size:0x4
__imp__GetEnvironmentStringsW@0 = .rdata:0x10050118; // type:object scope:global
lbl_3_rdata_10050118 = .rdata:0x10050118; // type:object size:0x8
__imp__GetEnvironmentStrings = .rdata:0x1005011C; // type:object
__imp__SetUnhandledExceptionFilter = .rdata:0x10050120; // type:object size:0x4
__imp__CompareStringW = .rdata:0x10050124; // type:object size:0x4
__imp__QueryPerformanceCounter = .rdata:0x10050128; // type:object size:0x4
__imp__TlsGetValue@4 = .rdata:0x1005012C; // type:object scope:global
lbl_3_rdata_1005012C = .rdata:0x1005012C; // type:object size:0x4
__imp__GetCurrentThread = .rdata:0x10050130; // type:object size:0x4
__imp__EnterCriticalSection@4 = .rdata:0x10050134; // type:object scope:global
lbl_3_rdata_10050134 = .rdata:0x10050134; // type:object size:0x10
__imp__GetModuleHandleA = .rdata:0x10050138; // type:object
__imp__GetSystemTimeAsFileTime = .rdata:0x1005013C; // type:object
__imp__DeleteFileA = .rdata:0x10050140; // type:object
__imp__LocalAlloc = .rdata:0x10050144; // type:object size:0x4
__imp__InterlockedExchange = .rdata:0x10050148; // type:object size:0x4
__imp__RaiseException = .rdata:0x1005014C; // type:object size:0x4
__imp__GetLastError@0 = .rdata:0x10050150; // type:object scope:global
lbl_3_rdata_10050150 = .rdata:0x10050150; // type:object size:0x4
__imp__LocalFree = .rdata:0x10050154; // type:object size:0x4
__imp__RtlUnwind = .rdata:0x10050158; // type:object size:0x4
__imp__HeapFree@12 = .rdata:0x1005015C; // type:object scope:global
lbl_3_rdata_1005015C = .rdata:0x1005015C; // type:object size:0x2C
__imp__HeapAlloc = .rdata:0x10050160; // type:object
__imp__GetTimeZoneInformation = .rdata:0x10050164; // type:object
__imp__GetSystemTime = .rdata:0x10050168; // type:object
__imp__GetLocalTime = .rdata:0x1005016C; // type:object
__imp__InterlockedDecrement = .rdata:0x10050170; // type:object
__imp__InterlockedIncrement = .rdata:0x10050174; // type:object
__imp__GetCommandLineA = .rdata:0x10050178; // type:object
__imp__GetVersion = .rdata:0x1005017C; // type:object
__imp__GetCurrentThreadId = .rdata:0x10050180; // type:object
__imp__TlsSetValue = .rdata:0x10050184; // type:object
__imp__FatalAppExitA = .rdata:0x10050188; // type:object size:0x4
__imp__ExitProcess@4 = .rdata:0x1005018C; // type:object scope:global
lbl_3_rdata_1005018C = .rdata:0x1005018C; // type:object size:0x14
__imp__FreeEnvironmentStringsW = .rdata:0x10050190; // type:object
__imp__FreeEnvironmentStringsA = .rdata:0x10050194; // type:object
__imp__SetEnvironmentVariableA = .rdata:0x10050198; // type:object
__imp__GetModuleFileNameA = .rdata:0x1005019C; // type:object
__imp__GetEnvironmentVariableA = .rdata:0x100501A0; // type:object size:0x4
__imp__HeapDestroy = .rdata:0x100501A4; // type:object size:0x4
__imp__HeapCreate = .rdata:0x100501A8; // type:object size:0x4
__imp__VirtualFree = .rdata:0x100501AC; // type:object size:0x4
__imp__VirtualAlloc@16 = .rdata:0x100501B0; // type:object scope:global
lbl_3_rdata_100501B0 = .rdata:0x100501B0; // type:object size:0x8
__imp__HeapReAlloc = .rdata:0x100501B4; // type:object
__imp__IsBadWritePtr = .rdata:0x100501B8; // type:object size:0x4
__imp__SetEnvironmentVariableW = .rdata:0x100501BC; // type:object size:0x4
__imp__GetStdHandle@4 = .rdata:0x100501C0; // type:object scope:global
lbl_3_rdata_100501C0 = .rdata:0x100501C0; // type:object size:0xC
__imp__TerminateProcess = .rdata:0x100501C4; // type:object
__imp__GetCurrentProcess = .rdata:0x100501C8; // type:object
__imp__HeapSize = .rdata:0x100501CC; // type:object size:0x4
__imp__SetHandleCount@4 = .rdata:0x100501D0; // type:object scope:global
lbl_3_rdata_100501D0 = .rdata:0x100501D0; // type:object size:0xC
__imp__GetFileType = .rdata:0x100501D4; // type:object
__imp__GetStartupInfoA = .rdata:0x100501D8; // type:object
__imp__LCMapStringA = .rdata:0x100501DC; // type:object size:0x4
__imp__LCMapStringW = .rdata:0x100501E0; // type:object size:0x4
__imp_?GetCode@LHLogger@@SAKXZ = .rdata:0x100501E8; // type:object size:0x4
__imp_?GetText@LHLogger@@SAPADXZ = .rdata:0x100501EC; // type:object size:0x4
__imp_?SetString@LHSPrintf@@QAAXPADZZ = .rdata:0x100501F0; // type:object size:0x4
__imp_?RegistrySetString@@YA?AW4LH_RETURN@@PAD00@Z = .rdata:0x100501F4; // type:object size:0x4
__imp_?RegistrySetULong@@YA?AW4LH_RETURN@@PAD0K@Z = .rdata:0x100501F8; // type:object size:0x4
__imp_?RegistryCheckKey@@YAHPAD@Z = .rdata:0x100501FC; // type:object size:0x4
__imp_?RegistryRetrieveData@@YA?AW4LH_RETURN@@PAD0PAEPAK@Z = .rdata:0x10050200; // type:object size:0x4
__imp_?RegistryRetrieveDouble@@YA?AW4LH_RETURN@@PAD0PAN@Z = .rdata:0x10050204; // type:object size:0x4
__imp_?EncryptBlock@LHVersion@@SAXPAEG@Z = .rdata:0x10050208; // type:object size:0x4
__imp_?RegistrySetWString@@YA?AW4LH_RETURN@@PAD0PAG@Z = .rdata:0x1005020C; // type:object size:0x4
__imp_?RegistryRetrieveWString@@YA?AW4LH_RETURN@@PAD0PAGPAK@Z = .rdata:0x10050210; // type:object size:0x4
__imp_?RegistryRetrieveString@@YA?AW4LH_RETURN@@PAD00PAK@Z = .rdata:0x10050214; // type:object size:0x4
__imp_?LHRegistryGetCurrentKey@@YA?AW4LH_REG_KEY_TYPE@@XZ = .rdata:0x10050218; // type:object size:0x4
__imp_?LHRegistrySetCurrentKey@@YAXW4LH_REG_KEY_TYPE@@@Z = .rdata:0x1005021C; // type:object size:0x4
__imp_?ModuleChecksum@LHVersion@@0KA = .rdata:0x10050220; // type:object size:0x4
__imp_?AppendString@LHSPrintf@@QAAXPADZZ = .rdata:0x10050224; // type:object size:0x4
__imp_?ModuleChecksumString@LHVersion@@0PADA = .rdata:0x10050228; // type:object size:0x4
__imp_??0LHSPrintf@@QAA@PADZZ = .rdata:0x1005022C; // type:object size:0x4
__imp_?GetFileName@LHLogger@@SAPADPAD@Z = .rdata:0x10050230; // type:object size:0x4
__imp_?RegistryRetrieveULong@@YA?AW4LH_RETURN@@PAD0PAK@Z = .rdata:0x10050234; // type:object size:0x4
__imp_??1LHVersion@@QAE@XZ = .rdata:0x10050238; // type:object size:0x4
__imp_?LogS@LHLogger@@SAXPAD0K0ZZ = .rdata:0x1005023C; // type:object size:0x4
__imp_?_lhbeginthread@@YAKPADP6AXPAX@ZI1J@Z = .rdata:0x10050240; // type:object size:0x4
__imp_?ChecksumBlock@LHVersion@@SAKPAEG@Z = .rdata:0x10050244; // type:object size:0x4
__imp_??0LHVersion@@QAE@PAULHVersionBlock@@@Z = .rdata:0x10050248; // type:object size:0x4
__imp_?GetMajorMinorULONG@LHVersion@@SA?AW4LH_RETURN@@PADPAK@Z = .rdata:0x1005024C; // type:object size:0x4
__imp_?RegistrySetDouble@@YA?AW4LH_RETURN@@PAD0N@Z = .rdata:0x10050250; // type:object size:0x4
__imp_?RegistrySetData@@YA?AW4LH_RETURN@@PAD0PAEK@Z = .rdata:0x10050254; // type:object size:0x4
__imp__wsprintfA = .rdata:0x1005025C; // type:object size:0x4
__imp__timeGetTime = .rdata:0x10050264; // type:object size:0x4
__imp__WSOCK32_8 = .rdata:0x1005026C; // type:object size:0x4
lbl_3_rdata_10050270 = .rdata:0x10050270; // type:object size:0x2C
??_7LHPacketisableObject@@6B@ = .rdata:0x1005029C; // type:object size:0x10
??_7LHTransportInfo@@6B@ = .rdata:0x100502AC; // type:object size:0x10
??_7LHPlayer@@6B@ = .rdata:0x100502BC; // type:object size:0x10
??_7LHConnection@@6B@ = .rdata:0x100502CC; // type:object size:0x10
??_7LHChannel@@6B@ = .rdata:0x100502DC; // type:object size:0x14
??_7LHLocalLobbyInfo@@6B@ = .rdata:0x100502F0; // type:object size:0x10
??_7LHLobbyChannel@@6B@ = .rdata:0x10050300; // type:object size:0x14
??_7LHLobby@@6B@ = .rdata:0x10050314; // type:object size:0x10
??_7LHSession@@6B@ = .rdata:0x10050324; // type:object size:0x10
??_7LHTransport@@6B@ = .rdata:0x10050334; // type:object size:0x54
??_7LHSyncTransport@@6B@ = .rdata:0x10050388; // type:object size:0x54
??_7LHAsyncTransport@@6B@ = .rdata:0x100503DC; // type:object size:0x54
??_7LHTransportRemote@@6B@ = .rdata:0x10050430; // type:object size:0x74
??_7LHTransportTCP@@6B@ = .rdata:0x100504A4; // type:object size:0x74
??_7LHTransportUDP@@6B@ = .rdata:0x10050518; // type:object size:0x74
lbl_1005058C = .rdata:0x1005058C; // type:object size:0x10
lbl_1005059C = .rdata:0x1005059C; // type:object size:0x20
lbl_100505BC = .rdata:0x100505BC; // type:object size:0x4
lbl_100505C0 = .rdata:0x100505C0; // type:object size:0xE data:string
lbl_100505D0 = .rdata:0x100505D0; // type:object size:0x8 data:string
lbl_100505D8 = .rdata:0x100505D8; // type:object size:0x4
lbl_100505DC = .rdata:0x100505DC; // type:object size:0x4
lbl_100505E0 = .rdata:0x100505E0; // type:object size:0x4
??_7LHSocket@@6B@ = .rdata:0x100505E4; // type:object size:0x28
??_7LHSocketTCP@@6B@ = .rdata:0x1005060C; // type:object size:0x28
lbl_10050634 = .rdata:0x10050634; // type:object size:0x20
lbl_10050654 = .rdata:0x10050654; // type:object size:0x20
lbl_10050674 = .rdata:0x10050674; // type:object size:0x14
lbl_10050688 = .rdata:0x10050688; // type:object size:0x16 data:string
??_7LHMail@@6B@ = .rdata:0x100506A0; // type:object size:0x18
??_7LHMailOutlook@@6B@ = .rdata:0x100506B8; // type:object size:0x18
??_7LHMailPOP3@@6B@ = .rdata:0x100506D0; // type:object size:0x18
lbl_100506E8 = .rdata:0x100506E8; // type:object size:0x2C
lbl_10050714 = .rdata:0x10050714; // type:object size:0x2C
lbl_10050740 = .rdata:0x10050740; // type:object size:0xC
lbl_1005074C = .rdata:0x1005074C; // type:object size:0x3C
lbl_10050788 = .rdata:0x10050788; // type:object size:0x2
lbl_1005078A = .rdata:0x1005078A; // type:object size:0x2
lbl_1005078C = .rdata:0x1005078C; // type:object size:0x2
lbl_1005078E = .rdata:0x1005078E; // type:object size:0x2
lbl_10050790 = .rdata:0x10050790; // type:object size:0x70
lbl_10050800 = .rdata:0x10050800; // type:object size:0x4C
lbl_1005084C = .rdata:0x1005084C; // type:object size:0x74
lbl_100508C0 = .rdata:0x100508C0; // type:object size:0x78
lbl_10050938 = .rdata:0x10050938; // type:object size:0x4C
lbl_10050984 = .rdata:0x10050984; // type:object size:0x14
lbl_10050998 = .rdata:0x10050998; // type:object size:0x400
lbl_10050D98 = .rdata:0x10050D98; // type:object size:0x2
lbl_10050D9A = .rdata:0x10050D9A; // type:object size:0x7E
lbl_10050E18 = .rdata:0x10050E18; // type:object size:0x78
lbl_10050E90 = .rdata:0x10050E90; // type:object size:0x100
lbl_10050F90 = .rdata:0x10050F90; // type:object size:0x100
lbl_10051090 = .rdata:0x10051090; // type:object size:0x100
lbl_10051190 = .rdata:0x10051190; // type:object size:0x74
lbl_10051204 = .rdata:0x10051204; // type:object size:0xA8
lbl_100512AC = .rdata:0x100512AC; // type:object size:0x7C
lbl_10051328 = .rdata:0x10051328; // type:object size:0x7C
lbl_100513A4 = .rdata:0x100513A4; // type:object size:0x78
lbl_1005141C = .rdata:0x1005141C; // type:object size:0x7C
$T16509 = .rdata:0x10051498; // type:object scope:local
lbl_3_rdata_10051498 = .rdata:0x10051498; // type:object size:0x10
lbl_100514A8 = .rdata:0x100514A8; // type:object size:0x10
$T267 = .rdata:0x100514B8; // type:object scope:local
lbl_3_rdata_100514B8 = .rdata:0x100514B8; // type:object size:0x10
lbl_100514C8 = .rdata:0x100514C8; // type:object size:0x18
lbl_100514E0 = .rdata:0x100514E0; // type:object size:0x18
lbl_100514F8 = .rdata:0x100514F8; // type:object size:0x8 data:string
lbl_10051500 = .rdata:0x10051500; // type:object size:0x14 data:string
lbl_10051514 = .rdata:0x10051514; // type:object size:0x7 data:string
lbl_1005151C = .rdata:0x1005151C; // type:object size:0x3 data:string
lbl_10051520 = .rdata:0x10051520; // type:object size:0x3 data:string
lbl_10051524 = .rdata:0x10051524; // type:object size:0x9 data:string
lbl_10051530 = .rdata:0x10051530; // type:object size:0x9 data:string
lbl_1005153C = .rdata:0x1005153C; // type:object size:0x8 data:string
lbl_10051544 = .rdata:0x10051544; // type:object size:0xA data:string
lbl_10051550 = .rdata:0x10051550; // type:object size:0x7 data:string
lbl_10051558 = .rdata:0x10051558; // type:object size:0x5 data:string
lbl_10051560 = .rdata:0x10051560; // type:object size:0x5 data:string
lbl_10051568 = .rdata:0x10051568; // type:object size:0x6 data:string
lbl_10051570 = .rdata:0x10051570; // type:object size:0x6 data:string
lbl_10051578 = .rdata:0x10051578; // type:object size:0x9 data:string
lbl_10051584 = .rdata:0x10051584; // type:object size:0x8 data:string
lbl_1005158C = .rdata:0x1005158C; // type:object size:0x4 data:string
lbl_10051590 = .rdata:0x10051590; // type:object size:0x4 data:string
lbl_10051594 = .rdata:0x10051594; // type:object size:0x4 data:string
lbl_10051598 = .rdata:0x10051598; // type:object size:0x4 data:string
lbl_1005159C = .rdata:0x1005159C; // type:object size:0x4 data:string
lbl_100515A0 = .rdata:0x100515A0; // type:object size:0x4 data:string
lbl_100515A4 = .rdata:0x100515A4; // type:object size:0x4 data:string
lbl_100515A8 = .rdata:0x100515A8; // type:object size:0x4 data:string
lbl_100515AC = .rdata:0x100515AC; // type:object size:0x4 data:string
lbl_100515B0 = .rdata:0x100515B0; // type:object size:0x4 data:string
lbl_100515B4 = .rdata:0x100515B4; // type:object size:0x4 data:string
lbl_100515B8 = .rdata:0x100515B8; // type:object size:0x4 data:string
lbl_100515BC = .rdata:0x100515BC; // type:object size:0x9 data:string
lbl_100515C8 = .rdata:0x100515C8; // type:object size:0x7 data:string
lbl_100515D0 = .rdata:0x100515D0; // type:object size:0x9 data:string
lbl_100515DC = .rdata:0x100515DC; // type:object size:0xA data:string
lbl_100515E8 = .rdata:0x100515E8; // type:object size:0x8 data:string
lbl_100515F0 = .rdata:0x100515F0; // type:object size:0x7 data:string
lbl_100515F8 = .rdata:0x100515F8; // type:object size:0x7 data:string
lbl_10051600 = .rdata:0x10051600; // type:object size:0x4 data:string
lbl_10051604 = .rdata:0x10051604; // type:object size:0x4 data:string
lbl_10051608 = .rdata:0x10051608; // type:object size:0x4 data:string
lbl_1005160C = .rdata:0x1005160C; // type:object size:0x4 data:string
lbl_10051610 = .rdata:0x10051610; // type:object size:0x4 data:string
lbl_10051614 = .rdata:0x10051614; // type:object size:0x4 data:string
lbl_10051618 = .rdata:0x10051618; // type:object size:0x4 data:string
lbl_1005161C = .rdata:0x1005161C; // type:object size:0x4 data:string
lbl_10051620 = .rdata:0x10051620; // type:object size:0x6 data:string
lbl_10051628 = .rdata:0x10051628; // type:object size:0x18
??_C@_02JHIA@TZ?$AA@ = .rdata:0x10051640; // type:object scope:global data:string
lbl_3_rdata_10051640 = .rdata:0x10051640; // type:object size:0x8
lbl_10051648 = .rdata:0x10051648; // type:object size:0x10
lbl_10051658 = .rdata:0x10051658; // type:object size:0x18
lbl_10051670 = .rdata:0x10051670; // type:object size:0x10
$T17343 = .rdata:0x10051680; // type:object scope:local
lbl_3_rdata_10051680 = .rdata:0x10051680; // type:object size:0x10
lbl_10051690 = .rdata:0x10051690; // type:object size:0x18
lbl_100516A8 = .rdata:0x100516A8; // type:object size:0x18
lbl_100516C0 = .rdata:0x100516C0; // type:object size:0x17 data:string
lbl_100516D8 = .rdata:0x100516D8; // type:object size:0x15 data:string
lbl_100516F0 = .rdata:0x100516F0; // type:object size:0x18
lbl_10051708 = .rdata:0x10051708; // type:object size:0x18
lbl_10051720 = .rdata:0x10051720; // type:object size:0x8
lbl_10051728 = .rdata:0x10051728; // type:object size:0x8
lbl_10051730 = .rdata:0x10051730; // type:object size:0x8
??_C@_0BK@JEGK@IsProcessorFeaturePresent?$AA@ = .rdata:0x10051738; // type:object scope:global data:string
lbl_3_rdata_10051738 = .rdata:0x10051738; // type:object size:0x18
lbl_10051750 = .rdata:0x10051750; // type:object size:0x2 data:string
lbl_3_rdata_10051752 = .rdata:0x10051752; // type:object size:0x16
??_C@_08OBID@KERNEL32?$AA@ = .rdata:0x10051754; // type:object scope:global data:string
__real@8@00000000000000000000 = .rdata:0x10051760; // type:object scope:global
lbl_10051768 = .rdata:0x10051768; // type:object size:0x6 data:string
lbl_10051770 = .rdata:0x10051770; // type:object size:0x5C
lbl_100517CC = .rdata:0x100517CC; // type:object size:0x10
lbl_100517DC = .rdata:0x100517DC; // type:object size:0x7 data:string
lbl_100517E4 = .rdata:0x100517E4; // type:object size:0x4
lbl_100517E8 = .rdata:0x100517E8; // type:object size:0x8
lbl_100517F0 = .rdata:0x100517F0; // type:object size:0x18
lbl_10051808 = .rdata:0x10051808; // type:object size:0x8 data:string
lbl_10051810 = .rdata:0x10051810; // type:object size:0xB data:string
lbl_1005181C = .rdata:0x1005181C; // type:object size:0xC data:string
lbl_10051828 = .rdata:0x10051828; // type:object size:0x9 data:string
lbl_10051834 = .rdata:0x10051834; // type:object size:0xB data:string
lbl_10051840 = .rdata:0x10051840; // type:object size:0x7 data:string
lbl_10051848 = .rdata:0x10051848; // type:object size:0x2 data:string
lbl_1005184C = .rdata:0x1005184C; // type:object size:0x3 data:string
lbl_10051850 = .rdata:0x10051850; // type:object size:0x2 data:string
lbl_10051854 = .rdata:0x10051854; // type:object size:0x4 data:string
lbl_10051858 = .rdata:0x10051858; // type:object size:0x44
lbl_1005189C = .rdata:0x1005189C; // type:object size:0xF data:string
lbl_100518AC = .rdata:0x100518AC; // type:object size:0xE data:string
lbl_100518BC = .rdata:0x100518BC; // type:object size:0xD data:string
lbl_100518CC = .rdata:0x100518CC; // type:object size:0xF data:string
lbl_100518DC = .rdata:0x100518DC; // type:object size:0x25 data:string
lbl_10051904 = .rdata:0x10051904; // type:object size:0x35 data:string
lbl_1005193C = .rdata:0x1005193C; // type:object size:0x35 data:string
lbl_10051974 = .rdata:0x10051974; // type:object size:0x26 data:string
lbl_1005199C = .rdata:0x1005199C; // type:object size:0x35 data:string
lbl_100519D4 = .rdata:0x100519D4; // type:object size:0x29 data:string
lbl_10051A00 = .rdata:0x10051A00; // type:object size:0x21 data:string
lbl_10051A24 = .rdata:0x10051A24; // type:object size:0x2D data:string
lbl_10051A54 = .rdata:0x10051A54; // type:object size:0x2C data:string
lbl_10051A80 = .rdata:0x10051A80; // type:object size:0x21 data:string
lbl_10051AA4 = .rdata:0x10051AA4; // type:object size:0x2C data:string
lbl_10051AD0 = .rdata:0x10051AD0; // type:object size:0x2A data:string
lbl_10051AFC = .rdata:0x10051AFC; // type:object size:0x25 data:string
lbl_10051B24 = .rdata:0x10051B24; // type:object size:0x25 data:string
lbl_10051B4C = .rdata:0x10051B4C; // type:object size:0x3 data:string
lbl_10051B50 = .rdata:0x10051B50; // type:object size:0x1A data:string
lbl_10051B6C = .rdata:0x10051B6C; // type:object size:0x4 data:string
lbl_10051B70 = .rdata:0x10051B70; // type:object size:0x17 data:string
lbl_10051B88 = .rdata:0x10051B88; // type:object size:0x9 data:string
lbl_10051B94 = .rdata:0x10051B94; // type:object size:0x8 data:string
lbl_10051B9C = .rdata:0x10051B9C; // type:object size:0x6 data:string
lbl_10051BA4 = .rdata:0x10051BA4; // type:object size:0x8 data:string
lbl_10051BAC = .rdata:0x10051BAC; // type:object size:0xA data:string
lbl_10051BB8 = .rdata:0x10051BB8; // type:object size:0x5 data:string
lbl_10051BC0 = .rdata:0x10051BC0; // type:object size:0x9 data:string
lbl_10051BCC = .rdata:0x10051BCC; // type:object size:0xA data:string
lbl_10051BD8 = .rdata:0x10051BD8; // type:object size:0x13 data:string
lbl_10051BEC = .rdata:0x10051BEC; // type:object size:0xD data:string
lbl_10051BFC = .rdata:0x10051BFC; // type:object size:0x7 data:string
lbl_10051C04 = .rdata:0x10051C04; // type:object size:0xB data:string
lbl_10051C10 = .rdata:0x10051C10; // type:object size:0xB data:string
lbl_10051C1C = .rdata:0x10051C1C; // type:object size:0xC data:string
lbl_10051C28 = .rdata:0x10051C28; // type:object size:0xA data:string
lbl_10051C34 = .rdata:0x10051C34; // type:object size:0x7 data:string
lbl_10051C3C = .rdata:0x10051C3C; // type:object size:0x16 data:string
lbl_10051C54 = .rdata:0x10051C54; // type:object size:0xA data:string
lbl_10051C60 = .rdata:0x10051C60; // type:object size:0x8 data:string
lbl_10051C68 = .rdata:0x10051C68; // type:object size:0x8 data:string
lbl_10051C70 = .rdata:0x10051C70; // type:object size:0x7 data:string
lbl_10051C78 = .rdata:0x10051C78; // type:object size:0x8 data:string
lbl_10051C80 = .rdata:0x10051C80; // type:object size:0x7 data:string
lbl_10051C88 = .rdata:0x10051C88; // type:object size:0x8 data:string
lbl_10051C90 = .rdata:0x10051C90; // type:object size:0x7 data:string
lbl_10051C98 = .rdata:0x10051C98; // type:object size:0x7 data:string
lbl_10051CA0 = .rdata:0x10051CA0; // type:object size:0x8 data:string
lbl_10051CA8 = .rdata:0x10051CA8; // type:object size:0x8 data:string
lbl_10051CB0 = .rdata:0x10051CB0; // type:object size:0xA data:string
lbl_10051CBC = .rdata:0x10051CBC; // type:object size:0x7 data:string
lbl_10051CC4 = .rdata:0x10051CC4; // type:object size:0x7 data:string
lbl_10051CCC = .rdata:0x10051CCC; // type:object size:0x8 data:string
lbl_10051CD4 = .rdata:0x10051CD4; // type:object size:0x8 data:string
lbl_10051CDC = .rdata:0x10051CDC; // type:object size:0x6 data:string
lbl_10051CE4 = .rdata:0x10051CE4; // type:object size:0x1B data:string
lbl_10051D00 = .rdata:0x10051D00; // type:object size:0xE data:string
lbl_10051D10 = .rdata:0x10051D10; // type:object size:0xF data:string
lbl_10051D20 = .rdata:0x10051D20; // type:object size:0x12 data:string
lbl_10051D34 = .rdata:0x10051D34; // type:object size:0xC data:string
lbl_10051D40 = .rdata:0x10051D40; // type:object size:0xD data:string
lbl_10051D50 = .rdata:0x10051D50; // type:object size:0xC data:string
lbl_10051D5C = .rdata:0x10051D5C; // type:object size:0xD data:string
lbl_10051D6C = .rdata:0x10051D6C; // type:object size:0x7 data:string
lbl_10051D74 = .rdata:0x10051D74; // type:object size:0xC data:string
lbl_10051D80 = .rdata:0x10051D80; // type:object size:0x9 data:string
lbl_10051D8C = .rdata:0x10051D8C; // type:object size:0x9 data:string
lbl_10051D98 = .rdata:0x10051D98; // type:object size:0x3 data:string
lbl_10051D9C = .rdata:0x10051D9C; // type:object size:0xC data:string
lbl_10051DA8 = .rdata:0x10051DA8; // type:object size:0xA data:string
lbl_10051DB4 = .rdata:0x10051DB4; // type:object size:0x8 data:string
lbl_10051DBC = .rdata:0x10051DBC; // type:object size:0xE data:string
lbl_10051DCC = .rdata:0x10051DCC; // type:object size:0x8 data:string
lbl_10051DD4 = .rdata:0x10051DD4; // type:object size:0x6 data:string
lbl_10051DDC = .rdata:0x10051DDC; // type:object size:0x6 data:string
lbl_10051DE4 = .rdata:0x10051DE4; // type:object size:0x8 data:string
lbl_10051DEC = .rdata:0x10051DEC; // type:object size:0x8 data:string
lbl_10051DF4 = .rdata:0x10051DF4; // type:object size:0x4 data:string
lbl_10051DF8 = .rdata:0x10051DF8; // type:object size:0x3 data:string
lbl_10051DFC = .rdata:0x10051DFC; // type:object size:0x3 data:string
lbl_10051E00 = .rdata:0x10051E00; // type:object size:0x6 data:string
lbl_10051E08 = .rdata:0x10051E08; // type:object size:0x10 data:string
lbl_10051E18 = .rdata:0x10051E18; // type:object size:0x12 data:string
lbl_10051E2C = .rdata:0x10051E2C; // type:object size:0x10 data:string
lbl_10051E3C = .rdata:0x10051E3C; // type:object size:0x14 data:string
lbl_10051E50 = .rdata:0x10051E50; // type:object size:0xD data:string
lbl_10051E60 = .rdata:0x10051E60; // type:object size:0x11 data:string
lbl_10051E74 = .rdata:0x10051E74; // type:object size:0xF data:string
lbl_10051E84 = .rdata:0x10051E84; // type:object size:0x12 data:string
lbl_10051E98 = .rdata:0x10051E98; // type:object size:0xF data:string
lbl_10051EA8 = .rdata:0x10051EA8; // type:object size:0x10 data:string
lbl_10051EB8 = .rdata:0x10051EB8; // type:object size:0x11 data:string
lbl_10051ECC = .rdata:0x10051ECC; // type:object size:0x12 data:string
lbl_10051EE0 = .rdata:0x10051EE0; // type:object size:0x14 data:string
lbl_10051EF4 = .rdata:0x10051EF4; // type:object size:0x10 data:string
lbl_10051F04 = .rdata:0x10051F04; // type:object size:0x1B data:string
lbl_10051F20 = .rdata:0x10051F20; // type:object size:0x13 data:string
lbl_10051F34 = .rdata:0x10051F34; // type:object size:0x11 data:string
lbl_10051F48 = .rdata:0x10051F48; // type:object size:0xE data:string
lbl_10051F58 = .rdata:0x10051F58; // type:object size:0x10 data:string
lbl_10051F68 = .rdata:0x10051F68; // type:object size:0x12 data:string
lbl_10051F7C = .rdata:0x10051F7C; // type:object size:0x15 data:string
lbl_10051F94 = .rdata:0x10051F94; // type:object size:0x12 data:string
lbl_10051FA8 = .rdata:0x10051FA8; // type:object size:0x11 data:string
lbl_10051FBC = .rdata:0x10051FBC; // type:object size:0xA data:string
lbl_10051FC8 = .rdata:0x10051FC8; // type:object size:0xE data:string
lbl_10051FD8 = .rdata:0x10051FD8; // type:object size:0xE data:string
lbl_10051FE8 = .rdata:0x10051FE8; // type:object size:0xD data:string
lbl_10051FF8 = .rdata:0x10051FF8; // type:object size:0x12 data:string
lbl_1005200C = .rdata:0x1005200C; // type:object size:0x14 data:string
lbl_10052020 = .rdata:0x10052020; // type:object size:0x10 data:string
lbl_10052030 = .rdata:0x10052030; // type:object size:0xD data:string
lbl_10052040 = .rdata:0x10052040; // type:object size:0x12 data:string
lbl_10052054 = .rdata:0x10052054; // type:object size:0x10 data:string
lbl_10052064 = .rdata:0x10052064; // type:object size:0xF data:string
lbl_10052074 = .rdata:0x10052074; // type:object size:0xC data:string
lbl_10052080 = .rdata:0x10052080; // type:object size:0xB data:string
lbl_1005208C = .rdata:0x1005208C; // type:object size:0xB data:string
lbl_10052098 = .rdata:0x10052098; // type:object size:0x1A data:string
lbl_100520B4 = .rdata:0x100520B4; // type:object size:0x15 data:string
lbl_100520CC = .rdata:0x100520CC; // type:object size:0xB data:string
lbl_100520D8 = .rdata:0x100520D8; // type:object size:0x10 data:string
lbl_100520E8 = .rdata:0x100520E8; // type:object size:0xC data:string
lbl_100520F4 = .rdata:0x100520F4; // type:object size:0x12 data:string
lbl_10052108 = .rdata:0x10052108; // type:object size:0xC data:string
lbl_10052114 = .rdata:0x10052114; // type:object size:0xF data:string
lbl_10052124 = .rdata:0x10052124; // type:object size:0xC data:string
lbl_10052130 = .rdata:0x10052130; // type:object size:0x11 data:string
lbl_10052144 = .rdata:0x10052144; // type:object size:0xE data:string
lbl_10052154 = .rdata:0x10052154; // type:object size:0x14 data:string
lbl_10052168 = .rdata:0x10052168; // type:object size:0x12 data:string
lbl_1005217C = .rdata:0x1005217C; // type:object size:0x13 data:string
lbl_10052190 = .rdata:0x10052190; // type:object size:0x11 data:string
lbl_100521A4 = .rdata:0x100521A4; // type:object size:0x8 data:string
lbl_100521AC = .rdata:0x100521AC; // type:object size:0x4 data:string
lbl_100521B0 = .rdata:0x100521B0; // type:object size:0x4 data:string
lbl_100521B4 = .rdata:0x100521B4; // type:object size:0x9 data:string
lbl_100521C0 = .rdata:0x100521C0; // type:object size:0x8 data:string
lbl_100521C8 = .rdata:0x100521C8; // type:object size:0xB data:string
lbl_100521D4 = .rdata:0x100521D4; // type:object size:0x11 data:string
lbl_100521E8 = .rdata:0x100521E8; // type:object size:0x11 data:string
lbl_100521FC = .rdata:0x100521FC; // type:object size:0x9 data:string
lbl_10052208 = .rdata:0x10052208; // type:object size:0x4 data:string
lbl_1005220C = .rdata:0x1005220C; // type:object size:0x4 data:string
lbl_10052210 = .rdata:0x10052210; // type:object size:0x10
lbl_10052220 = .rdata:0x10052220; // type:object size:0x18
??_C@_0BD@NJFP@GetLastActivePopup?$AA@ = .rdata:0x10052238; // type:object scope:global data:string
lbl_3_rdata_10052238 = .rdata:0x10052238; // type:object size:0x3C
??_C@_0BA@GILI@GetActiveWindow?$AA@ = .rdata:0x1005224C; // type:object scope:global data:string
??_C@_0M@PKCK@MessageBoxA?$AA@ = .rdata:0x1005225C; // type:object scope:global data:string
??_C@_0L@HKL@user32?4dll?$AA@ = .rdata:0x10052268; // type:object scope:global data:string
lbl_10052274 = .rdata:0x10052274; // type:object size:0x7 data:string
lbl_1005227C = .rdata:0x1005227C; // type:object size:0x6 data:string
lbl_10052284 = .rdata:0x10052284; // type:object size:0x6 data:string
lbl_1005228C = .rdata:0x1005228C; // type:object size:0x7 data:string
lbl_10052298 = .rdata:0x10052298; // type:object size:0x18
lbl_100522B0 = .rdata:0x100522B0; // type:object size:0x18
lbl_100522C8 = .rdata:0x100522C8; // type:object size:0x10
lbl_100522D8 = .rdata:0x100522D8; // type:object size:0x10
lbl_100522E8 = .rdata:0x100522E8; // type:object size:0x1C
lbl_10052304 = .rdata:0x10052304; // type:object size:0x4
lbl_10052308 = .rdata:0x10052308; // type:object size:0x4
lbl_1005230C = .rdata:0x1005230C; // type:object size:0x194
lbl_100524A0 = .rdata:0x100524A0; // type:object size:0x11 data:string
lbl_100524B4 = .rdata:0x100524B4; // type:object size:0x11 data:string
lbl_100524C8 = .rdata:0x100524C8; // type:object size:0x4
lbl_100524CC = .rdata:0x100524CC; // type:object size:0x1C
lbl_100524E8 = .rdata:0x100524E8; // type:object size:0x20
lbl_10052508 = .rdata:0x10052508; // type:object size:0x8
lbl_10052510 = .rdata:0x10052510; // type:object size:0x20
lbl_10052530 = .rdata:0x10052530; // type:object size:0x10
lbl_10052540 = .rdata:0x10052540; // type:object size:0x20
lbl_10052560 = .rdata:0x10052560; // type:object size:0x8
lbl_10052568 = .rdata:0x10052568; // type:object size:0x20
lbl_10052588 = .rdata:0x10052588; // type:object size:0x8
lbl_10052590 = .rdata:0x10052590; // type:object size:0x20
lbl_100525B0 = .rdata:0x100525B0; // type:object size:0x8
lbl_100525B8 = .rdata:0x100525B8; // type:object size:0x20
lbl_100525D8 = .rdata:0x100525D8; // type:object size:0x8
lbl_100525E0 = .rdata:0x100525E0; // type:object size:0x20
lbl_10052600 = .rdata:0x10052600; // type:object size:0x18
lbl_10052618 = .rdata:0x10052618; // type:object size:0x20
lbl_10052638 = .rdata:0x10052638; // type:object size:0x18
lbl_10052650 = .rdata:0x10052650; // type:object size:0x20
lbl_10052670 = .rdata:0x10052670; // type:object size:0x18
lbl_10052688 = .rdata:0x10052688; // type:object size:0x20
lbl_100526A8 = .rdata:0x100526A8; // type:object size:0x8
lbl_100526B0 = .rdata:0x100526B0; // type:object size:0x20
lbl_100526D0 = .rdata:0x100526D0; // type:object size:0x8
lbl_100526D8 = .rdata:0x100526D8; // type:object size:0x20
lbl_100526F8 = .rdata:0x100526F8; // type:object size:0x8
lbl_10052700 = .rdata:0x10052700; // type:object size:0x20
lbl_10052720 = .rdata:0x10052720; // type:object size:0x10
lbl_10052730 = .rdata:0x10052730; // type:object size:0x20
lbl_10052750 = .rdata:0x10052750; // type:object size:0x8
lbl_10052758 = .rdata:0x10052758; // type:object size:0x20
lbl_10052778 = .rdata:0x10052778; // type:object size:0x18
lbl_10052790 = .rdata:0x10052790; // type:object size:0x20
lbl_100527B0 = .rdata:0x100527B0; // type:object size:0x8
lbl_100527B8 = .rdata:0x100527B8; // type:object size:0x20
lbl_100527D8 = .rdata:0x100527D8; // type:object size:0x8
lbl_100527E0 = .rdata:0x100527E0; // type:object size:0x20
lbl_10052800 = .rdata:0x10052800; // type:object size:0x18
lbl_10052818 = .rdata:0x10052818; // type:object size:0x20
lbl_10052838 = .rdata:0x10052838; // type:object size:0x8
lbl_10052840 = .rdata:0x10052840; // type:object size:0x20
lbl_10052860 = .rdata:0x10052860; // type:object size:0x8
lbl_10052868 = .rdata:0x10052868; // type:object size:0x20
lbl_10052888 = .rdata:0x10052888; // type:object size:0x10
lbl_10052898 = .rdata:0x10052898; // type:object size:0x20
lbl_100528B8 = .rdata:0x100528B8; // type:object size:0x8
lbl_100528C0 = .rdata:0x100528C0; // type:object size:0x20
lbl_100528E0 = .rdata:0x100528E0; // type:object size:0x8
lbl_100528E8 = .rdata:0x100528E8; // type:object size:0x20
lbl_10052908 = .rdata:0x10052908; // type:object size:0x18
lbl_10052920 = .rdata:0x10052920; // type:object size:0x20
lbl_10052940 = .rdata:0x10052940; // type:object size:0x8
lbl_10052948 = .rdata:0x10052948; // type:object size:0x20
lbl_10052968 = .rdata:0x10052968; // type:object size:0x18
lbl_10052980 = .rdata:0x10052980; // type:object size:0x20
lbl_100529A0 = .rdata:0x100529A0; // type:object size:0x18
lbl_100529B8 = .rdata:0x100529B8; // type:object size:0x20
lbl_100529D8 = .rdata:0x100529D8; // type:object size:0x30
lbl_10052A08 = .rdata:0x10052A08; // type:object size:0x20
lbl_10052A28 = .rdata:0x10052A28; // type:object size:0x18
lbl_10052A40 = .rdata:0x10052A40; // type:object size:0x20
lbl_10052A60 = .rdata:0x10052A60; // type:object size:0x8
lbl_10052A68 = .rdata:0x10052A68; // type:object size:0x20
lbl_10052A88 = .rdata:0x10052A88; // type:object size:0x38
lbl_10052AC0 = .rdata:0x10052AC0; // type:object size:0x20
lbl_10052AE0 = .rdata:0x10052AE0; // type:object size:0x20
lbl_10052B00 = .rdata:0x10052B00; // type:object size:0x20
lbl_10052B20 = .rdata:0x10052B20; // type:object size:0x20
lbl_10052B40 = .rdata:0x10052B40; // type:object size:0x20
lbl_10052B60 = .rdata:0x10052B60; // type:object size:0x28
lbl_10052B88 = .rdata:0x10052B88; // type:object size:0x20
lbl_10052BA8 = .rdata:0x10052BA8; // type:object size:0x18
lbl_10052BC0 = .rdata:0x10052BC0; // type:object size:0x20
lbl_10052BE0 = .rdata:0x10052BE0; // type:object size:0x10
lbl_10052BF0 = .rdata:0x10052BF0; // type:object size:0x20
lbl_10052C10 = .rdata:0x10052C10; // type:object size:0x20
lbl_10052C30 = .rdata:0x10052C30; // type:object size:0x20
lbl_10052C50 = .rdata:0x10052C50; // type:object size:0x18
lbl_10052C68 = .rdata:0x10052C68; // type:object size:0x20
lbl_10052C88 = .rdata:0x10052C88; // type:object size:0x10
lbl_10052C98 = .rdata:0x10052C98; // type:object size:0x20
lbl_10052CB8 = .rdata:0x10052CB8; // type:object size:0x18
lbl_10052CD0 = .rdata:0x10052CD0; // type:object size:0x20
lbl_10052CF0 = .rdata:0x10052CF0; // type:object size:0x18
lbl_10052D08 = .rdata:0x10052D08; // type:object size:0x20
lbl_10052D28 = .rdata:0x10052D28; // type:object size:0x10
lbl_10052D38 = .rdata:0x10052D38; // type:object size:0x20
lbl_10052D58 = .rdata:0x10052D58; // type:object size:0x10
lbl_10052D68 = .rdata:0x10052D68; // type:object size:0x20
lbl_10052D88 = .rdata:0x10052D88; // type:object size:0x8
lbl_10052D90 = .rdata:0x10052D90; // type:object size:0x20
lbl_10052DB0 = .rdata:0x10052DB0; // type:object size:0x10
lbl_10052DC0 = .rdata:0x10052DC0; // type:object size:0x20
lbl_10052DE0 = .rdata:0x10052DE0; // type:object size:0x8
lbl_10052DE8 = .rdata:0x10052DE8; // type:object size:0x20
lbl_10052E08 = .rdata:0x10052E08; // type:object size:0x10
lbl_10052E18 = .rdata:0x10052E18; // type:object size:0x20
lbl_10052E38 = .rdata:0x10052E38; // type:object size:0x8
lbl_10052E40 = .rdata:0x10052E40; // type:object size:0x20
lbl_10052E60 = .rdata:0x10052E60; // type:object size:0x8
lbl_10052E68 = .rdata:0x10052E68; // type:object size:0x20
lbl_10052E88 = .rdata:0x10052E88; // type:object size:0x8
lbl_10052E90 = .rdata:0x10052E90; // type:object size:0x20
lbl_10052EB0 = .rdata:0x10052EB0; // type:object size:0x20
lbl_10052ED0 = .rdata:0x10052ED0; // type:object size:0x20
lbl_10052EF0 = .rdata:0x10052EF0; // type:object size:0x8
lbl_10052EF8 = .rdata:0x10052EF8; // type:object size:0x20
lbl_10052F18 = .rdata:0x10052F18; // type:object size:0x8
lbl_10052F20 = .rdata:0x10052F20; // type:object size:0x20
lbl_10052F40 = .rdata:0x10052F40; // type:object size:0x8
lbl_10052F48 = .rdata:0x10052F48; // type:object size:0x20
lbl_10052F68 = .rdata:0x10052F68; // type:object size:0x8
lbl_10052F70 = .rdata:0x10052F70; // type:object size:0x20
lbl_10052F90 = .rdata:0x10052F90; // type:object size:0x8
lbl_10052F98 = .rdata:0x10052F98; // type:object size:0x20
lbl_10052FB8 = .rdata:0x10052FB8; // type:object size:0x10
lbl_10052FC8 = .rdata:0x10052FC8; // type:object size:0x20
lbl_10052FE8 = .rdata:0x10052FE8; // type:object size:0x8
lbl_10052FF0 = .rdata:0x10052FF0; // type:object size:0x20
lbl_10053010 = .rdata:0x10053010; // type:object size:0x8
lbl_10053018 = .rdata:0x10053018; // type:object size:0x20
lbl_10053038 = .rdata:0x10053038; // type:object size:0x20
lbl_10053058 = .rdata:0x10053058; // type:object size:0x20
lbl_10053078 = .rdata:0x10053078; // type:object size:0x18
lbl_10053090 = .rdata:0x10053090; // type:object size:0x20
lbl_100530B0 = .rdata:0x100530B0; // type:object size:0x28
lbl_100530D8 = .rdata:0x100530D8; // type:object size:0x20
lbl_100530F8 = .rdata:0x100530F8; // type:object size:0x40
lbl_10053138 = .rdata:0x10053138; // type:object size:0x20
lbl_10053158 = .rdata:0x10053158; // type:object size:0x8
lbl_10053160 = .rdata:0x10053160; // type:object size:0x20
lbl_10053180 = .rdata:0x10053180; // type:object size:0x8
lbl_10053188 = .rdata:0x10053188; // type:object size:0x20
lbl_100531A8 = .rdata:0x100531A8; // type:object size:0x8
lbl_100531B0 = .rdata:0x100531B0; // type:object size:0x20
lbl_100531D0 = .rdata:0x100531D0; // type:object size:0x8
lbl_100531D8 = .rdata:0x100531D8; // type:object size:0x20
lbl_100531F8 = .rdata:0x100531F8; // type:object size:0x10
lbl_10053208 = .rdata:0x10053208; // type:object size:0x20
lbl_10053228 = .rdata:0x10053228; // type:object size:0x20
lbl_10053248 = .rdata:0x10053248; // type:object size:0x20
lbl_10053268 = .rdata:0x10053268; // type:object size:0x8
lbl_10053270 = .rdata:0x10053270; // type:object size:0x20
lbl_10053290 = .rdata:0x10053290; // type:object size:0x8
lbl_10053298 = .rdata:0x10053298; // type:object size:0x20
lbl_100532B8 = .rdata:0x100532B8; // type:object size:0x8
lbl_100532C0 = .rdata:0x100532C0; // type:object size:0x20
lbl_100532E0 = .rdata:0x100532E0; // type:object size:0x8
lbl_100532E8 = .rdata:0x100532E8; // type:object size:0x20
lbl_10053308 = .rdata:0x10053308; // type:object size:0x8
lbl_10053310 = .rdata:0x10053310; // type:object size:0x20
lbl_10053330 = .rdata:0x10053330; // type:object size:0x8
lbl_10053338 = .rdata:0x10053338; // type:object size:0x20
lbl_10053358 = .rdata:0x10053358; // type:object size:0x8
lbl_10053360 = .rdata:0x10053360; // type:object size:0x20
lbl_10053380 = .rdata:0x10053380; // type:object size:0x8
lbl_10053388 = .rdata:0x10053388; // type:object size:0x40
lbl_100533C8 = .rdata:0x100533C8; // type:object size:0x78
lbl_10053440 = .rdata:0x10053440; // type:object size:0x14
lbl_10053454 = .rdata:0x10053454; // type:object size:0xD481
lbl_10061000 = .data:0x10061000; // type:object size:0x94
lbl_10061094 = .data:0x10061094; // type:object size:0x4
lbl_10061098 = .data:0x10061098; // type:object size:0x18
lbl_100610B0 = .data:0x100610B0; // type:object size:0x4
___xp_a = .data:0x100610B4; // type:object scope:global
lbl_3_data_100610B4 = .data:0x100610B4; // type:object size:0x24
___xp_z = .data:0x100610BC; // type:object scope:global
___xt_a = .data:0x100610C0; // type:object scope:global
___xt_z = .data:0x100610C8; // type:object scope:global
?LH_CHANNEL_DEFAULT_NAME@@3PBDB = .data:0x100610D8; // type:object size:0x4
lbl_100610DC = .data:0x100610DC; // type:object size:0x8 data:string
lbl_100610E4 = .data:0x100610E4; // type:object size:0x1C
lbl_10061100 = .data:0x10061100; // type:object size:0x194
lbl_10061294 = .data:0x10061294; // type:object size:0x15 data:string
lbl_100612AC = .data:0x100612AC; // type:object size:0x8
lbl_100612B4 = .data:0x100612B4; // type:object size:0x19 data:string
lbl_100612D0 = .data:0x100612D0; // type:object size:0x44 data:string
lbl_10061314 = .data:0x10061314; // type:object size:0x19 data:string
lbl_10061330 = .data:0x10061330; // type:object size:0xE data:string
lbl_10061340 = .data:0x10061340; // type:object size:0xA data:string
lbl_1006134C = .data:0x1006134C; // type:object size:0xD data:string
lbl_1006135C = .data:0x1006135C; // type:object size:0xC data:string
lbl_10061368 = .data:0x10061368; // type:object size:0x14
lbl_1006137C = .data:0x1006137C; // type:object size:0x4
lbl_10061380 = .data:0x10061380; // type:object size:0x4
lbl_10061384 = .data:0x10061384; // type:object size:0x4
lbl_10061388 = .data:0x10061388; // type:object size:0x14
lbl_1006139C = .data:0x1006139C; // type:object size:0x4
lbl_100613A0 = .data:0x100613A0; // type:object size:0x4
lbl_100613A4 = .data:0x100613A4; // type:object size:0x4
lbl_100613A8 = .data:0x100613A8; // type:object size:0x4
lbl_100613AC = .data:0x100613AC; // type:object size:0x7 data:string
lbl_100613B4 = .data:0x100613B4; // type:object size:0x3 data:string
lbl_100613B8 = .data:0x100613B8; // type:object size:0x52 data:string
lbl_1006140C = .data:0x1006140C; // type:object size:0x3 data:string
lbl_10061410 = .data:0x10061410; // type:object size:0x6 data:string
lbl_10061418 = .data:0x10061418; // type:object size:0x3 data:string
lbl_1006141C = .data:0x1006141C; // type:object size:0x10 data:string
lbl_1006142C = .data:0x1006142C; // type:object size:0xB data:string
lbl_10061438 = .data:0x10061438; // type:object size:0x4 data:string
lbl_1006143C = .data:0x1006143C; // type:object size:0x8 data:string
lbl_10061444 = .data:0x10061444; // type:object size:0x28 data:string
lbl_1006146C = .data:0x1006146C; // type:object size:0x5 data:string
lbl_10061474 = .data:0x10061474; // type:object size:0x4 data:string
lbl_10061478 = .data:0x10061478; // type:object size:0x3 data:string
lbl_1006147C = .data:0x1006147C; // type:object size:0x3 data:string
lbl_10061480 = .data:0x10061480; // type:object size:0x8 data:string
lbl_10061488 = .data:0x10061488; // type:object size:0x3 data:string
lbl_1006148C = .data:0x1006148C; // type:object size:0x4
lbl_10061490 = .data:0x10061490; // type:object size:0x2B data:string
lbl_100614BC = .data:0x100614BC; // type:object size:0x7 data:string
lbl_100614C4 = .data:0x100614C4; // type:object size:0xC data:string
lbl_100614D0 = .data:0x100614D0; // type:object size:0x5 data:string
lbl_100614D8 = .data:0x100614D8; // type:object size:0x5 data:string
lbl_100614E0 = .data:0x100614E0; // type:object size:0x6 data:string
lbl_100614E8 = .data:0x100614E8; // type:object size:0x3 data:string
lbl_100614EC = .data:0x100614EC; // type:object size:0x2 data:string
lbl_100614F0 = .data:0x100614F0; // type:object size:0xA data:string
lbl_100614FC = .data:0x100614FC; // type:object size:0xA data:string
lbl_10061508 = .data:0x10061508; // type:object size:0x8 data:string
lbl_10061510 = .data:0x10061510; // type:object size:0x13 data:string
lbl_10061524 = .data:0x10061524; // type:object size:0x6 data:string
lbl_1006152C = .data:0x1006152C; // type:object size:0xE data:string
lbl_1006153C = .data:0x1006153C; // type:object size:0x7 data:string
lbl_10061544 = .data:0x10061544; // type:object size:0x10 data:string
lbl_10061554 = .data:0x10061554; // type:object size:0x9 data:string
lbl_10061560 = .data:0x10061560; // type:object size:0x6 data:string
lbl_10061568 = .data:0x10061568; // type:object size:0x9 data:string
lbl_10061574 = .data:0x10061574; // type:object size:0x14 data:string
lbl_10061588 = .data:0x10061588; // type:object size:0x2 data:string
lbl_1006158C = .data:0x1006158C; // type:object size:0x8 data:string
lbl_10061594 = .data:0x10061594; // type:object size:0x2 data:string
lbl_10061598 = .data:0x10061598; // type:object size:0x2 data:string
lbl_1006159C = .data:0x1006159C; // type:object size:0x5 data:string
lbl_100615A4 = .data:0x100615A4; // type:object size:0xB data:string
lbl_100615B0 = .data:0x100615B0; // type:object size:0x34 data:string
lbl_100615E4 = .data:0x100615E4; // type:object size:0xB data:string
lbl_100615F0 = .data:0x100615F0; // type:object size:0x10 data:string
lbl_10061600 = .data:0x10061600; // type:object size:0x12 data:string
lbl_10061614 = .data:0x10061614; // type:object size:0x5 data:string
lbl_1006161C = .data:0x1006161C; // type:object size:0xB data:string
lbl_10061628 = .data:0x10061628; // type:object size:0x8 data:string
lbl_10061630 = .data:0x10061630; // type:object size:0x12 data:string
lbl_10061644 = .data:0x10061644; // type:object size:0xF data:string
lbl_10061654 = .data:0x10061654; // type:object size:0xC
lbl_10061660 = .data:0x10061660; // type:object size:0x3 data:string
lbl_10061664 = .data:0x10061664; // type:object size:0x4
lbl_10061668 = .data:0x10061668; // type:object size:0x5 data:string
lbl_10061670 = .data:0x10061670; // type:object size:0x8 data:string
lbl_10061678 = .data:0x10061678; // type:object size:0xE data:string
lbl_10061688 = .data:0x10061688; // type:object size:0x5 data:string
lbl_10061690 = .data:0x10061690; // type:object size:0x10
lbl_100616A0 = .data:0x100616A0; // type:object size:0x194
lbl_10061834 = .data:0x10061834; // type:object size:0x7 data:string
lbl_1006183C = .data:0x1006183C; // type:object size:0x16 data:string
lbl_10061854 = .data:0x10061854; // type:object size:0x36 data:string
lbl_1006188C = .data:0x1006188C; // type:object size:0x26 data:string
lbl_100618B4 = .data:0x100618B4; // type:object size:0x26 data:string
lbl_100618DC = .data:0x100618DC; // type:object size:0xB data:string
lbl_100618E8 = .data:0x100618E8; // type:object size:0xE data:string
lbl_100618F8 = .data:0x100618F8; // type:object size:0x3 data:string
lbl_100618FC = .data:0x100618FC; // type:object size:0x2A data:string
lbl_10061928 = .data:0x10061928; // type:object size:0xA data:string
lbl_10061934 = .data:0x10061934; // type:object size:0x3 data:string
lbl_10061938 = .data:0x10061938; // type:object size:0x2F data:string
lbl_10061968 = .data:0x10061968; // type:object size:0xF data:string
lbl_10061978 = .data:0x10061978; // type:object size:0x6 data:string
lbl_10061980 = .data:0x10061980; // type:object size:0xF data:string
lbl_10061990 = .data:0x10061990; // type:object size:0xA data:string
lbl_1006199C = .data:0x1006199C; // type:object size:0x15 data:string
lbl_100619B4 = .data:0x100619B4; // type:object size:0x16 data:string
lbl_100619CC = .data:0x100619CC; // type:object size:0x9 data:string
lbl_100619D8 = .data:0x100619D8; // type:object size:0xD data:string
lbl_100619E8 = .data:0x100619E8; // type:object size:0x11 data:string
lbl_100619FC = .data:0x100619FC; // type:object size:0x15 data:string
lbl_10061A14 = .data:0x10061A14; // type:object size:0xF data:string
lbl_10061A24 = .data:0x10061A24; // type:object size:0x71 data:string
lbl_10061A98 = .data:0x10061A98; // type:object size:0x11 data:string
lbl_10061AAC = .data:0x10061AAC; // type:object size:0xD data:string
lbl_10061ABC = .data:0x10061ABC; // type:object size:0xF data:string
lbl_10061ACC = .data:0x10061ACC; // type:object size:0x87 data:string
lbl_10061B54 = .data:0x10061B54; // type:object size:0xF data:string
lbl_10061B64 = .data:0x10061B64; // type:object size:0x2A data:string
lbl_10061B90 = .data:0x10061B90; // type:object size:0xB data:string
lbl_10061B9C = .data:0x10061B9C; // type:object size:0x14
lbl_10061BB0 = .data:0x10061BB0; // type:object size:0x194
lbl_10061D44 = .data:0x10061D44; // type:object size:0x8
lbl_10061D4C = .data:0x10061D4C; // type:object size:0x18 data:string
lbl_10061D64 = .data:0x10061D64; // type:object size:0x4
lbl_10061D68 = .data:0x10061D68; // type:object size:0xC data:string
lbl_10061D78 = .data:0x10061D78; // type:object size:0x108
lbl_10061E80 = .data:0x10061E80; // type:object size:0x38 data:string
lbl_10061EB8 = .data:0x10061EB8; // type:object size:0x31 data:string
lbl_10061EEC = .data:0x10061EEC; // type:object size:0x1B data:string
lbl_10061F08 = .data:0x10061F08; // type:object size:0x28 data:string
lbl_10061F30 = .data:0x10061F30; // type:object size:0x1A data:string
lbl_10061F4C = .data:0x10061F4C; // type:object size:0x17 data:string
lbl_10061F64 = .data:0x10061F64; // type:object size:0x15 data:string
lbl_10061F7C = .data:0x10061F7C; // type:object size:0x16 data:string
lbl_10061F94 = .data:0x10061F94; // type:object size:0x31 data:string
lbl_10061FC8 = .data:0x10061FC8; // type:object size:0x1A data:string
lbl_10061FE4 = .data:0x10061FE4; // type:object size:0x1B data:string
lbl_10062000 = .data:0x10062000; // type:object size:0x21 data:string
lbl_10062024 = .data:0x10062024; // type:object size:0xE data:string
lbl_10062034 = .data:0x10062034; // type:object size:0x14 data:string
lbl_10062048 = .data:0x10062048; // type:object size:0x29 data:string
lbl_10062074 = .data:0x10062074; // type:object size:0x46 data:string
lbl_100620BC = .data:0x100620BC; // type:object size:0x46 data:string
lbl_10062104 = .data:0x10062104; // type:object size:0x15 data:string
lbl_1006211C = .data:0x1006211C; // type:object size:0x31 data:string
lbl_10062150 = .data:0x10062150; // type:object size:0x2C data:string
lbl_1006217C = .data:0x1006217C; // type:object size:0x15 data:string
lbl_10062194 = .data:0x10062194; // type:object size:0x1F data:string
lbl_100621B4 = .data:0x100621B4; // type:object size:0x11 data:string
lbl_100621C8 = .data:0x100621C8; // type:object size:0x1C data:string
lbl_100621E4 = .data:0x100621E4; // type:object size:0x28 data:string
lbl_1006220C = .data:0x1006220C; // type:object size:0x42 data:string
lbl_10062250 = .data:0x10062250; // type:object size:0x49 data:string
lbl_1006229C = .data:0x1006229C; // type:object size:0x20 data:string
lbl_100622BC = .data:0x100622BC; // type:object size:0x2A data:string
lbl_100622E8 = .data:0x100622E8; // type:object size:0x16 data:string
lbl_10062300 = .data:0x10062300; // type:object size:0x25 data:string
lbl_10062328 = .data:0x10062328; // type:object size:0x28
?MessageDescriptors@LHNetEvent@@0PAULHNetMessageFormatDescriptor@@A = .data:0x10062350; // type:object size:0x1F0
lbl_10062540 = .data:0x10062540; // type:object size:0x3 data:string
lbl_10062544 = .data:0x10062544; // type:object size:0x2 data:string
lbl_10062548 = .data:0x10062548; // type:object size:0x5 data:string
lbl_10062550 = .data:0x10062550; // type:object size:0x3 data:string
lbl_10062554 = .data:0x10062554; // type:object size:0x2 data:string
lbl_10062558 = .data:0x10062558; // type:object size:0x6 data:string
lbl_10062560 = .data:0x10062560; // type:object size:0x3 data:string
lbl_10062564 = .data:0x10062564; // type:object size:0x4 data:string
lbl_10062568 = .data:0x10062568; // type:object size:0x6 data:string
lbl_10062570 = .data:0x10062570; // type:object size:0x3 data:string
lbl_10062574 = .data:0x10062574; // type:object size:0x4 data:string
lbl_10062578 = .data:0x10062578; // type:object size:0x4 data:string
lbl_1006257C = .data:0x1006257C; // type:object size:0x6 data:string
lbl_10062584 = .data:0x10062584; // type:object size:0x5 data:string
lbl_1006258C = .data:0x1006258C; // type:object size:0x3 data:string
lbl_10062590 = .data:0x10062590; // type:object size:0x5 data:string
lbl_10062598 = .data:0x10062598; // type:object size:0x6 data:string
lbl_100625A0 = .data:0x100625A0; // type:object size:0x7 data:string
lbl_100625A8 = .data:0x100625A8; // type:object size:0x5 data:string
lbl_100625B0 = .data:0x100625B0; // type:object size:0x7 data:string
lbl_100625B8 = .data:0x100625B8; // type:object size:0x3 data:string
lbl_100625BC = .data:0x100625BC; // type:object size:0x4 data:string
lbl_100625C0 = .data:0x100625C0; // type:object size:0x4 data:string
lbl_100625C4 = .data:0x100625C4; // type:object size:0x5 data:string
lbl_100625CC = .data:0x100625CC; // type:object size:0x4 data:string
lbl_100625D0 = .data:0x100625D0; // type:object size:0x6 data:string
lbl_100625D8 = .data:0x100625D8; // type:object size:0x3 data:string
lbl_100625DC = .data:0x100625DC; // type:object size:0x6 data:string
lbl_100625E4 = .data:0x100625E4; // type:object size:0x3 data:string
lbl_100625E8 = .data:0x100625E8; // type:object size:0x2 data:string
lbl_100625EC = .data:0x100625EC; // type:object size:0x2 data:string
lbl_100625F0 = .data:0x100625F0; // type:object size:0x2 data:string
lbl_100625F4 = .data:0x100625F4; // type:object size:0x3 data:string
lbl_100625F8 = .data:0x100625F8; // type:object size:0x7 data:string
lbl_10062600 = .data:0x10062600; // type:object size:0x3 data:string
lbl_10062604 = .data:0x10062604; // type:object size:0x3 data:string
lbl_10062608 = .data:0x10062608; // type:object size:0x3 data:string
lbl_1006260C = .data:0x1006260C; // type:object size:0x14
lbl_10062620 = .data:0x10062620; // type:object size:0x4
lbl_10062624 = .data:0x10062624; // type:object size:0xB data:string
lbl_10062630 = .data:0x10062630; // type:object size:0xB data:string
lbl_1006263C = .data:0x1006263C; // type:object size:0x24 data:string
lbl_10062660 = .data:0x10062660; // type:object size:0xC data:string
lbl_1006266C = .data:0x1006266C; // type:object size:0x30
lbl_1006269C = .data:0x1006269C; // type:object size:0x2C
lbl_100626C8 = .data:0x100626C8; // type:object size:0x30
?LH_NET_REGISTRY_KEY@@3PBDB = .data:0x100626F8; // type:object size:0x4
?LH_NET_PROFILES_KEY@@3PBDB = .data:0x100626FC; // type:object size:0x4
?LH_NET_MACHINE_DEFAULT_BROWSER@@3PBDB = .data:0x10062700; // type:object size:0x4
?LH_NET_BW_CURRENT_VERSION@@3PBDB = .data:0x10062704; // type:object size:0x4
?LH_NET_PROFILE@@3PBDB = .data:0x10062708; // type:object size:0x4
?LH_NET_PROFILE_FILE_NAME@@3PBDB = .data:0x1006270C; // type:object size:0x4
?LH_NET_PROFILE_LOGIN_NAME@@3PBDB = .data:0x10062710; // type:object size:0x4
?LH_NET_REGISTRY_LOBBY@@3PBDB = .data:0x10062714; // type:object size:0x4
?LH_NET_REGISTRY_LOGIN_SERVER@@3PBDB = .data:0x10062718; // type:object size:0x4
lbl_1006271C = .data:0x1006271C; // type:object size:0x10
?CheckInternetConnectionOptions@@3DA = .data:0x1006272C; // type:object size:0x4
lbl_10062730 = .data:0x10062730; // type:object size:0xB data:string
lbl_1006273C = .data:0x1006273C; // type:object size:0x11 data:string
lbl_10062750 = .data:0x10062750; // type:object size:0xF data:string
lbl_10062760 = .data:0x10062760; // type:object size:0x6 data:string
lbl_10062768 = .data:0x10062768; // type:object size:0x6 data:string
lbl_10062770 = .data:0x10062770; // type:object size:0x5 data:string
lbl_10062778 = .data:0x10062778; // type:object size:0x8 data:string
lbl_10062780 = .data:0x10062780; // type:object size:0x2C data:string
lbl_100627AC = .data:0x100627AC; // type:object size:0x30 data:string
lbl_100627DC = .data:0x100627DC; // type:object size:0x43 data:string
lbl_10062820 = .data:0x10062820; // type:object size:0x3A data:string
lbl_1006285C = .data:0x1006285C; // type:object size:0x8 data:string
lbl_10062864 = .data:0x10062864; // type:object size:0x6 data:string
lbl_1006286C = .data:0x1006286C; // type:object size:0x11 data:string
lbl_3_data_1006287D = .data:0x1006287D; // type:object size:0x7
??_C@_01PJCK@?4?$AA@ = .data:0x10062880; // type:object scope:global data:string
lbl_10062884 = .data:0x10062884; // type:object size:0x3 data:string
lbl_10062888 = .data:0x10062888; // type:object size:0xC data:string
lbl_10062894 = .data:0x10062894; // type:object size:0x3 data:string
lbl_10062898 = .data:0x10062898; // type:object size:0xC data:string
lbl_100628A4 = .data:0x100628A4; // type:object size:0xC data:string
lbl_100628B0 = .data:0x100628B0; // type:object size:0x6 data:string
lbl_100628B8 = .data:0x100628B8; // type:object size:0xF data:string
lbl_100628C8 = .data:0x100628C8; // type:object size:0x10 data:string
lbl_100628D8 = .data:0x100628D8; // type:object size:0x13 data:string
lbl_100628EC = .data:0x100628EC; // type:object size:0x14 data:string
lbl_10062900 = .data:0x10062900; // type:object size:0x25
lbl_10062925 = .data:0x10062925; // type:object size:0x43
lbl_10062968 = .data:0x10062968; // type:object size:0x2 data:string
lbl_1006296C = .data:0x1006296C; // type:object size:0x3 data:string
lbl_10062970 = .data:0x10062970; // type:object size:0x7 data:string
lbl_10062978 = .data:0x10062978; // type:object size:0xB data:string
lbl_10062984 = .data:0x10062984; // type:object size:0x4 data:string
lbl_10062988 = .data:0x10062988; // type:object size:0xC data:string
lbl_10062994 = .data:0x10062994; // type:object size:0x7 data:string
lbl_1006299C = .data:0x1006299C; // type:object size:0x7 data:string
lbl_100629A4 = .data:0x100629A4; // type:object size:0xA data:string
lbl_100629B0 = .data:0x100629B0; // type:object size:0x3 data:string
lbl_100629B4 = .data:0x100629B4; // type:object size:0x4 data:string
lbl_100629B8 = .data:0x100629B8; // type:object size:0x8 data:string
lbl_100629C0 = .data:0x100629C0; // type:object size:0x8 data:string
lbl_100629C8 = .data:0x100629C8; // type:object size:0x5 data:string
lbl_100629D0 = .data:0x100629D0; // type:object size:0xA data:string
lbl_100629DC = .data:0x100629DC; // type:object size:0x5 data:string
lbl_100629E4 = .data:0x100629E4; // type:object size:0x5 data:string
lbl_100629EC = .data:0x100629EC; // type:object size:0x4 data:string
lbl_100629F0 = .data:0x100629F0; // type:object size:0x4 data:string
lbl_100629F4 = .data:0x100629F4; // type:object size:0x14
lbl_10062A08 = .data:0x10062A08; // type:object size:0x18
lbl_10062A20 = .data:0x10062A20; // type:object size:0x16 data:string
lbl_10062A38 = .data:0x10062A38; // type:object size:0x1F data:string
lbl_10062A58 = .data:0x10062A58; // type:object size:0x14 data:string
lbl_10062A6C = .data:0x10062A6C; // type:object size:0x12 data:string
lbl_10062A80 = .data:0x10062A80; // type:object size:0x13 data:string
lbl_10062A94 = .data:0x10062A94; // type:object size:0x14 data:string
lbl_10062AA8 = .data:0x10062AA8; // type:object size:0x12 data:string
lbl_10062ABC = .data:0x10062ABC; // type:object size:0x28
lbl_10062AE4 = .data:0x10062AE4; // type:object size:0x18 data:string
lbl_10062B00 = .data:0x10062B00; // type:object size:0x190
lbl_10062C90 = .data:0x10062C90; // type:object size:0x4
lbl_10062C94 = .data:0x10062C94; // type:object size:0x6 data:string
lbl_10062C9C = .data:0x10062C9C; // type:object size:0x10 data:string
lbl_10062CAC = .data:0x10062CAC; // type:object size:0x15 data:string
lbl_10062CC4 = .data:0x10062CC4; // type:object size:0x17 data:string
lbl_10062CDC = .data:0x10062CDC; // type:object size:0x14 data:string
lbl_10062CF0 = .data:0x10062CF0; // type:object size:0x1B data:string
lbl_10062D0C = .data:0x10062D0C; // type:object size:0x4
lbl_10062D10 = .data:0x10062D10; // type:object size:0x1A data:string
lbl_10062D2C = .data:0x10062D2C; // type:object size:0x24 data:string
lbl_10062D50 = .data:0x10062D50; // type:object size:0x1D data:string
lbl_10062D70 = .data:0x10062D70; // type:object size:0x1C
lbl_10062D8C = .data:0x10062D8C; // type:object size:0x8
lbl_10062D94 = .data:0x10062D94; // type:object size:0x8
lbl_10062D9C = .data:0x10062D9C; // type:object size:0x4
lbl_10062DA0 = .data:0x10062DA0; // type:object size:0xC
lbl_10062DAC = .data:0x10062DAC; // type:object size:0x15 data:string
lbl_10062DC4 = .data:0x10062DC4; // type:object size:0xD data:string
lbl_10062DD4 = .data:0x10062DD4; // type:object size:0x14 data:string
lbl_10062DE8 = .data:0x10062DE8; // type:object size:0xB data:string
lbl_10062DF4 = .data:0x10062DF4; // type:object size:0xD data:string
lbl_10062E04 = .data:0x10062E04; // type:object size:0xB data:string
lbl_10062E10 = .data:0x10062E10; // type:object size:0xB data:string
lbl_10062E20 = .data:0x10062E20; // type:object size:0x18
lbl_10062E38 = .data:0x10062E38; // type:object size:0x18
lbl_10062E50 = .data:0x10062E50; // type:object size:0x14
lbl_10062E64 = .data:0x10062E64; // type:object size:0x16 data:string
lbl_10062E7C = .data:0x10062E7C; // type:object size:0x1C data:string
lbl_10062E98 = .data:0x10062E98; // type:object size:0x2 data:string
lbl_10062E9C = .data:0x10062E9C; // type:object size:0x4
lbl_10062EA0 = .data:0x10062EA0; // type:object size:0x1000
lbl_10063EA0 = .data:0x10063EA0; // type:object size:0x100
lbl_10063FA0 = .data:0x10063FA0; // type:object size:0x24 data:string
lbl_10063FC4 = .data:0x10063FC4; // type:object size:0x28 data:string
lbl_10063FEC = .data:0x10063FEC; // type:object size:0x1F data:string
lbl_1006400C = .data:0x1006400C; // type:object size:0x23 data:string
lbl_10064030 = .data:0x10064030; // type:object size:0x21 data:string
lbl_10064054 = .data:0x10064054; // type:object size:0x19 data:string
lbl_10064070 = .data:0x10064070; // type:object size:0x1D data:string
lbl_10064090 = .data:0x10064090; // type:object size:0x44
lbl_100640D4 = .data:0x100640D4; // type:object size:0x24
lbl_100640F8 = .data:0x100640F8; // type:object size:0x18
___lc_time_curr = .data:0x10064110; // type:object scope:global
lbl_3_data_10064110 = .data:0x10064110; // type:object size:0xD4
___lc_time_c = .data:0x10064118; // type:object scope:global
_dststart = .data:0x100641C8; // type:object scope:local
data_0x100641cc = .data:0x100641CC; // type:object scope:local
data_0x100641d0 = .data:0x100641D0; // type:object scope:local
_dstend = .data:0x100641D8; // type:object scope:local
data_0x100641dc = .data:0x100641DC; // type:object scope:local
data_0x100641e0 = .data:0x100641E0; // type:object scope:local
lbl_100641E4 = .data:0x100641E4; // type:object size:0xC
___tlsindex = .data:0x100641F0; // type:object scope:global
lbl_3_data_100641F0 = .data:0x100641F0; // type:object size:0x4
lbl_100641F4 = .data:0x100641F4; // type:object size:0xC
lbl_10064200 = .data:0x10064200; // type:object size:0x4
lbl_10064204 = .data:0x10064204; // type:object size:0xC
lbl_10064210 = .data:0x10064210; // type:object size:0x8
lbl_10064218 = .data:0x10064218; // type:object size:0x2008
lbl_10066220 = .data:0x10066220; // type:object size:0x4
lbl_10066224 = .data:0x10066224; // type:object size:0x4
__locktable = .data:0x10066228; // type:object scope:global
lbl_3_data_10066228 = .data:0x10066228; // type:object size:0xD8
data_0x1006622c = .data:0x1006622C; // type:object scope:global
data_0x1006624c = .data:0x1006624C; // type:object scope:global
data_0x1006625c = .data:0x1006625C; // type:object scope:global
data_0x1006626c = .data:0x1006626C; // type:object scope:global
data_0x100662e8 = .data:0x100662E8; // type:object scope:global
__cfltcvt_tab = .data:0x100662EC; // type:object scope:global
data_0x100662f0 = .data:0x100662F0; // type:object scope:global
data_0x100662f4 = .data:0x100662F4; // type:object scope:global
data_0x100662f8 = .data:0x100662F8; // type:object scope:global
data_0x100662fc = .data:0x100662FC; // type:object scope:global
lbl_10066300 = .data:0x10066300; // type:object size:0x4
lbl_10066304 = .data:0x10066304; // type:object size:0x4
__iob = .data:0x10066308; // type:object scope:global
lbl_3_data_10066308 = .data:0x10066308; // type:object size:0x260
data_0x10066318 = .data:0x10066318; // type:object scope:global
data_0x10066328 = .data:0x10066328; // type:object scope:global
data_0x10066348 = .data:0x10066348; // type:object scope:global
data_0x10066378 = .data:0x10066378; // type:object scope:global
lbl_10066568 = .data:0x10066568; // type:object size:0x20
data_0x10066588 = .data:0x10066588; // type:object scope:global
lbl_3_data_10066588 = .data:0x10066588; // type:object size:0x1A8
_sbrackset = .data:0x10066590; // type:object scope:local data:string
_cbrackset = .data:0x10066598; // type:object scope:local data:string
data_0x100665a0 = .data:0x100665A0; // type:object scope:local
data_0x100665a4 = .data:0x100665A4; // type:object scope:local
_errtable = .data:0x10066708; // type:object scope:local
lbl_10066730 = .data:0x10066730; // type:object size:0x2 data:string
lbl_10066734 = .data:0x10066734; // type:object size:0x2 data:string
lbl_100667B8 = .data:0x100667B8; // type:object size:0x8C
lbl_10066844 = .data:0x10066844; // type:object size:0x4
lbl_10066848 = .data:0x10066848; // type:object size:0x4
lbl_1006684C = .data:0x1006684C; // type:object size:0x4
lbl_10066850 = .data:0x10066850; // type:object size:0xC
lbl_1006685C = .data:0x1006685C; // type:object size:0x20
lbl_1006687C = .data:0x1006687C; // type:object size:0x4
lbl_10066880 = .data:0x10066880; // type:object size:0x8
__pctype = .data:0x10066888; // type:object scope:global
lbl_3_data_10066888 = .data:0x10066888; // type:object size:0x224
__pwctype = .data:0x1006688C; // type:object scope:global
__ctype = .data:0x10066892; // type:object scope:global
___mb_cur_max = .data:0x10066A94; // type:object scope:global
___decimal_point = .data:0x10066A98; // type:object scope:global data:string
___decimal_point_length = .data:0x10066A9C; // type:object scope:global
__timezone = .data:0x10066AA0; // type:object scope:global
__daylight = .data:0x10066AA4; // type:object scope:global
__dstbias = .data:0x10066AA8; // type:object scope:global
lbl_10066AAC = .data:0x10066AAC; // type:object size:0x4 data:string
lbl_10066AEC = .data:0x10066AEC; // type:object size:0x4 data:string
lbl_3_data_10066AF0 = .data:0x10066AF0; // type:object size:0x4C
__tzname = .data:0x10066B2C; // type:object scope:global
data_0x10066b30 = .data:0x10066B30; // type:object scope:global
lbl_10066B3C = .data:0x10066B3C; // type:object size:0x4
lbl_10066B40 = .data:0x10066B40; // type:object size:0x30
__days = .data:0x10066B70; // type:object scope:global
lbl_3_data_10066B70 = .data:0x10066B70; // type:object size:0x4
lbl_10066B74 = .data:0x10066B74; // type:object size:0x3C
lbl_10066BB0 = .data:0x10066BB0; // type:object size:0x4
lbl_10066BB4 = .data:0x10066BB4; // type:object size:0x8C
__XcptActTab = .data:0x10066C40; // type:object scope:global
lbl_3_data_10066C40 = .data:0x10066C40; // type:object size:0x80
__First_FPE_Indx = .data:0x10066CB8; // type:object scope:global
__Num_FPE = .data:0x10066CBC; // type:object scope:global
lbl_10066CC0 = .data:0x10066CC0; // type:object size:0x2 data:string
lbl_10066CC4 = .data:0x10066CC4; // type:object size:0x2 data:string
lbl_10066CC8 = .data:0x10066CC8; // type:object size:0x18
lbl_10066CE0 = .data:0x10066CE0; // type:object size:0x20
lbl_10066D00 = .data:0x10066D00; // type:object size:0x4
lbl_10066D04 = .data:0x10066D04; // type:object size:0x5 data:string
lbl_10066D0C = .data:0x10066D0C; // type:object size:0x4
lbl_10066D10 = .data:0x10066D10; // type:object size:0x4 data:string
lbl_10066D14 = .data:0x10066D14; // type:object size:0x4
lbl_10066D18 = .data:0x10066D18; // type:object size:0x4 data:string
lbl_10066D1C = .data:0x10066D1C; // type:object size:0x4 data:string
lbl_10066D24 = .data:0x10066D24; // type:object size:0x480
lbl_100671A4 = .data:0x100671A4; // type:object size:0x14
lbl_100671B8 = .data:0x100671B8; // type:object size:0xB8
lbl_10067270 = .data:0x10067270; // type:object size:0x208
___rgctypeflag = .data:0x10067478; // type:object scope:local
lbl_3_data_10067478 = .data:0x10067478; // type:object size:0x138
___rgcode_page_info = .data:0x10067480; // type:object scope:local
data_0x10067484 = .data:0x10067484; // type:object scope:local
data_0x10067490 = .data:0x10067490; // type:object scope:local
___lconv_static_decimal = .data:0x10067570; // type:object scope:global data:string
___lconv_c = .data:0x10067578; // type:object scope:global
data_0x1006757c = .data:0x1006757C; // type:object scope:global
data_0x10067580 = .data:0x10067580; // type:object scope:global
___lconv = .data:0x100675A8; // type:object scope:global
lbl_100675B0 = .data:0x100675B0; // type:object size:0x160
lbl_10067710 = .data:0x10067710; // type:object size:0x15C
lbl_1006786C = .data:0x1006786C; // type:object size:0x5 data:string
lbl_10067874 = .data:0x10067874; // type:object size:0x9 data:string
lbl_10067880 = .data:0x10067880; // type:object size:0x4 data:string
lbl_10067884 = .data:0x10067884; // type:object size:0x9 data:string
lbl_10067890 = .data:0x10067890; // type:object size:0x7 data:string
lbl_10067898 = .data:0x10067898; // type:object size:0x5 data:string
lbl_100678A0 = .data:0x100678A0; // type:object size:0x1D data:string
lbl_100678C0 = .data:0x100678C0; // type:object size:0x4
lbl_100678C4 = .data:0x100678C4; // type:object size:0xA data:string
lbl_100678D0 = .data:0x100678D0; // type:object size:0x9 data:string
lbl_100678DC = .data:0x100678DC; // type:object size:0x7 data:string
lbl_100678E4 = .data:0x100678E4; // type:object size:0x8 data:string
lbl_100678EC = .data:0x100678EC; // type:object size:0x4
lbl_100678F0 = .data:0x100678F0; // type:object size:0x6 data:string
lbl_100678F8 = .data:0x100678F8; // type:object size:0x29 data:string
lbl_10067924 = .data:0x10067924; // type:object size:0x3F data:string
lbl_10067964 = .data:0x10067964; // type:object size:0x4
lbl_10067968 = .data:0x10067968; // type:object size:0x12 data:string
lbl_1006797C = .data:0x1006797C; // type:object size:0xA data:string
lbl_10067988 = .data:0x10067988; // type:object size:0x8 data:string
lbl_10067990 = .data:0x10067990; // type:object size:0x2 data:string
lbl_10067994 = .data:0x10067994; // type:object size:0x49 data:string
lbl_100679E0 = .data:0x100679E0; // type:object size:0xB data:string
lbl_100679EC = .data:0x100679EC; // type:object size:0x6 data:string
lbl_100679F4 = .data:0x100679F4; // type:object size:0xD data:string
lbl_10067A04 = .data:0x10067A04; // type:object size:0x9 data:string
lbl_10067A10 = .data:0x10067A10; // type:object size:0xD data:string
lbl_10067A20 = .data:0x10067A20; // type:object size:0xB data:string
lbl_10067A2C = .data:0x10067A2C; // type:object size:0xB data:string
lbl_10067A38 = .data:0x10067A38; // type:object size:0xB data:string
lbl_10067A44 = .data:0x10067A44; // type:object size:0x8 data:string
lbl_10067A4C = .data:0x10067A4C; // type:object size:0xB data:string
lbl_10067A58 = .data:0x10067A58; // type:object size:0xE data:string
lbl_10067A68 = .data:0x10067A68; // type:object size:0x18
lbl_10067A80 = .data:0x10067A80; // type:object size:0xF data:string
lbl_10067A90 = .data:0x10067A90; // type:object size:0xD data:string
lbl_10067AA0 = .data:0x10067AA0; // type:object size:0x9 data:string
lbl_10067AAC = .data:0x10067AAC; // type:object size:0xB data:string
lbl_10067AB8 = .data:0x10067AB8; // type:object size:0x4 data:string
lbl_10067ABC = .data:0x10067ABC; // type:object size:0x4 data:string
lbl_10067AC0 = .data:0x10067AC0; // type:object size:0x4 data:string
lbl_10067AC4 = .data:0x10067AC4; // type:object size:0x4 data:string
lbl_10067AC8 = .data:0x10067AC8; // type:object size:0x2 data:string
lbl_10067ACA = .data:0x10067ACA; // type:object size:0x2
lbl_10067ACC = .data:0x10067ACC; // type:object size:0x8 data:string
lbl_10067AD4 = .data:0x10067AD4; // type:object size:0xE data:string
lbl_10067AE4 = .data:0x10067AE4; // type:object size:0xE data:string
lbl_10067AF4 = .data:0x10067AF4; // type:object size:0xB data:string
lbl_10067B00 = .data:0x10067B00; // type:object size:0xE data:string
lbl_10067B10 = .data:0x10067B10; // type:object size:0xE data:string
lbl_10067B20 = .data:0x10067B20; // type:object size:0x9 data:string
lbl_10067B2C = .data:0x10067B2C; // type:object size:0x9 data:string
lbl_10067B38 = .data:0x10067B38; // type:object size:0x7 data:string
lbl_10067B40 = .data:0x10067B40; // type:object size:0xD data:string
lbl_10067B50 = .data:0x10067B50; // type:object size:0xF data:string
lbl_10067B60 = .data:0x10067B60; // type:object size:0xE data:string
lbl_10067B70 = .data:0x10067B70; // type:object size:0xE data:string
lbl_10067B80 = .data:0x10067B80; // type:object size:0xE data:string
lbl_10067B90 = .data:0x10067B90; // type:object size:0xE data:string
lbl_10067BA0 = .data:0x10067BA0; // type:object size:0x4 data:string
lbl_10067BA4 = .data:0x10067BA4; // type:object size:0x4 data:string
lbl_10067BA8 = .data:0x10067BA8; // type:object size:0x4 data:string
lbl_10067BAC = .data:0x10067BAC; // type:object size:0x4 data:string
lbl_10067BB0 = .data:0x10067BB0; // type:object size:0xB data:string
lbl_10067BBC = .data:0x10067BBC; // type:object size:0xC data:string
lbl_10067BC8 = .data:0x10067BC8; // type:object size:0x9 data:string
lbl_10067BD4 = .data:0x10067BD4; // type:object size:0x9 data:string
lbl_10067BE0 = .data:0x10067BE0; // type:object size:0xB data:string
lbl_10067BEC = .data:0x10067BEC; // type:object size:0x7 data:string
lbl_10067BF4 = .data:0x10067BF4; // type:object size:0xB data:string
lbl_10067C00 = .data:0x10067C00; // type:object size:0xB data:string
lbl_10067C0C = .data:0x10067C0C; // type:object size:0xB data:string
lbl_10067C18 = .data:0x10067C18; // type:object size:0xB data:string
lbl_10067C24 = .data:0x10067C24; // type:object size:0x8
lbl_10067C2C = .data:0x10067C2C; // type:object size:0x24
lbl_10067C50 = .data:0x10067C50; // type:object size:0xF0
lbl_10067D40 = .data:0x10067D40; // type:object size:0x4
lbl_10067D44 = .data:0x10067D44; // type:object size:0x13 data:string
lbl_10067D84 = .data:0x10067D84; // type:object size:0x7 data:string
lbl_10067D8C = .data:0x10067D8C; // type:object size:0x5 data:string
lbl_10067D94 = .data:0x10067D94; // type:object size:0x8 data:string
lbl_10067D9C = .data:0x10067D9C; // type:object size:0x7 data:string
lbl_10067DA4 = .data:0x10067DA4; // type:object size:0x8 data:string
lbl_10067DAC = .data:0x10067DAC; // type:object size:0x6 data:string
lbl_10067DB4 = .data:0x10067DB4; // type:object size:0x5 data:string
lbl_10067DBC = .data:0x10067DBC; // type:object size:0x6 data:string
lbl_10067DC4 = .data:0x10067DC4; // type:object size:0x10 data:string
lbl_10067DD4 = .data:0x10067DD4; // type:object size:0x2 data:string
lbl_10067DD8 = .data:0x10067DD8; // type:object size:0xF data:string
lbl_10067DE8 = .data:0x10067DE8; // type:object size:0x9 data:string
lbl_10067DF4 = .data:0x10067DF4; // type:object size:0x8 data:string
lbl_10067DFC = .data:0x10067DFC; // type:object size:0xD data:string
lbl_10067E0C = .data:0x10067E0C; // type:object size:0xF data:string
lbl_10067E1C = .data:0x10067E1C; // type:object size:0x1A data:string
lbl_10067E38 = .data:0x10067E38; // type:object size:0x4 data:string
lbl_10067E3C = .data:0x10067E3C; // type:object size:0x9 data:string
lbl_10067E48 = .data:0x10067E48; // type:object size:0x2 data:string
lbl_10067E4C = .data:0x10067E4C; // type:object size:0x2 data:string
lbl_10067E50 = .data:0x10067E50; // type:object size:0x2 data:string
lbl_10067E54 = .data:0x10067E54; // type:object size:0x2 data:string
lbl_10067E58 = .data:0x10067E58; // type:object size:0x4 data:string
lbl_10067E5C = .data:0x10067E5C; // type:object size:0x4 data:string
lbl_10067E60 = .data:0x10067E60; // type:object size:0x2 data:string
lbl_10067E64 = .data:0x10067E64; // type:object size:0x3 data:string
lbl_10067E68 = .data:0x10067E68; // type:object size:0x4 data:string
lbl_10067E6C = .data:0x10067E6C; // type:object size:0x3 data:string
lbl_10067E70 = .data:0x10067E70; // type:object size:0x9 data:string
lbl_10067E7C = .data:0x10067E7C; // type:object size:0x7 data:string
lbl_10067E84 = .data:0x10067E84; // type:object size:0xC data:string
lbl_10067E90 = .data:0x10067E90; // type:object size:0x9 data:string
lbl_10067E9C = .data:0x10067E9C; // type:object size:0x8 data:string
lbl_10067EA4 = .data:0x10067EA4; // type:object size:0xB data:string
lbl_10067EB0 = .data:0x10067EB0; // type:object size:0x5 data:string
lbl_10067EB8 = .data:0x10067EB8; // type:object size:0x7 data:string
lbl_10067EC0 = .data:0x10067EC0; // type:object size:0x6 data:string
lbl_10067EC8 = .data:0x10067EC8; // type:object size:0x4 data:string
lbl_10067ECC = .data:0x10067ECC; // type:object size:0x4 data:string
lbl_10067ED0 = .data:0x10067ED0; // type:object size:0x2 data:string
lbl_10067ED2 = .data:0x10067ED2; // type:object size:0x2
lbl_10067ED4 = .data:0x10067ED4; // type:object size:0x8 data:string
lbl_10067EDC = .data:0x10067EDC; // type:object size:0x8 data:string
lbl_10067EE4 = .data:0x10067EE4; // type:object size:0x8 data:string
lbl_10067EEC = .data:0x10067EEC; // type:object size:0xB data:string
lbl_10067EF8 = .data:0x10067EF8; // type:object size:0xC data:string
lbl_10067F04 = .data:0x10067F04; // type:object size:0xF data:string
lbl_10067F14 = .data:0x10067F14; // type:object size:0x6 data:string
lbl_10067F1C = .data:0x10067F1C; // type:object size:0x3 data:string
lbl_10067F20 = .data:0x10067F20; // type:object size:0x6 data:string
lbl_10067F28 = .data:0x10067F28; // type:object size:0x8 data:string
lbl_10067F30 = .data:0x10067F30; // type:object size:0x9 data:string
lbl_10067F3C = .data:0x10067F3C; // type:object size:0x40
lbl_10067F7C = .data:0x10067F7C; // type:object size:0x5 data:string
lbl_10067F84 = .data:0x10067F84; // type:object size:0x13 data:string
lbl_10067FC4 = .data:0x10067FC4; // type:object size:0x18
lbl_10067FDC = .data:0x10067FDC; // type:object size:0x9 data:string
lbl_10067FE8 = .data:0x10067FE8; // type:object size:0xE data:string
lbl_10067FF8 = .data:0x10067FF8; // type:object size:0xA data:string
lbl_10068004 = .data:0x10068004; // type:object size:0x8 data:string
lbl_1006800C = .data:0x1006800C; // type:object size:0x7 data:string
lbl_10068014 = .data:0x10068014; // type:object size:0x8 data:string
lbl_1006801C = .data:0x1006801C; // type:object size:0x1C data:string
lbl_10068038 = .data:0x10068038; // type:object size:0x25 data:string
lbl_10068060 = .data:0x10068060; // type:object size:0x4 data:string
lbl_10068064 = .data:0x10068064; // type:object size:0x6 data:string
lbl_1006806C = .data:0x1006806C; // type:object size:0x7 data:string
lbl_10068074 = .data:0x10068074; // type:object size:0x43 data:string
lbl_100680B8 = .data:0x100680B8; // type:object size:0x4 data:string
lbl_100680BC = .data:0x100680BC; // type:object size:0x9 data:string
lbl_100680C8 = .data:0x100680C8; // type:object size:0x13 data:string
lbl_100680DC = .data:0x100680DC; // type:object size:0x1F data:string
lbl_100680FC = .data:0x100680FC; // type:object size:0x14 data:string
lbl_10068110 = .data:0x10068110; // type:object size:0x1B data:string
lbl_1006812C = .data:0x1006812C; // type:object size:0x19 data:string
lbl_10068148 = .data:0x10068148; // type:object size:0x18 data:string
lbl_10068160 = .data:0x10068160; // type:object size:0x1E data:string
lbl_10068180 = .data:0x10068180; // type:object size:0x3 data:string
lbl_10068188 = .data:0x10068188; // type:object size:0x4
lbl_1006818C = .data:0x1006818C; // type:object size:0x144
lbl_100682D0 = .data:0x100682D0; // type:object size:0x2 data:string
lbl_100682D4 = .data:0x100682D4; // type:object size:0x4 data:string
lbl_100682D8 = .data:0x100682D8; // type:object size:0x4 data:string
lbl_100682DC = .data:0x100682DC; // type:object size:0x4 data:string
lbl_100682E0 = .data:0x100682E0; // type:object size:0x4 data:string
lbl_100682E4 = .data:0x100682E4; // type:object size:0x4 data:string
lbl_100682E8 = .data:0x100682E8; // type:object size:0x4 data:string
lbl_100682EC = .data:0x100682EC; // type:object size:0x4 data:string
lbl_100682F0 = .data:0x100682F0; // type:object size:0x4 data:string
lbl_100682F4 = .data:0x100682F4; // type:object size:0x4 data:string
lbl_100682F8 = .data:0x100682F8; // type:object size:0x4 data:string
lbl_100682FC = .data:0x100682FC; // type:object size:0x4 data:string
lbl_10068300 = .data:0x10068300; // type:object size:0x4 data:string
lbl_10068304 = .data:0x10068304; // type:object size:0x4 data:string
lbl_10068308 = .data:0x10068308; // type:object size:0x4 data:string
lbl_1006830C = .data:0x1006830C; // type:object size:0x4 data:string
lbl_10068310 = .data:0x10068310; // type:object size:0x4 data:string
lbl_10068314 = .data:0x10068314; // type:object size:0x4 data:string
lbl_10068318 = .data:0x10068318; // type:object size:0x4 data:string
lbl_1006831C = .data:0x1006831C; // type:object size:0x4 data:string
lbl_10068320 = .data:0x10068320; // type:object size:0x4 data:string
lbl_10068324 = .data:0x10068324; // type:object size:0x4 data:string
lbl_10068328 = .data:0x10068328; // type:object size:0x4 data:string
lbl_1006832C = .data:0x1006832C; // type:object size:0x4 data:string
lbl_10068330 = .data:0x10068330; // type:object size:0x4 data:string
lbl_10068334 = .data:0x10068334; // type:object size:0x4 data:string
lbl_10068338 = .data:0x10068338; // type:object size:0x4 data:string
lbl_1006833C = .data:0x1006833C; // type:object size:0x4 data:string
lbl_10068340 = .data:0x10068340; // type:object size:0x7 data:string
lbl_10068348 = .data:0x10068348; // type:object size:0x6 data:string
lbl_10068350 = .data:0x10068350; // type:object size:0x5 data:string
lbl_10068358 = .data:0x10068358; // type:object size:0x6 data:string
lbl_10068360 = .data:0x10068360; // type:object size:0x5 data:string
lbl_10068368 = .data:0x10068368; // type:object size:0x5 data:string
lbl_10068370 = .data:0x10068370; // type:object size:0x5 data:string
lbl_10068378 = .data:0x10068378; // type:object size:0x5 data:string
lbl_10068380 = .data:0x10068380; // type:object size:0x5 data:string
lbl_10068388 = .data:0x10068388; // type:object size:0x4 data:string
lbl_1006838C = .data:0x1006838C; // type:object size:0x7 data:string
lbl_10068394 = .data:0x10068394; // type:object size:0x8 data:string
lbl_1006839C = .data:0x1006839C; // type:object size:0x7 data:string
lbl_100683A4 = .data:0x100683A4; // type:object size:0x18
lbl_100683BC = .data:0x100683BC; // type:object size:0x8 data:string
lbl_100683C4 = .data:0x100683C4; // type:object size:0x2 data:string
lbl_100683C8 = .data:0x100683C8; // type:object size:0x12 data:string
lbl_100683DC = .data:0x100683DC; // type:object size:0x4
lbl_100683E0 = .data:0x100683E0; // type:object size:0x4
lbl_100683E4 = .data:0x100683E4; // type:object size:0x4
lbl_100683E8 = .data:0x100683E8; // type:object size:0x4
lbl_100683EC = .data:0x100683EC; // type:object size:0x4
lbl_100683F0 = .data:0x100683F0; // type:object size:0x4
lbl_100683F4 = .data:0x100683F4; // type:object size:0x4
lbl_100683F8 = .data:0x100683F8; // type:object size:0x4
lbl_100683FC = .data:0x100683FC; // type:object size:0x4
lbl_10068400 = .data:0x10068400; // type:object size:0x4
lbl_10068404 = .data:0x10068404; // type:object size:0x4
lbl_10068408 = .data:0x10068408; // type:object size:0x4
lbl_1006840C = .data:0x1006840C; // type:object size:0x4
lbl_10068410 = .data:0x10068410; // type:object size:0x4
lbl_10068414 = .data:0x10068414; // type:object size:0x4
lbl_10068418 = .data:0x10068418; // type:object size:0x4
lbl_1006841C = .data:0x1006841C; // type:object size:0x4
lbl_10068420 = .data:0x10068420; // type:object size:0x4
lbl_10068424 = .data:0x10068424; // type:object size:0x4
lbl_10068428 = .data:0x10068428; // type:object size:0x4
lbl_1006842C = .data:0x1006842C; // type:object size:0x4
lbl_10068430 = .data:0x10068430; // type:object size:0x4
lbl_10068434 = .data:0x10068434; // type:object size:0x4
lbl_10068438 = .data:0x10068438; // type:object size:0x4
lbl_1006843C = .data:0x1006843C; // type:object size:0x4
lbl_10068440 = .data:0x10068440; // type:object size:0x4
lbl_10068444 = .data:0x10068444; // type:object size:0x4
lbl_10068448 = .data:0x10068448; // type:object size:0x4
lbl_1006844C = .data:0x1006844C; // type:object size:0x4
lbl_10068450 = .data:0x10068450; // type:object size:0x8
lbl_10068458 = .data:0x10068458; // type:object size:0x8
lbl_10068460 = .data:0x10068460; // type:object size:0x1A0
?RegisteredGame@LHConnection@@1PADA = .data:0x10068600; // type:object size:0x34
lbl_10068634 = .data:0x10068634; // type:object size:0x4
lbl_10068638 = .data:0x10068638; // type:object size:0x4
lbl_1006863C = .data:0x1006863C; // type:object size:0x4
lbl_10068640 = .data:0x10068640; // type:object size:0xFC
lbl_1006873C = .data:0x1006873C; // type:object size:0x400
lbl_10068B3C = .data:0x10068B3C; // type:object size:0x4
lbl_10068B40 = .data:0x10068B40; // type:object size:0x8
?GameRunning@LHLobby@@2_NA = .data:0x10068B48; // type:object size:0x4
?UserData@LHLobby@@2PAXA = .data:0x10068B4C; // type:object size:0x4
?UserDataLen@LHLobby@@2KA = .data:0x10068B50; // type:object size:0x4
?MGJCallbackParam@LHLobby@@2PAXA = .data:0x10068B54; // type:object size:0x4
?MGJCallback@LHLobby@@2P6A?AW4LH_MGJ_CALLBACK_RETURN@@PAX@ZA = .data:0x10068B58; // type:object size:0x4
?MessageServerMode@LHLobby@@2W4LH_OPERATING_MODE@@A = .data:0x10068B5C; // type:object size:0x4
?SendFullChecksum@LHLobby@@2HA = .data:0x10068B60; // type:object size:0x4
?RunMessageServerOnThisHost@LHLobby@@2HA = .data:0x10068B64; // type:object size:0x4
?GameFile@LHLobby@@2PADA = .data:0x10068B68; // type:object size:0x108
?UserFile@LHLobby@@2PADA = .data:0x10068C70; // type:object size:0x108
?LANPlayerList@LHLobby@@0V?$LHLinkedList@PAVLHPlayer@@@@A = .data:0x10068D78; // type:object size:0x4
lbl_10068D7C = .data:0x10068D7C; // type:object size:0x4
lbl_10068D80 = .data:0x10068D80; // type:object size:0x4
?InternalLobbyServer@LHLobby@@0PAVLHLobbyServer@@A = .data:0x10068D84; // type:object size:0x4
?InternalLobbyServerRunning@LHLobby@@0HA = .data:0x10068D88; // type:object size:0x4
?OpenLobbyCount@LHLobby@@2KA = .data:0x10068D8C; // type:object size:0x4
lbl_10068D90 = .data:0x10068D90; // type:object size:0x4
?InternalLobbyServerConnection@LHLobby@@0PAV1@A = .data:0x10068D94; // type:object size:0x4
?ConnectedLobbyName@LHLobby@@2PADA = .data:0x10068D98; // type:object size:0x48
?MSAcceptorInfo@LHLobby@@2VLHTransportInfo@@A = .data:0x10068DE0; // type:object size:0x4
lbl_10068DE4 = .data:0x10068DE4; // type:object size:0x4
lbl_10068DE8 = .data:0x10068DE8; // type:object size:0x4
lbl_10068DEC = .data:0x10068DEC; // type:object size:0x4
lbl_10068DF0 = .data:0x10068DF0; // type:object size:0x68
?LocalLobbyList@LHLobby@@0V?$LHLinkedList@PAVLHLocalLobbyInfo@@@@A = .data:0x10068E58; // type:object size:0x4
lbl_10068E5C = .data:0x10068E5C; // type:object size:0x4
?LH_LIONHEAD_DEFAULT_LISTNER_ADDRESS@@3VLHTransportInfo@@A = .data:0x10068E60; // type:object size:0x4
lbl_10068E64 = .data:0x10068E64; // type:object size:0x4
lbl_10068E68 = .data:0x10068E68; // type:object size:0x4
lbl_10068E6C = .data:0x10068E6C; // type:object size:0x68
lbl_10068ED4 = .data:0x10068ED4; // type:object size:0x4
lbl_10068ED8 = .data:0x10068ED8; // type:object size:0x128
lbl_10069078 = .data:0x10069078; // type:object size:0x4
lbl_1006907C = .data:0x1006907C; // type:object size:0x98
lbl_10069114 = .data:0x10069114; // type:object size:0x4
?SeedCounter@LHMail@@2KA = .data:0x10069118; // type:object size:0x8
lbl_10069120 = .data:0x10069120; // type:object size:0x1A0
lbl_100692C0 = .data:0x100692C0; // type:object size:0x8
lbl_100692C8 = .data:0x100692C8; // type:object size:0x180
lbl_10069448 = .data:0x10069448; // type:object size:0x4
lbl_1006944C = .data:0x1006944C; // type:object size:0x4
lbl_10069450 = .data:0x10069450; // type:object size:0x4
lbl_10069454 = .data:0x10069454; // type:object size:0x4
lbl_10069458 = .data:0x10069458; // type:object size:0x4
lbl_1006945C = .data:0x1006945C; // type:object size:0x4
?UserFileDirectory@LHNetEvent@@2PADA = .data:0x10069460; // type:object size:0x4
lbl_10069464 = .data:0x10069464; // type:object size:0x4
?Timer@LHLocalLobbyInfo@@2VLHTimer@@A = .data:0x10069468; // type:object size:0x100
lbl_10069568 = .data:0x10069568; // type:object size:0x4
lbl_1006956C = .data:0x1006956C; // type:object size:0x4
lbl_10069570 = .data:0x10069570; // type:object size:0x4
lbl_10069574 = .data:0x10069574; // type:object size:0x4
lbl_10069578 = .data:0x10069578; // type:object size:0x4
lbl_1006957C = .data:0x1006957C; // type:object size:0x4
lbl_10069580 = .data:0x10069580; // type:object size:0x400
lbl_10069980 = .data:0x10069980; // type:object size:0x800
lbl_1006A180 = .data:0x1006A180; // type:object size:0xFE
lbl_1006A27E = .data:0x1006A27E; // type:object size:0x1
lbl_1006A27F = .data:0x1006A27F; // type:object size:0x1
lbl_1006A280 = .data:0x1006A280; // type:object size:0x100
lbl_1006A380 = .data:0x1006A380; // type:object size:0x64
lbl_1006A3E4 = .data:0x1006A3E4; // type:object size:0x64
lbl_1006A448 = .data:0x1006A448; // type:object size:0xC4
lbl_1006A50C = .data:0x1006A50C; // type:object size:0x64
lbl_1006A570 = .data:0x1006A570; // type:object size:0x4
lbl_1006A574 = .data:0x1006A574; // type:object size:0x4
lbl_1006A578 = .data:0x1006A578; // type:object size:0x4
lbl_1006A57C = .data:0x1006A57C; // type:object size:0x4
lbl_1006A580 = .data:0x1006A580; // type:object size:0x4
lbl_1006A584 = .data:0x1006A584; // type:object size:0x4
lbl_1006A588 = .data:0x1006A588; // type:object size:0x8
?SuperPacketNGTQ@LHSession@@2V?$LHDynamicQueue@PAK@@A = .data:0x1006A590; // type:object size:0x4
lbl_1006A594 = .data:0x1006A594; // type:object size:0x4
lbl_1006A598 = .data:0x1006A598; // type:object size:0x4
lbl_1006A59C = .data:0x1006A59C; // type:object size:0x4
?SuperPacketQ@LHSession@@2V?$LHDynamicQueue@PAVLHNetEvent@@@@A = .data:0x1006A5A0; // type:object size:0x4
lbl_1006A5A4 = .data:0x1006A5A4; // type:object size:0x4
lbl_1006A5A8 = .data:0x1006A5A8; // type:object size:0x4
lbl_1006A5AC = .data:0x1006A5AC; // type:object size:0x4
lbl_1006A5B0 = .data:0x1006A5B0; // type:object size:0x4
?InitFlag@LHSocket@@2HA = .data:0x1006A5B4; // type:object size:0x4
lbl_1006A5B8 = .data:0x1006A5B8; // type:object size:0x4
lbl_1006A5BC = .data:0x1006A5BC; // type:object size:0x4
lbl_1006A5C0 = .data:0x1006A5C0; // type:object size:0x4
lbl_1006A5C4 = .data:0x1006A5C4; // type:object size:0x4
lbl_1006A5C8 = .data:0x1006A5C8; // type:object size:0x8
lbl_1006A5D0 = .data:0x1006A5D0; // type:object size:0x1A0
lbl_1006A770 = .data:0x1006A770; // type:object size:0x4
lbl_1006A774 = .data:0x1006A774; // type:object size:0x4
lbl_1006A778 = .data:0x1006A778; // type:object size:0x4
lbl_1006A77C = .data:0x1006A77C; // type:object size:0x4
lbl_1006A780 = .data:0x1006A780; // type:object size:0x4
lbl_1006A784 = .data:0x1006A784; // type:object size:0x4
_dstflag_cache = .data:0x1006A788; // type:object scope:local
data_0x1006a790 = .data:0x1006A790; // type:object scope:local
data_0x1006a792 = .data:0x1006A792; // type:object scope:local
data_0x1006a796 = .data:0x1006A796; // type:object scope:local
data_0x1006a798 = .data:0x1006A798; // type:object scope:local
_gmt_cache = .data:0x1006A79A; // type:object scope:local
lbl_1006A7A0 = .data:0x1006A7A0; // type:object size:0x28
_tzapiused = .data:0x1006A7C8; // type:object scope:local
_tzinfo = .data:0x1006A7D0; // type:object scope:local
data_0x1006a7d4 = .data:0x1006A7D4; // type:object scope:local
data_0x1006a814 = .data:0x1006A814; // type:object scope:local
data_0x1006a816 = .data:0x1006A816; // type:object scope:local
data_0x1006a818 = .data:0x1006A818; // type:object scope:local
data_0x1006a81a = .data:0x1006A81A; // type:object scope:local
data_0x1006a81c = .data:0x1006A81C; // type:object scope:local
data_0x1006a81e = .data:0x1006A81E; // type:object scope:local
data_0x1006a820 = .data:0x1006A820; // type:object scope:local
data_0x1006a822 = .data:0x1006A822; // type:object scope:local
data_0x1006a824 = .data:0x1006A824; // type:object scope:local
data_0x1006a828 = .data:0x1006A828; // type:object scope:local
data_0x1006a868 = .data:0x1006A868; // type:object scope:local
data_0x1006a86a = .data:0x1006A86A; // type:object scope:local
data_0x1006a86c = .data:0x1006A86C; // type:object scope:local
data_0x1006a86e = .data:0x1006A86E; // type:object scope:local
data_0x1006a870 = .data:0x1006A870; // type:object scope:local
data_0x1006a872 = .data:0x1006A872; // type:object scope:local
data_0x1006a874 = .data:0x1006A874; // type:object scope:local
data_0x1006a876 = .data:0x1006A876; // type:object scope:local
data_0x1006a878 = .data:0x1006A878; // type:object scope:local
_lastTZ = .data:0x1006A87C; // type:object scope:local
lbl_1006A880 = .data:0x1006A880; // type:object size:0x4
___proc_attached = .data:0x1006A884; // type:object scope:local
__aenvptr = .data:0x1006A888; // type:object scope:global
___error_mode = .data:0x1006A890; // type:object scope:global
___app_type = .data:0x1006A894; // type:object scope:global
lbl_1006A898 = .data:0x1006A898; // type:object size:0x8
lbl_1006A8A0 = .data:0x1006A8A0; // type:object size:0x18
lbl_1006A8B8 = .data:0x1006A8B8; // type:object size:0x18
lbl_1006A8D0 = .data:0x1006A8D0; // type:object size:0x18
lbl_1006A8E8 = .data:0x1006A8E8; // type:object size:0x18
__newmode = .data:0x1006A900; // type:object scope:global
?_pnhHeap@@3P6AHI@ZA = .data:0x1006A904; // type:object scope:global
__umaskval = .data:0x1006A908; // type:object scope:global
__osver = .data:0x1006A90C; // type:object scope:global
data_0x1006a90d = .data:0x1006A90D; // type:object scope:global
__winver = .data:0x1006A910; // type:object scope:global
__winmajor = .data:0x1006A914; // type:object scope:global
__winminor = .data:0x1006A918; // type:object scope:global
___argc = .data:0x1006A91C; // type:object scope:global
___argv = .data:0x1006A920; // type:object scope:global
__environ = .data:0x1006A928; // type:object scope:global
___initenv = .data:0x1006A92C; // type:object scope:global
__wenviron = .data:0x1006A930; // type:object scope:global
lbl_1006A934 = .data:0x1006A934; // type:object size:0x4
__pgmptr = .data:0x1006A938; // type:object scope:global
__exitflag = .data:0x1006A940; // type:object scope:global
__C_Termination_Done = .data:0x1006A944; // type:object scope:global
__C_Exit_Done = .data:0x1006A948; // type:object scope:global
__cflush = .data:0x1006A94C; // type:object scope:global
lbl_1006A950 = .data:0x1006A950; // type:object size:0x4
lbl_1006A954 = .data:0x1006A954; // type:object size:0x4
lbl_1006A958 = .data:0x1006A958; // type:object size:0x4
lbl_1006A95C = .data:0x1006A95C; // type:object size:0x4
lbl_1006A960 = .data:0x1006A960; // type:object size:0x4
lbl_1006A964 = .data:0x1006A964; // type:object size:0x4
___lc_handle = .data:0x1006A968; // type:object scope:global
data_0x1006a96c = .data:0x1006A96C; // type:object scope:global
data_0x1006a970 = .data:0x1006A970; // type:object scope:global
data_0x1006a974 = .data:0x1006A974; // type:object scope:global
___lc_codepage = .data:0x1006A978; // type:object scope:global
lbl_1006A97C = .data:0x1006A97C; // type:object size:0x4
__stdbuf = .data:0x1006A980; // type:object scope:global
_?_pgmname@?1??_setargv@@9@9 = .data:0x1006A988; // type:object scope:local
_?f_use@?1??__crtGetEnvironmentStringsA@@9@9 = .data:0x1006AA8C; // type:object scope:local
__adbgmsg = .data:0x1006AA90; // type:object scope:global
_pOldExceptFilter = .data:0x1006AA94; // type:object scope:local
__commode = .data:0x1006AA98; // type:object scope:global
___lc_time_intl = .data:0x1006AA9C; // type:object scope:global
_?dec_pnt@?1??__init_numeric@@9@9 = .data:0x1006AAA0; // type:object scope:local
_?thous_sep@?1??__init_numeric@@9@9 = .data:0x1006AAA4; // type:object scope:local
_?grping@?1??__init_numeric@@9@9 = .data:0x1006AAA8; // type:object scope:local
___lconv_intl = .data:0x1006AAAC; // type:object scope:local
_?ctype1@?1??__init_ctype@@9@9 = .data:0x1006AAB0; // type:object scope:local
_?wctype1@?1??__init_ctype@@9@9 = .data:0x1006AAB4; // type:object scope:local
lbl_1006AAB8 = .data:0x1006AAB8; // type:object size:0xC
data_0x1006aac4 = .data:0x1006AAC4; // type:object scope:global
data_0x1006aacc = .data:0x1006AACC; // type:object scope:global
data_0x1006aad2 = .data:0x1006AAD2; // type:object scope:global
___lc_id = .data:0x1006AAD6; // type:object scope:global
data_0x1006aad8 = .data:0x1006AAD8; // type:object scope:global
lbl_1006AADC = .data:0x1006AADC; // type:object size:0x4
lbl_1006AAE0 = .data:0x1006AAE0; // type:object size:0x4
lbl_1006AAE4 = .data:0x1006AAE4; // type:object size:0x4
lbl_1006AAE8 = .data:0x1006AAE8; // type:object size:0x4
lbl_1006AAEC = .data:0x1006AAEC; // type:object size:0x4
lbl_1006AAF0 = .data:0x1006AAF0; // type:object size:0x4
lbl_1006AAF4 = .data:0x1006AAF4; // type:object size:0x1
lbl_1006AAF5 = .data:0x1006AAF5; // type:object size:0x3
lbl_1006AAF8 = .data:0x1006AAF8; // type:object size:0x4
lbl_1006AAFC = .data:0x1006AAFC; // type:object size:0x4
lbl_1006AB00 = .data:0x1006AB00; // type:object size:0x4
lbl_1006AB04 = .data:0x1006AB04; // type:object size:0x4
_fSystemSet = .data:0x1006AB08; // type:object scope:local
_?pfnMessageBoxA@?1??__crtMessageBoxA@@9@9 = .data:0x1006AB0C; // type:object scope:local
_?pfnGetActiveWindow@?1??__crtMessageBoxA@@9@9 = .data:0x1006AB10; // type:object scope:local
_?pfnGetLastActivePopup@?1??__crtMessageBoxA@@9@9 = .data:0x1006AB14; // type:object scope:local
_ctrlc_action = .data:0x1006AB18; // type:object scope:local
_ctrlbreak_action = .data:0x1006AB1C; // type:object scope:local
_abort_action = .data:0x1006AB20; // type:object scope:local
_term_action = .data:0x1006AB24; // type:object scope:local
lbl_1006AB28 = .data:0x1006AB28; // type:object size:0x4
__fmode = .data:0x1006AB2C; // type:object scope:global
data_0x1006ab30 = .data:0x1006AB30; // type:object scope:local
_?wcbuffer@?4??__getlocaleinfo@@9@9 = .data:0x1006AB38; // type:object scope:local
lbl_1006AB3C = .data:0x1006AB3C; // type:object size:0x4
lbl_1006AB40 = .data:0x1006AB40; // type:object size:0x4
lbl_1006AB44 = .data:0x1006AB44; // type:object size:0x4
lbl_1006AB48 = .data:0x1006AB48; // type:object size:0x4
lbl_1006AB4C = .data:0x1006AB4C; // type:object size:0x4
lbl_1006AB50 = .data:0x1006AB50; // type:object size:0x4
lbl_1006AB54 = .data:0x1006AB54; // type:object size:0x1
lbl_1006AB55 = .data:0x1006AB55; // type:object size:0x3
lbl_1006AB58 = .data:0x1006AB58; // type:object size:0x2
lbl_1006AB5A = .data:0x1006AB5A; // type:object size:0x2
lbl_1006AB5C = .data:0x1006AB5C; // type:object size:0x3
lbl_1006AB5F = .data:0x1006AB5F; // type:object size:0x1
lbl_1006AB60 = .data:0x1006AB60; // type:object size:0xF8
lbl_1006AC58 = .data:0x1006AC58; // type:object size:0x100
lbl_1006AD58 = .data:0x1006AD58; // type:object size:0x4
lbl_1006AD5C = .data:0x1006AD5C; // type:object size:0x204
lbl_1006AF60 = .data:0x1006AF60; // type:object size:0x10
lbl_1006AF70 = .data:0x1006AF70; // type:object size:0x10
lbl_1006AF80 = .data:0x1006AF80; // type:object size:0xB
lbl_1006AF8B = .data:0x1006AF8B; // type:object size:0x1F5
lbl_1006B180 = .data:0x1006B180; // type:object size:0x8
lbl_1006B188 = .data:0x1006B188; // type:object size:0x4
lbl_1006B18C = .data:0x1006B18C; // type:object size:0x4
lbl_1006B190 = .data:0x1006B190; // type:object size:0x2
lbl_1006B192 = .data:0x1006B192; // type:object size:0x16
lbl_1006B1A8 = .data:0x1006B1A8; // type:object size:0x4
lbl_1006B1AC = .data:0x1006B1AC; // type:object size:0x800
lbl_1006B9AC = .data:0x1006B9AC; // type:object size:0x4
lbl_1006B9B0 = .data:0x1006B9B0; // type:object size:0x50
lbl_1006BA00 = .data:0x1006BA00; // type:object size:0x4
lbl_1006BA04 = .data:0x1006BA04; // type:object size:0x1000
lbl_1006CA04 = .data:0x1006CA04; // type:object size:0x100
lbl_1006CB04 = .data:0x1006CB04; // type:object size:0x4
lbl_1006CB08 = .data:0x1006CB08; // type:object size:0x4
lbl_1006CB0C = .data:0x1006CB0C; // type:object size:0x4
lbl_1006CB10 = .data:0x1006CB10; // type:object size:0x4
lbl_1006CB14 = .data:0x1006CB14; // type:object size:0x4
lbl_1006CB18 = .data:0x1006CB18; // type:object size:0x4
lbl_1006CB1C = .data:0x1006CB1C; // type:object size:0x4
lbl_1006CB20 = .data:0x1006CB20; // type:object size:0x4
lbl_1006CB24 = .data:0x1006CB24; // type:object size:0x4
lbl_1006CB28 = .data:0x1006CB28; // type:object size:0x4
lbl_1006CB2C = .data:0x1006CB2C; // type:object size:0x4
_start_tics = .data:0x1006CB30; // type:object scope:local
data_0x1006cb34 = .data:0x1006CB34; // type:object scope:local
___mbcodepage = .data:0x1006CB38; // type:object scope:global
___mbulinfo = .data:0x1006CB40; // type:object scope:global
___ismbcodepage = .data:0x1006CB4C; // type:object scope:global
lbl_1006CB60 = .data:0x1006CB60; // type:object size:0x100
data_0x1006cc60 = .data:0x1006CC60; // type:object scope:global
__mbctype = .data:0x1006CC61; // type:object scope:global
___mblcid = .data:0x1006CD64; // type:object scope:global
___setlc_active = .data:0x1006CD68; // type:object scope:global
___unguarded_readlc_active = .data:0x1006CD6C; // type:object scope:global
___pioinfo = .data:0x1006CD80; // type:object scope:global
data_0x1006cd84 = .data:0x1006CD84; // type:object scope:global
data_0x1006ce80 = .data:0x1006CE80; // type:object scope:global
___piob = .data:0x1006CE84; // type:object scope:global
lbl_1006CEA0 = .data:0x1006CEA0; // type:object size:0x1000
__nstream = .data:0x1006DEA0; // type:object scope:global
___env_initialized = .data:0x1006DEA4; // type:object scope:global
___mbctype_initialized = .data:0x1006DEA8; // type:object scope:global
___onexitend = .data:0x1006DEAC; // type:object scope:global
___onexitbegin = .data:0x1006DEB0; // type:object scope:global
___sbh_sizeHeaderList = .data:0x1006DEB4; // type:object scope:global
___sbh_indGroupDefer = .data:0x1006DEB8; // type:object scope:global
___sbh_pHeaderScan = .data:0x1006DEBC; // type:object scope:global
___sbh_pHeaderDefer = .data:0x1006DEC4; // type:object scope:global
___sbh_cntHeaderList = .data:0x1006DEC8; // type:object scope:global
___sbh_pHeaderList = .data:0x1006DECC; // type:object scope:global
lbl_1006DED0 = .data:0x1006DED0; // type:object size:0x4
__crtheap = .data:0x1006DED4; // type:object scope:global
lbl_1006DED8 = .data:0x1006DED8; // type:object size:0x4
__acmdln = .data:0x1006DEDC; // type:object scope:global
__pRawDllMain = .data:0x1006DEE0; // type:object scope:global
lbl_1006DEE4 = .data:0x1006DEE4; // type:object size:0x4
lbl_1006DEE8 = .data:0x1006DEE8; // type:object size:0x4
lbl_1006DEEC = .data:0x1006DEEC; // type:object size:0x4
